

Microchip MPLAB XC8 Assembler V2.40 build 20220703182018 
                                                                                               Fri Dec 15 01:23:35 2023

Microchip MPLAB XC8 C Compiler v2.40 (Free license) build 20220703182018 Og1 
     1                           	processor	12F1822
     2                           	pagewidth 120
     3                           	opt	flic
     4                           	psect	idataBANK0,global,class=CODE,delta=2,noexec
     5                           	psect	stringtext1,global,class=STRCODE,delta=2,noexec
     6                           	psect	stringtext2,global,class=STRCODE,delta=2,noexec
     7                           	psect	cinit,global,class=CODE,merge=1,delta=2
     8                           	psect	bssCOMMON,global,class=COMMON,space=1,delta=1,noexec
     9                           	psect	bssBANK0,global,class=BANK0,space=1,delta=1,noexec
    10                           	psect	dataBANK0,global,class=BANK0,space=1,delta=1,noexec
    11                           	psect	inittext,global,class=CODE,delta=2
    12                           	psect	cstackCOMMON,global,class=COMMON,space=1,delta=1,noexec
    13                           	psect	cstackBANK0,global,class=BANK0,space=1,delta=1,noexec
    14                           	psect	maintext,global,class=CODE,merge=1,split=1,delta=2
    15                           	psect	text1,local,class=CODE,merge=1,delta=2
    16                           	psect	text2,local,class=CODE,merge=1,delta=2
    17                           	psect	text3,local,class=CODE,merge=1,delta=2
    18                           	psect	text4,local,class=CODE,merge=1,delta=2
    19                           	psect	text5,local,class=CODE,merge=1,delta=2
    20                           	psect	text6,local,class=CODE,merge=1,delta=2
    21                           	psect	intentry,global,class=CODE,delta=2
    22                           	psect	text8,local,class=CODE,merge=1,delta=2
    23                           	psect	idloc,global,abs,ovrld,class=IDLOC,space=5,delta=2,noexec
    24                           	psect	config,global,abs,ovrld,class=CONFIG,space=4,delta=2,noexec
    25                           	dabs	1,0xA0,32,_STACK
    26                           	dabs	1,0x7E,2
    27     0000                     
    28                           ; Version 2.40
    29                           ; Generated 17/11/2021 GMT
    30                           ; 
    31                           ; Copyright © 2021, Microchip Technology Inc. and its subsidiaries ("Microchip")
    32                           ; All rights reserved.
    33                           ; 
    34                           ; This software is developed by Microchip Technology Inc. and its subsidiaries ("Microch
      +                          ip").
    35                           ; 
    36                           ; Redistribution and use in source and binary forms, with or without modification, are
    37                           ; permitted provided that the following conditions are met:
    38                           ; 
    39                           ;     1. Redistributions of source code must retain the above copyright notice, this lis
      +                          t of
    40                           ;        conditions and the following disclaimer.
    41                           ; 
    42                           ;     2. Redistributions in binary form must reproduce the above copyright notice, this 
      +                          list
    43                           ;        of conditions and the following disclaimer in the documentation and/or other
    44                           ;        materials provided with the distribution. Publication is not required when
    45                           ;        this file is used in an embedded application.
    46                           ; 
    47                           ;     3. Microchip's name may not be used to endorse or promote products derived from th
      +                          is
    48                           ;        software without specific prior written permission.
    49                           ; 
    50                           ; THIS SOFTWARE IS PROVIDED BY MICROCHIP "AS IS" AND ANY EXPRESS OR IMPLIED WARRANTIES,
    51                           ; INCLUDING, BUT NOT LIMITED TO, THE IMPLIED WARRANTIES OF MERCHANTABILITY AND FITNESS F
      +                          OR
    52                           ; PURPOSE ARE DISCLAIMED.  IN NO EVENT SHALL MICROCHIP BE LIABLE FOR ANY DIRECT, INDIREC
      +                          T,
    53                           ; INCIDENTAL, SPECIAL, EXEMPLARY, OR CONSEQUENTIAL DAMAGES (INCLUDING BUT NOT LIMITED TO
    54                           ; PROCUREMENT OF SUBSTITUTE GOODS OR SERVICES; LOSS OF USE, DATA OR PROFITS; OR BUSINESS
    55                           ; INTERRUPTION) HOWSOEVER CAUSED AND ON ANY THEORY OF LIABILITY, WHETHER IN CONTRACT, ST
      +                          RICT
    56                           ; LIABILITY, OR TORT (INCLUDING NEGLIGENCE OR OTHERWISE) ARISING IN ANY WAY OUT OF THE U
      +                          SE OF
    57                           ; THIS SOFTWARE, EVEN IF ADVISED OF THE POSSIBILITY OF SUCH DAMAGE.
    58                           ; 
    59                           ; 
    60                           ; Code-generator required, PIC12F1822 Definitions
    61                           ; 
    62                           ; SFR Addresses
    63     0000                     	;# 
    64     0001                     	;# 
    65     0002                     	;# 
    66     0003                     	;# 
    67     0004                     	;# 
    68     0005                     	;# 
    69     0006                     	;# 
    70     0007                     	;# 
    71     0008                     	;# 
    72     0009                     	;# 
    73     000A                     	;# 
    74     000B                     	;# 
    75     000C                     	;# 
    76     0011                     	;# 
    77     0012                     	;# 
    78     0015                     	;# 
    79     0016                     	;# 
    80     0016                     	;# 
    81     0017                     	;# 
    82     0018                     	;# 
    83     0019                     	;# 
    84     001A                     	;# 
    85     001B                     	;# 
    86     001C                     	;# 
    87     001E                     	;# 
    88     001F                     	;# 
    89     008C                     	;# 
    90     0091                     	;# 
    91     0092                     	;# 
    92     0095                     	;# 
    93     0096                     	;# 
    94     0097                     	;# 
    95     0098                     	;# 
    96     0099                     	;# 
    97     009A                     	;# 
    98     009B                     	;# 
    99     009B                     	;# 
   100     009C                     	;# 
   101     009D                     	;# 
   102     009E                     	;# 
   103     010C                     	;# 
   104     0111                     	;# 
   105     0112                     	;# 
   106     0115                     	;# 
   107     0116                     	;# 
   108     0117                     	;# 
   109     0118                     	;# 
   110     0119                     	;# 
   111     011A                     	;# 
   112     011B                     	;# 
   113     011D                     	;# 
   114     011D                     	;# 
   115     018C                     	;# 
   116     0191                     	;# 
   117     0191                     	;# 
   118     0192                     	;# 
   119     0193                     	;# 
   120     0193                     	;# 
   121     0193                     	;# 
   122     0194                     	;# 
   123     0195                     	;# 
   124     0196                     	;# 
   125     0199                     	;# 
   126     019A                     	;# 
   127     019B                     	;# 
   128     019B                     	;# 
   129     019B                     	;# 
   130     019B                     	;# 
   131     019C                     	;# 
   132     019C                     	;# 
   133     019D                     	;# 
   134     019E                     	;# 
   135     019F                     	;# 
   136     020C                     	;# 
   137     0211                     	;# 
   138     0211                     	;# 
   139     0212                     	;# 
   140     0212                     	;# 
   141     0213                     	;# 
   142     0213                     	;# 
   143     0214                     	;# 
   144     0214                     	;# 
   145     0215                     	;# 
   146     0215                     	;# 
   147     0215                     	;# 
   148     0216                     	;# 
   149     0216                     	;# 
   150     0217                     	;# 
   151     0217                     	;# 
   152     0291                     	;# 
   153     0291                     	;# 
   154     0292                     	;# 
   155     0293                     	;# 
   156     0294                     	;# 
   157     0295                     	;# 
   158     0295                     	;# 
   159     0296                     	;# 
   160     0391                     	;# 
   161     0392                     	;# 
   162     0393                     	;# 
   163     039A                     	;# 
   164     039C                     	;# 
   165     039D                     	;# 
   166     039E                     	;# 
   167     039F                     	;# 
   168     0FE4                     	;# 
   169     0FE5                     	;# 
   170     0FE6                     	;# 
   171     0FE7                     	;# 
   172     0FE8                     	;# 
   173     0FE9                     	;# 
   174     0FEA                     	;# 
   175     0FEB                     	;# 
   176     0FED                     	;# 
   177     0FEE                     	;# 
   178     0FEF                     	;# 
   179     0000                     	;# 
   180     0001                     	;# 
   181     0002                     	;# 
   182     0003                     	;# 
   183     0004                     	;# 
   184     0005                     	;# 
   185     0006                     	;# 
   186     0007                     	;# 
   187     0008                     	;# 
   188     0009                     	;# 
   189     000A                     	;# 
   190     000B                     	;# 
   191     000C                     	;# 
   192     0011                     	;# 
   193     0012                     	;# 
   194     0015                     	;# 
   195     0016                     	;# 
   196     0016                     	;# 
   197     0017                     	;# 
   198     0018                     	;# 
   199     0019                     	;# 
   200     001A                     	;# 
   201     001B                     	;# 
   202     001C                     	;# 
   203     001E                     	;# 
   204     001F                     	;# 
   205     008C                     	;# 
   206     0091                     	;# 
   207     0092                     	;# 
   208     0095                     	;# 
   209     0096                     	;# 
   210     0097                     	;# 
   211     0098                     	;# 
   212     0099                     	;# 
   213     009A                     	;# 
   214     009B                     	;# 
   215     009B                     	;# 
   216     009C                     	;# 
   217     009D                     	;# 
   218     009E                     	;# 
   219     010C                     	;# 
   220     0111                     	;# 
   221     0112                     	;# 
   222     0115                     	;# 
   223     0116                     	;# 
   224     0117                     	;# 
   225     0118                     	;# 
   226     0119                     	;# 
   227     011A                     	;# 
   228     011B                     	;# 
   229     011D                     	;# 
   230     011D                     	;# 
   231     018C                     	;# 
   232     0191                     	;# 
   233     0191                     	;# 
   234     0192                     	;# 
   235     0193                     	;# 
   236     0193                     	;# 
   237     0193                     	;# 
   238     0194                     	;# 
   239     0195                     	;# 
   240     0196                     	;# 
   241     0199                     	;# 
   242     019A                     	;# 
   243     019B                     	;# 
   244     019B                     	;# 
   245     019B                     	;# 
   246     019B                     	;# 
   247     019C                     	;# 
   248     019C                     	;# 
   249     019D                     	;# 
   250     019E                     	;# 
   251     019F                     	;# 
   252     020C                     	;# 
   253     0211                     	;# 
   254     0211                     	;# 
   255     0212                     	;# 
   256     0212                     	;# 
   257     0213                     	;# 
   258     0213                     	;# 
   259     0214                     	;# 
   260     0214                     	;# 
   261     0215                     	;# 
   262     0215                     	;# 
   263     0215                     	;# 
   264     0216                     	;# 
   265     0216                     	;# 
   266     0217                     	;# 
   267     0217                     	;# 
   268     0291                     	;# 
   269     0291                     	;# 
   270     0292                     	;# 
   271     0293                     	;# 
   272     0294                     	;# 
   273     0295                     	;# 
   274     0295                     	;# 
   275     0296                     	;# 
   276     0391                     	;# 
   277     0392                     	;# 
   278     0393                     	;# 
   279     039A                     	;# 
   280     039C                     	;# 
   281     039D                     	;# 
   282     039E                     	;# 
   283     039F                     	;# 
   284     0FE4                     	;# 
   285     0FE5                     	;# 
   286     0FE6                     	;# 
   287     0FE7                     	;# 
   288     0FE8                     	;# 
   289     0FE9                     	;# 
   290     0FEA                     	;# 
   291     0FEB                     	;# 
   292     0FED                     	;# 
   293     0FEE                     	;# 
   294     0FEF                     	;# 
   295     0000                     	;# 
   296     0001                     	;# 
   297     0002                     	;# 
   298     0003                     	;# 
   299     0004                     	;# 
   300     0005                     	;# 
   301     0006                     	;# 
   302     0007                     	;# 
   303     0008                     	;# 
   304     0009                     	;# 
   305     000A                     	;# 
   306     000B                     	;# 
   307     000C                     	;# 
   308     0011                     	;# 
   309     0012                     	;# 
   310     0015                     	;# 
   311     0016                     	;# 
   312     0016                     	;# 
   313     0017                     	;# 
   314     0018                     	;# 
   315     0019                     	;# 
   316     001A                     	;# 
   317     001B                     	;# 
   318     001C                     	;# 
   319     001E                     	;# 
   320     001F                     	;# 
   321     008C                     	;# 
   322     0091                     	;# 
   323     0092                     	;# 
   324     0095                     	;# 
   325     0096                     	;# 
   326     0097                     	;# 
   327     0098                     	;# 
   328     0099                     	;# 
   329     009A                     	;# 
   330     009B                     	;# 
   331     009B                     	;# 
   332     009C                     	;# 
   333     009D                     	;# 
   334     009E                     	;# 
   335     010C                     	;# 
   336     0111                     	;# 
   337     0112                     	;# 
   338     0115                     	;# 
   339     0116                     	;# 
   340     0117                     	;# 
   341     0118                     	;# 
   342     0119                     	;# 
   343     011A                     	;# 
   344     011B                     	;# 
   345     011D                     	;# 
   346     011D                     	;# 
   347     018C                     	;# 
   348     0191                     	;# 
   349     0191                     	;# 
   350     0192                     	;# 
   351     0193                     	;# 
   352     0193                     	;# 
   353     0193                     	;# 
   354     0194                     	;# 
   355     0195                     	;# 
   356     0196                     	;# 
   357     0199                     	;# 
   358     019A                     	;# 
   359     019B                     	;# 
   360     019B                     	;# 
   361     019B                     	;# 
   362     019B                     	;# 
   363     019C                     	;# 
   364     019C                     	;# 
   365     019D                     	;# 
   366     019E                     	;# 
   367     019F                     	;# 
   368     020C                     	;# 
   369     0211                     	;# 
   370     0211                     	;# 
   371     0212                     	;# 
   372     0212                     	;# 
   373     0213                     	;# 
   374     0213                     	;# 
   375     0214                     	;# 
   376     0214                     	;# 
   377     0215                     	;# 
   378     0215                     	;# 
   379     0215                     	;# 
   380     0216                     	;# 
   381     0216                     	;# 
   382     0217                     	;# 
   383     0217                     	;# 
   384     0291                     	;# 
   385     0291                     	;# 
   386     0292                     	;# 
   387     0293                     	;# 
   388     0294                     	;# 
   389     0295                     	;# 
   390     0295                     	;# 
   391     0296                     	;# 
   392     0391                     	;# 
   393     0392                     	;# 
   394     0393                     	;# 
   395     039A                     	;# 
   396     039C                     	;# 
   397     039D                     	;# 
   398     039E                     	;# 
   399     039F                     	;# 
   400     0FE4                     	;# 
   401     0FE5                     	;# 
   402     0FE6                     	;# 
   403     0FE7                     	;# 
   404     0FE8                     	;# 
   405     0FE9                     	;# 
   406     0FEA                     	;# 
   407     0FEB                     	;# 
   408     0FED                     	;# 
   409     0FEE                     	;# 
   410     0FEF                     	;# 
   411     0000                     	;# 
   412     0001                     	;# 
   413     0002                     	;# 
   414     0003                     	;# 
   415     0004                     	;# 
   416     0005                     	;# 
   417     0006                     	;# 
   418     0007                     	;# 
   419     0008                     	;# 
   420     0009                     	;# 
   421     000A                     	;# 
   422     000B                     	;# 
   423     000C                     	;# 
   424     0011                     	;# 
   425     0012                     	;# 
   426     0015                     	;# 
   427     0016                     	;# 
   428     0016                     	;# 
   429     0017                     	;# 
   430     0018                     	;# 
   431     0019                     	;# 
   432     001A                     	;# 
   433     001B                     	;# 
   434     001C                     	;# 
   435     001E                     	;# 
   436     001F                     	;# 
   437     008C                     	;# 
   438     0091                     	;# 
   439     0092                     	;# 
   440     0095                     	;# 
   441     0096                     	;# 
   442     0097                     	;# 
   443     0098                     	;# 
   444     0099                     	;# 
   445     009A                     	;# 
   446     009B                     	;# 
   447     009B                     	;# 
   448     009C                     	;# 
   449     009D                     	;# 
   450     009E                     	;# 
   451     010C                     	;# 
   452     0111                     	;# 
   453     0112                     	;# 
   454     0115                     	;# 
   455     0116                     	;# 
   456     0117                     	;# 
   457     0118                     	;# 
   458     0119                     	;# 
   459     011A                     	;# 
   460     011B                     	;# 
   461     011D                     	;# 
   462     011D                     	;# 
   463     018C                     	;# 
   464     0191                     	;# 
   465     0191                     	;# 
   466     0192                     	;# 
   467     0193                     	;# 
   468     0193                     	;# 
   469     0193                     	;# 
   470     0194                     	;# 
   471     0195                     	;# 
   472     0196                     	;# 
   473     0199                     	;# 
   474     019A                     	;# 
   475     019B                     	;# 
   476     019B                     	;# 
   477     019B                     	;# 
   478     019B                     	;# 
   479     019C                     	;# 
   480     019C                     	;# 
   481     019D                     	;# 
   482     019E                     	;# 
   483     019F                     	;# 
   484     020C                     	;# 
   485     0211                     	;# 
   486     0211                     	;# 
   487     0212                     	;# 
   488     0212                     	;# 
   489     0213                     	;# 
   490     0213                     	;# 
   491     0214                     	;# 
   492     0214                     	;# 
   493     0215                     	;# 
   494     0215                     	;# 
   495     0215                     	;# 
   496     0216                     	;# 
   497     0216                     	;# 
   498     0217                     	;# 
   499     0217                     	;# 
   500     0291                     	;# 
   501     0291                     	;# 
   502     0292                     	;# 
   503     0293                     	;# 
   504     0294                     	;# 
   505     0295                     	;# 
   506     0295                     	;# 
   507     0296                     	;# 
   508     0391                     	;# 
   509     0392                     	;# 
   510     0393                     	;# 
   511     039A                     	;# 
   512     039C                     	;# 
   513     039D                     	;# 
   514     039E                     	;# 
   515     039F                     	;# 
   516     0FE4                     	;# 
   517     0FE5                     	;# 
   518     0FE6                     	;# 
   519     0FE7                     	;# 
   520     0FE8                     	;# 
   521     0FE9                     	;# 
   522     0FEA                     	;# 
   523     0FEB                     	;# 
   524     0FED                     	;# 
   525     0FEE                     	;# 
   526     0FEF                     	;# 
   527                           
   528                           	psect	idataBANK0
   529     05B8                     __pidataBANK0:
   530                           
   531                           ;initializer for _EE_STORE
   532     05B8  3406               	retlw	6
   533     05B9  34FF               	retlw	255
   534     05BA  3400               	retlw	0
   535     05BB  3400               	retlw	0
   536     05BC  3455               	retlw	85
   537     05BD  3400               	retlw	0
   538     05BE  34FF               	retlw	255
   539     05BF  340F               	retlw	15
   540     05C0  34FF               	retlw	255
   541     05C1  340F               	retlw	15
   542     05C2  34FF               	retlw	255
   543     05C3  340F               	retlw	15
   544     05C4  34AA               	retlw	170
   545     05C5  3400               	retlw	0
   546     05C6  3400               	retlw	0
   547     05C7  3400               	retlw	0
   548                           
   549                           	psect	stringtext1
   550     0578                     __pstringtext1:
   551     0578                     _PWM_DATA:
   552     0578  3400               	retlw	0
   553     0579  3400               	retlw	0
   554     057A  347F               	retlw	127
   555     057B  3480               	retlw	128
   556     057C  34BF               	retlw	191
   557     057D  34C0               	retlw	192
   558     057E  34E7               	retlw	231
   559     057F  34E8               	retlw	232
   560     0580  34FC               	retlw	252
   561     0581  34FD               	retlw	253
   562     0582  34FE               	retlw	254
   563     0583  34FF               	retlw	255
   564     0584  3400               	retlw	0
   565     0585  3400               	retlw	0
   566     0586  3400               	retlw	0
   567     0587  3400               	retlw	0
   568     0588  3400               	retlw	0
   569     0589  3400               	retlw	0
   570     058A  3400               	retlw	0
   571     058B  3400               	retlw	0
   572     058C  3400               	retlw	0
   573     058D  3400               	retlw	0
   574     058E  3400               	retlw	0
   575     058F  3400               	retlw	0
   576     0590  3400               	retlw	0
   577     0591  3400               	retlw	0
   578     0592  3400               	retlw	0
   579     0593  3400               	retlw	0
   580     0594  3400               	retlw	0
   581     0595  3400               	retlw	0
   582     0596  3400               	retlw	0
   583     0597  3400               	retlw	0
   584     0598  3400               	retlw	0
   585     0599  3400               	retlw	0
   586     059A  3400               	retlw	0
   587     059B  3400               	retlw	0
   588     059C  3400               	retlw	0
   589     059D  3400               	retlw	0
   590     059E  3400               	retlw	0
   591     059F  3400               	retlw	0
   592     05A0  3400               	retlw	0
   593     05A1  3400               	retlw	0
   594     05A2  3400               	retlw	0
   595     05A3  3400               	retlw	0
   596     05A4  3400               	retlw	0
   597     05A5  3400               	retlw	0
   598     05A6  3400               	retlw	0
   599     05A7  3400               	retlw	0
   600     05A8  3400               	retlw	0
   601     05A9  3400               	retlw	0
   602     05AA  3400               	retlw	0
   603     05AB  3400               	retlw	0
   604     05AC  3400               	retlw	0
   605     05AD  3400               	retlw	0
   606     05AE  3400               	retlw	0
   607     05AF  3400               	retlw	0
   608     05B0  3400               	retlw	0
   609     05B1  3400               	retlw	0
   610     05B2  3400               	retlw	0
   611     05B3  3400               	retlw	0
   612     05B4  3400               	retlw	0
   613     05B5  3400               	retlw	0
   614     05B6  3400               	retlw	0
   615     05B7  3400               	retlw	0
   616     05B8                     __end_of_PWM_DATA:
   617                           
   618                           	psect	stringtext2
   619     05CE                     __pstringtext2:
   620     05CE                     _DCC_ADRS:
   621     05CE  347F               	retlw	127
   622     05CF  34BF               	retlw	191
   623     05D0  34E7               	retlw	231
   624     05D1  34FC               	retlw	252
   625     05D2  34FE               	retlw	254
   626     05D3                     __end_of_DCC_ADRS:
   627     0016                     _TMR1	set	22
   628     0012                     _PIR2bits	set	18
   629     0011                     _PIR1	set	17
   630     0011                     _PIR1bits	set	17
   631     000B                     _INTCONbits	set	11
   632     001C                     _T2CON	set	28
   633     001B                     _PR2	set	27
   634     0018                     _T1CON	set	24
   635     000B                     _INTCON	set	11
   636     000C                     _PORTA	set	12
   637     0092                     _PIE2	set	146
   638     0091                     _PIE1	set	145
   639     008C                     _TRISA	set	140
   640     0099                     _OSCCON	set	153
   641     011D                     _APFCON	set	285
   642     0193                     _EEDAT	set	403
   643     0191                     _EEADR	set	401
   644     0196                     _EECON2	set	406
   645     0195                     _EECON1bits	set	405
   646     0195                     _EECON1	set	405
   647     018C                     _ANSELA	set	396
   648     0291                     _CCPR1L	set	657
   649     0296                     _PSTR1CON	set	662
   650     0293                     _CCP1CON	set	659
   651     0393                     _IOCAF	set	915
   652     0391                     _IOCAP	set	913
   653                           
   654                           	psect	cinit
   655     00E3                     start_initialization:	
   656                           ; #config settings
   657                           
   658     00E3                     __initialization:
   659                           
   660                           ; Initialize objects allocated to BANK0
   661     00E3  30B8               	movlw	low __pidataBANK0
   662     00E4  0084               	movwf	4
   663     00E5  3085               	movlw	(high __pidataBANK0)| (0+128)
   664     00E6  0085               	movwf	5
   665     00E7  304C               	movlw	low __pdataBANK0
   666     00E8  0086               	movwf	6
   667     00E9  3000               	movlw	high __pdataBANK0
   668     00EA  0087               	movwf	7
   669     00EB  3010               	movlw	16
   670     00EC  3185  25C8  3180   	fcall	init_ram
   671                           
   672                           ; Clear objects allocated to COMMON
   673     00EF  01F8               	clrf	__pbssCOMMON& (0+127)
   674     00F0  01F9               	clrf	(__pbssCOMMON+1)& (0+127)
   675                           
   676                           ; Clear objects allocated to BANK0
   677     00F1  01DC               	clrf	__pbssBANK0& (0+127)
   678     00F2  01DD               	clrf	(__pbssBANK0+1)& (0+127)
   679     00F3                     end_of_initialization:	
   680                           ;End of C runtime variable initialization code
   681                           
   682     00F3                     __end_of__initialization:
   683     00F3  107E               	bcf	int$flags,0	;clear compiler interrupt flag (level 1)
   684     00F4  0020               	movlb	0
   685     00F5  2C60               	ljmp	_main	;jump to C main() function
   686                           
   687                           	psect	bssCOMMON
   688     0078                     __pbssCOMMON:
   689     0078                     _COUNTER:
   690     0078                     	ds	1
   691     0079                     _DATA:
   692     0079                     	ds	1
   693                           
   694                           	psect	bssBANK0
   695     005C                     __pbssBANK0:
   696     005C                     _STCR:
   697     005C                     	ds	1
   698     005D                     _COM_FLAG:
   699     005D                     	ds	1
   700                           
   701                           	psect	dataBANK0
   702     004C                     __pdataBANK0:
   703     004C                     _EE_STORE:
   704     004C                     	ds	16
   705                           
   706                           	psect	inittext
   707     05C8                     init_ram:
   708     05C8  00FE               	movwf	btemp
   709     05C9                     initloop:
   710     05C9  0012               	moviw fsr0++
   711     05CA  001E               	movwi fsr1++
   712     05CB  0BFE               	decfsz	btemp,f
   713     05CC  2DC9               	goto	initloop
   714     05CD  3400               	retlw	0
   715                           
   716                           	psect	cstackCOMMON
   717     0070                     __pcstackCOMMON:
   718     0070                     ?_EEPROM_SELECT:
   719     0070                     ?_main:	
   720                           ; 1 bytes @ 0x0
   721                           
   722     0070                     ?_isr:	
   723                           ; 1 bytes @ 0x0
   724                           
   725     0070                     ?i1_EEPROM_SELECT:	
   726                           ; 1 bytes @ 0x0
   727                           
   728     0070                     ??i1_EEPROM_SELECT:	
   729                           ; 1 bytes @ 0x0
   730                           
   731                           
   732                           ; 1 bytes @ 0x0
   733     0070                     	ds	2
   734     0072                     i1EEPROM_SELECT@EE_SAVE:
   735                           
   736                           ; 2 bytes @ 0x2
   737     0072                     	ds	2
   738     0074                     i1EEPROM_SELECT@COUNT:
   739                           
   740                           ; 1 bytes @ 0x4
   741     0074                     	ds	1
   742     0075                     ??_isr:
   743                           
   744                           ; 1 bytes @ 0x5
   745     0075                     	ds	1
   746     0076                     isr@COUNT:
   747                           
   748                           ; 2 bytes @ 0x6
   749     0076                     	ds	2
   750                           
   751                           	psect	cstackBANK0
   752     0020                     __pcstackBANK0:
   753     0020                     ??_EEPROM_SELECT:
   754     0020                     ?_DEC_SET:	
   755                           ; 1 bytes @ 0x0
   756                           
   757     0020                     ?_PWM_SET:	
   758                           ; 1 bytes @ 0x0
   759                           
   760     0020                     ?_FUNC_SET:	
   761                           ; 1 bytes @ 0x0
   762                           
   763     0020                     ?_CONFIG_SET:	
   764                           ; 1 bytes @ 0x0
   765                           
   766     0020                     DEC_SET@P_RANGE:	
   767                           ; 1 bytes @ 0x0
   768                           
   769     0020                     PWM_SET@P_RANGE:	
   770                           ; 1 bytes @ 0x0
   771                           
   772     0020                     FUNC_SET@P_RANGE:	
   773                           ; 1 bytes @ 0x0
   774                           
   775     0020                     CONFIG_SET@P_RANGE:	
   776                           ; 1 bytes @ 0x0
   777                           
   778                           
   779                           ; 1 bytes @ 0x0
   780     0020                     	ds	1
   781     0021                     ??_DEC_SET:
   782     0021                     ??_PWM_SET:	
   783                           ; 1 bytes @ 0x1
   784                           
   785     0021                     ??_FUNC_SET:	
   786                           ; 1 bytes @ 0x1
   787                           
   788     0021                     ??_CONFIG_SET:	
   789                           ; 1 bytes @ 0x1
   790                           
   791     0021                     DEC_SET@DATA:	
   792                           ; 1 bytes @ 0x1
   793                           
   794     0021                     PWM_SET@DATA:	
   795                           ; 1 bytes @ 0x1
   796                           
   797     0021                     FUNC_SET@DATA:	
   798                           ; 1 bytes @ 0x1
   799                           
   800     0021                     CONFIG_SET@DATA:	
   801                           ; 1 bytes @ 0x1
   802                           
   803                           
   804                           ; 1 bytes @ 0x1
   805     0021                     	ds	1
   806     0022                     ?_PACKET_CONTROL:
   807     0022                     PACKET_CONTROL@P_RANGE:	
   808                           ; 1 bytes @ 0x2
   809                           
   810     0022                     EEPROM_SELECT@EE_SAVE:	
   811                           ; 1 bytes @ 0x2
   812                           
   813                           
   814                           ; 2 bytes @ 0x2
   815     0022                     	ds	1
   816     0023                     ??_PACKET_CONTROL:
   817                           
   818                           ; 1 bytes @ 0x3
   819     0023                     	ds	1
   820     0024                     EEPROM_SELECT@COUNT:
   821                           
   822                           ; 1 bytes @ 0x4
   823     0024                     	ds	2
   824     0026                     PACKET_CONTROL@DATA:
   825                           
   826                           ; 1 bytes @ 0x6
   827     0026                     	ds	1
   828     0027                     ??_main:
   829                           
   830                           ; 1 bytes @ 0x7
   831     0027                     	ds	2
   832     0029                     main@BYPASS:
   833                           
   834                           ; 32 bytes @ 0x9
   835     0029                     	ds	32
   836     0049                     main@PACKET:
   837                           
   838                           ; 1 bytes @ 0x29
   839     0049                     	ds	1
   840     004A                     main@count:
   841                           
   842                           ; 1 bytes @ 0x2A
   843     004A                     	ds	1
   844     004B                     main@DCC_PACKET_RANGE:
   845                           
   846                           ; 1 bytes @ 0x2B
   847     004B                     	ds	1
   848                           
   849                           	psect	maintext
   850     0460                     __pmaintext:	
   851 ;;
   852 ;;Main: autosize = 0, tempsize = 2, incstack = 0, save=0
   853 ;;
   854 ;; *************** function _main *****************
   855 ;; Defined at:
   856 ;;		line 33 in file "Project_ATCS_Decorder_Main.c"
   857 ;; Parameters:    Size  Location     Type
   858 ;;		None
   859 ;; Auto vars:     Size  Location     Type
   860 ;;  count           1   42[BANK0 ] unsigned char 
   861 ;;  BYPASS         32    9[BANK0 ] unsigned char [32]
   862 ;;  DCC_PACKET_R    1   43[BANK0 ] unsigned char 
   863 ;;  PACKET          1   41[BANK0 ] unsigned char 
   864 ;;  CHECKSUM        1    0        unsigned char 
   865 ;; Return value:  Size  Location     Type
   866 ;;                  1    wreg      void 
   867 ;; Registers used:
   868 ;;		wreg, fsr0l, fsr0h, fsr1l, fsr1h, status,2, status,0, pclath, cstack
   869 ;; Tracked objects:
   870 ;;		On entry : B1F/0
   871 ;;		On exit  : 0/0
   872 ;;		Unchanged: 0/0
   873 ;; Data sizes:     COMMON   BANK0
   874 ;;      Params:         0       0
   875 ;;      Locals:         0      35
   876 ;;      Temps:          0       2
   877 ;;      Totals:         0      37
   878 ;;Total ram usage:       37 bytes
   879 ;; Hardware stack levels required when called: 4
   880 ;; This function calls:
   881 ;;		_EEPROM_SELECT
   882 ;;		_PACKET_CONTROL
   883 ;; This function is called by:
   884 ;;		Startup code after reset
   885 ;; This function uses a non-reentrant model
   886 ;;
   887                           
   888     0460                     _main:	
   889                           ;psect for function _main
   890                           
   891     0460                     l1723:	
   892                           ;incstack = 0
   893                           ; Regs used in _main: [wreg-fsr1h+status,2+status,0+pclath+cstack]
   894                           
   895                           
   896                           ;Project_ATCS_Decorder_Main.c: 35:     OSCCON = 0x72;
   897     0460  3072               	movlw	114
   898     0461  0021               	movlb	1	; select bank1
   899     0462  0099               	movwf	25	;volatile
   900     0463                     l1725:
   901                           
   902                           ;Project_ATCS_Decorder_Main.c: 36:     ANSELA = 0x00;
   903     0463  0023               	movlb	3	; select bank3
   904     0464  018C               	clrf	12	;volatile
   905     0465                     l1727:
   906                           
   907                           ;Project_ATCS_Decorder_Main.c: 38:     TRISA = 0x04;
   908     0465  3004               	movlw	4
   909     0466  0021               	movlb	1	; select bank1
   910     0467  008C               	movwf	12	;volatile
   911                           
   912                           ;Project_ATCS_Decorder_Main.c: 39:     PORTA = 0x00;
   913     0468  0020               	movlb	0	; select bank0
   914     0469  018C               	clrf	12	;volatile
   915     046A                     l1729:
   916                           
   917                           ;Project_ATCS_Decorder_Main.c: 41:     APFCON = 0x03;
   918     046A  3003               	movlw	3
   919     046B  0022               	movlb	2	; select bank2
   920     046C  009D               	movwf	29	;volatile
   921     046D                     l1731:
   922                           
   923                           ;Project_ATCS_Decorder_Main.c: 43:     INTCON = 0xC8;
   924     046D  30C8               	movlw	200
   925     046E  008B               	movwf	11	;volatile
   926     046F                     l1733:
   927                           
   928                           ;Project_ATCS_Decorder_Main.c: 44:     IOCAP = 0x04;
   929     046F  3004               	movlw	4
   930     0470  0027               	movlb	7	; select bank7
   931     0471  0091               	movwf	17	;volatile
   932     0472                     l1735:
   933                           
   934                           ;Project_ATCS_Decorder_Main.c: 45:     PIE1 = 0x81;
   935     0472  3081               	movlw	129
   936     0473  0021               	movlb	1	; select bank1
   937     0474  0091               	movwf	17	;volatile
   938     0475                     l1737:
   939                           
   940                           ;Project_ATCS_Decorder_Main.c: 46:     PIE2 = 0x10;
   941     0475  3010               	movlw	16
   942     0476  0092               	movwf	18	;volatile
   943     0477                     l1739:
   944                           
   945                           ;Project_ATCS_Decorder_Main.c: 47:     T1CON = 0x01;
   946     0477  3001               	movlw	1
   947     0478  0020               	movlb	0	; select bank0
   948     0479  0098               	movwf	24	;volatile
   949     047A                     l1741:
   950                           
   951                           ;Project_ATCS_Decorder_Main.c: 49:     CCP1CON = 0x0F;
   952     047A  300F               	movlw	15
   953     047B  0025               	movlb	5	; select bank5
   954     047C  0093               	movwf	19	;volatile
   955     047D                     l1743:
   956                           
   957                           ;Project_ATCS_Decorder_Main.c: 50:     PSTR1CON = 0x01;
   958     047D  3001               	movlw	1
   959     047E  0096               	movwf	22	;volatile
   960     047F                     l1745:
   961                           
   962                           ;Project_ATCS_Decorder_Main.c: 51:     PR2 = 0x19;
   963     047F  3019               	movlw	25
   964     0480  0020               	movlb	0	; select bank0
   965     0481  009B               	movwf	27	;volatile
   966     0482                     l1747:
   967                           
   968                           ;Project_ATCS_Decorder_Main.c: 52:     CCPR1L = 0x3F;
   969     0482  303F               	movlw	63
   970     0483  0025               	movlb	5	; select bank5
   971     0484  0091               	movwf	17	;volatile
   972     0485                     l1749:
   973                           
   974                           ;Project_ATCS_Decorder_Main.c: 53:     T2CON = 0x04;
   975     0485  3004               	movlw	4
   976     0486  0020               	movlb	0	; select bank0
   977     0487  009C               	movwf	28	;volatile
   978     0488                     l1751:
   979                           
   980                           ;Project_ATCS_Decorder_Main.c: 55:     EE_STORE.EE_STATE = EE_WRITE_UID;
   981     0488  3002               	movlw	2
   982     0489  00CC               	movwf	_EE_STORE
   983     048A                     l1753:
   984                           
   985                           ;Project_ATCS_Decorder_Main.c: 56:     EEPROM_SELECT();
   986     048A  3180  20F6  3184   	fcall	_EEPROM_SELECT
   987     048D                     l1755:
   988                           
   989                           ;Project_ATCS_Decorder_Main.c: 60:         if(COM_FLAG & 0x04){
   990     048D  0020               	movlb	0	; select bank0
   991     048E  1D5D               	btfss	_COM_FLAG,2
   992     048F  2C91               	goto	u961
   993     0490  2C92               	goto	u960
   994     0491                     u961:
   995     0491  2C8D               	goto	l1755
   996     0492                     u960:
   997     0492                     l1757:
   998     0492                     l1759:
   999                           
  1000                           ;Project_ATCS_Decorder_Main.c: 62:             UnCHR DCC_PACKET_RANGE = STCR;
  1001     0492  085C               	movf	_STCR,w
  1002     0493  00CB               	movwf	main@DCC_PACKET_RANGE
  1003     0494                     l1761:
  1004                           
  1005                           ;Project_ATCS_Decorder_Main.c: 63:             UnCHR BYPASS[32];;Project_ATCS_Decorder_M
      +                          ain.c: 64:             UnCHR PACKET = STACK[0];
  1006     0494  0021               	movlb	1	; select bank1
  1007     0495  0820               	movf	32,w
  1008     0496  0020               	movlb	0	; select bank0
  1009     0497  00C9               	movwf	main@PACKET
  1010     0498                     l1763:
  1011                           
  1012                           ;Project_ATCS_Decorder_Main.c: 66:             COM_FLAG = COM_FLAG & 0xFB;
  1013     0498  085D               	movf	_COM_FLAG,w
  1014     0499  39FB               	andlw	251
  1015     049A  00DD               	movwf	_COM_FLAG
  1016     049B                     l1765:
  1017                           
  1018                           ;Project_ATCS_Decorder_Main.c: 68:                 STCR--;
  1019     049B  3001               	movlw	1
  1020     049C  02DC               	subwf	_STCR,f
  1021     049D                     l1767:
  1022                           
  1023                           ;Project_ATCS_Decorder_Main.c: 69:                 BYPASS[STCR] = STACK[STCR];
  1024     049D  085C               	movf	_STCR,w
  1025     049E  3E29               	addlw	(low (main@BYPASS| 0))& (0+255)
  1026     049F  0086               	movwf	6
  1027     04A0  0187               	clrf	7
  1028     04A1  085C               	movf	_STCR,w
  1029     04A2  3EA0               	addlw	160
  1030     04A3  0084               	movwf	4
  1031     04A4  0185               	clrf	5
  1032     04A5  0800               	movf	0,w
  1033     04A6  0081               	movwf	1
  1034     04A7                     l1769:
  1035                           
  1036                           ;Project_ATCS_Decorder_Main.c: 70:             }while(STCR);
  1037     04A7  085C               	movf	_STCR,w
  1038     04A8  1D03               	btfss	3,2
  1039     04A9  2CAB               	goto	u971
  1040     04AA  2CAC               	goto	u970
  1041     04AB                     u971:
  1042     04AB  2C9B               	goto	l1765
  1043     04AC                     u970:
  1044     04AC                     l1771:
  1045                           
  1046                           ;Project_ATCS_Decorder_Main.c: 72:             if(DCC_PACKET_RANGE < 7){
  1047     04AC  3007               	movlw	7
  1048     04AD  024B               	subwf	main@DCC_PACKET_RANGE,w
  1049     04AE  1803               	skipnc
  1050     04AF  2CB1               	goto	u981
  1051     04B0  2CB2               	goto	u980
  1052     04B1                     u981:
  1053     04B1  2C8D               	goto	l1755
  1054     04B2                     u980:
  1055     04B2                     l1773:
  1056     04B2  30A0               	movlw	160
  1057     04B3  0086               	movwf	6
  1058     04B4  3000               	movlw	0
  1059     04B5  0087               	movwf	7
  1060     04B6                     l1775:
  1061                           
  1062                           ;Project_ATCS_Decorder_Main.c: 74:                 for(UnCHR count = 1 ;count < DCC_PACK
      +                          ET_RANGE;count++){
  1063     04B6  01CA               	clrf	main@count
  1064     04B7  0ACA               	incf	main@count,f
  1065     04B8  2CC4               	goto	l1781
  1066     04B9                     l1777:
  1067                           
  1068                           ;Project_ATCS_Decorder_Main.c: 75:                     PACKET = PACKET ^ BYPASS[count];
  1069     04B9  084A               	movf	main@count,w
  1070     04BA  3E29               	addlw	(low (main@BYPASS| 0))& (0+255)
  1071     04BB  0086               	movwf	6
  1072     04BC  0187               	clrf	7
  1073     04BD  0801               	movf	1,w
  1074     04BE  0649               	xorwf	main@PACKET,w
  1075     04BF  00C9               	movwf	main@PACKET
  1076     04C0                     l1779:
  1077                           
  1078                           ;Project_ATCS_Decorder_Main.c: 76:                 }
  1079     04C0  3001               	movlw	1
  1080     04C1  00A7               	movwf	??_main
  1081     04C2  0827               	movf	??_main,w
  1082     04C3  07CA               	addwf	main@count,f
  1083     04C4                     l1781:
  1084     04C4  084B               	movf	main@DCC_PACKET_RANGE,w
  1085     04C5  024A               	subwf	main@count,w
  1086     04C6  1C03               	skipc
  1087     04C7  2CC9               	goto	u991
  1088     04C8  2CCA               	goto	u990
  1089     04C9                     u991:
  1090     04C9  2CB9               	goto	l1777
  1091     04CA                     u990:
  1092     04CA                     l1783:
  1093                           
  1094                           ;Project_ATCS_Decorder_Main.c: 78:                 if(PACKET == STACK[DCC_PACKET_RANGE])
      +                          {
  1095     04CA  084B               	movf	main@DCC_PACKET_RANGE,w
  1096     04CB  3EA0               	addlw	160
  1097     04CC  0086               	movwf	6
  1098     04CD  0187               	clrf	7
  1099     04CE  0801               	movf	1,w
  1100     04CF  0649               	xorwf	main@PACKET,w
  1101     04D0  1D03               	skipz
  1102     04D1  2CD3               	goto	u1001
  1103     04D2  2CD4               	goto	u1000
  1104     04D3                     u1001:
  1105     04D3  2C8D               	goto	l1755
  1106     04D4                     u1000:
  1107     04D4                     l1785:
  1108                           
  1109                           ;Project_ATCS_Decorder_Main.c: 79:                     if(BYPASS[0] == 0x00){
  1110     04D4  0829               	movf	main@BYPASS,w
  1111     04D5  1D03               	btfss	3,2
  1112     04D6  2CD8               	goto	u1011
  1113     04D7  2CD9               	goto	u1010
  1114     04D8                     u1011:
  1115     04D8  2CE0               	goto	l1789
  1116     04D9                     u1010:
  1117     04D9                     l1787:
  1118                           
  1119                           ;Project_ATCS_Decorder_Main.c: 80:                         PACKET_CONTROL(BYPASS,&DCC_PA
      +                          CKET_RANGE);
  1120     04D9  304B               	movlw	(low (main@DCC_PACKET_RANGE| 0))& (0+255)
  1121     04DA  00A2               	movwf	PACKET_CONTROL@P_RANGE
  1122     04DB  3029               	movlw	(low (main@BYPASS| 0))& (0+255)
  1123     04DC  3185  2507  3184   	fcall	_PACKET_CONTROL
  1124                           
  1125                           ;Project_ATCS_Decorder_Main.c: 81:                     }else if(BYPASS[0] <= 0x7F){
  1126     04DF  2C8D               	goto	l1755
  1127     04E0                     l1789:
  1128     04E0  3080               	movlw	128
  1129     04E1  0229               	subwf	main@BYPASS,w
  1130     04E2  1803               	skipnc
  1131     04E3  2CE5               	goto	u1021
  1132     04E4  2CE6               	goto	u1020
  1133     04E5                     u1021:
  1134     04E5  2C8D               	goto	l1755
  1135     04E6                     u1020:
  1136     04E6                     l1791:
  1137                           
  1138                           ;Project_ATCS_Decorder_Main.c: 82:                         EE_STORE.EE_ADRS = 0x00;
  1139     04E6  01CE               	clrf	_EE_STORE+2
  1140     04E7  01CF               	clrf	_EE_STORE+3
  1141                           
  1142                           ;Project_ATCS_Decorder_Main.c: 83:                         EE_STORE.EE_STATE = EE_READ_S
      +                          ;
  1143     04E8  01CC               	clrf	_EE_STORE
  1144     04E9                     l1793:
  1145                           
  1146                           ;Project_ATCS_Decorder_Main.c: 84:                         EE_STORE.EE_CONFIG = 0x40;
  1147     04E9  3040               	movlw	64
  1148     04EA  00CD               	movwf	_EE_STORE+1
  1149     04EB                     l1795:
  1150                           
  1151                           ;Project_ATCS_Decorder_Main.c: 85:                         EE_STORE.EE_REPORT[0] = 0xAA;
  1152     04EB  30AA               	movlw	170
  1153     04EC  00D8               	movwf	_EE_STORE+12
  1154     04ED                     l1797:
  1155                           
  1156                           ;Project_ATCS_Decorder_Main.c: 86:                         EEPROM_SELECT();
  1157     04ED  3180  20F6  3184   	fcall	_EEPROM_SELECT
  1158     04F0                     l1799:
  1159                           
  1160                           ;Project_ATCS_Decorder_Main.c: 87:                         if(BYPASS[0] == EE_STORE.EE_D
      +                          ATA[0]){
  1161     04F0  0020               	movlb	0	; select bank0
  1162     04F1  0829               	movf	main@BYPASS,w
  1163     04F2  00A7               	movwf	??_main
  1164     04F3  01A8               	clrf	??_main+1
  1165     04F4  0851               	movf	_EE_STORE+5,w
  1166     04F5  0628               	xorwf	??_main+1,w
  1167     04F6  1D03               	skipz
  1168     04F7  2CFA               	goto	u1035
  1169     04F8  0850               	movf	_EE_STORE+4,w
  1170     04F9  0627               	xorwf	??_main,w
  1171     04FA                     u1035:
  1172     04FA  1D03               	skipz
  1173     04FB  2CFD               	goto	u1031
  1174     04FC  2CFE               	goto	u1030
  1175     04FD                     u1031:
  1176     04FD  2D05               	goto	l59
  1177     04FE                     u1030:
  1178     04FE                     l1801:
  1179                           
  1180                           ;Project_ATCS_Decorder_Main.c: 88:                             PACKET_CONTROL(BYPASS,&DC
      +                          C_PACKET_RANGE);
  1181     04FE  304B               	movlw	(low (main@DCC_PACKET_RANGE| 0))& (0+255)
  1182     04FF  00A2               	movwf	PACKET_CONTROL@P_RANGE
  1183     0500  3029               	movlw	(low (main@BYPASS| 0))& (0+255)
  1184     0501  3185  2507  3184   	fcall	_PACKET_CONTROL
  1185     0504  2C8D               	goto	l1755
  1186     0505                     l59:	
  1187                           ;Project_ATCS_Decorder_Main.c: 91:                 }
  1188                           
  1189     0505  2C8D               	goto	l1755
  1190     0506  28E2               	ljmp	start
  1191     0507                     __end_of_main:
  1192                           
  1193                           	psect	text1
  1194     0507                     __ptext1:	
  1195 ;; *************** function _PACKET_CONTROL *****************
  1196 ;; Defined at:
  1197 ;;		line 138 in file "Project_ATCS_Decorder_Module.c"
  1198 ;; Parameters:    Size  Location     Type
  1199 ;;  DATA            1    wreg     PTR unsigned char 
  1200 ;;		 -> main@BYPASS(32), 
  1201 ;;  P_RANGE         1    2[BANK0 ] PTR unsigned char 
  1202 ;;		 -> main@DCC_PACKET_RANGE(1), 
  1203 ;; Auto vars:     Size  Location     Type
  1204 ;;  DATA            1    6[BANK0 ] PTR unsigned char 
  1205 ;;		 -> main@BYPASS(32), 
  1206 ;; Return value:  Size  Location     Type
  1207 ;;                  1    wreg      void 
  1208 ;; Registers used:
  1209 ;;		wreg, fsr0l, fsr0h, fsr1l, fsr1h, status,2, status,0, pclath, cstack
  1210 ;; Tracked objects:
  1211 ;;		On entry : 0/0
  1212 ;;		On exit  : 0/0
  1213 ;;		Unchanged: 0/0
  1214 ;; Data sizes:     COMMON   BANK0
  1215 ;;      Params:         0       1
  1216 ;;      Locals:         0       1
  1217 ;;      Temps:          0       3
  1218 ;;      Totals:         0       5
  1219 ;;Total ram usage:        5 bytes
  1220 ;; Hardware stack levels used: 1
  1221 ;; Hardware stack levels required when called: 3
  1222 ;; This function calls:
  1223 ;;		_CONFIG_SET
  1224 ;;		_DEC_SET
  1225 ;;		_FUNC_SET
  1226 ;;		_PWM_SET
  1227 ;; This function is called by:
  1228 ;;		_main
  1229 ;; This function uses a non-reentrant model
  1230 ;;
  1231                           
  1232     0507                     _PACKET_CONTROL:	
  1233                           ;psect for function _PACKET_CONTROL
  1234                           
  1235                           
  1236                           ;incstack = 0
  1237                           ; Regs used in _PACKET_CONTROL: [wreg-fsr1h+status,2+status,0+pclath+cstack]
  1238                           ;PACKET_CONTROL@DATA stored from wreg
  1239     0507  0020               	movlb	0	; select bank0
  1240     0508  00A6               	movwf	PACKET_CONTROL@DATA
  1241     0509                     l1533:
  1242                           
  1243                           ;Project_ATCS_Decorder_Module.c: 139:     switch(DATA[1] >> 5){
  1244     0509  2D4C               	goto	l1571
  1245     050A                     l1535:
  1246                           
  1247                           ;Project_ATCS_Decorder_Module.c: 141:             COM_FLAG &= 0xF7;
  1248     050A  30F7               	movlw	247
  1249     050B  00A3               	movwf	??_PACKET_CONTROL
  1250     050C  0823               	movf	??_PACKET_CONTROL,w
  1251     050D  05DD               	andwf	_COM_FLAG,f
  1252     050E                     l1537:
  1253                           
  1254                           ;Project_ATCS_Decorder_Module.c: 142:             DEC_SET(DATA,P_RANGE);
  1255     050E  0822               	movf	PACKET_CONTROL@P_RANGE,w
  1256     050F  00A0               	movwf	DEC_SET@P_RANGE
  1257     0510  0826               	movf	PACKET_CONTROL@DATA,w
  1258     0511  3185  25D5  3185   	fcall	_DEC_SET
  1259     0514  2D77               	goto	l201
  1260     0515                     l202:	
  1261                           ;Project_ATCS_Decorder_Module.c: 144:         case 1:
  1262                           
  1263                           
  1264                           ;Project_ATCS_Decorder_Module.c: 145:             COM_FLAG |= 0x08;
  1265     0515  15DD               	bsf	_COM_FLAG,3
  1266     0516                     l1541:
  1267                           
  1268                           ;Project_ATCS_Decorder_Module.c: 146:             DEC_SET(DATA,P_RANGE);
  1269     0516  0822               	movf	PACKET_CONTROL@P_RANGE,w
  1270     0517  00A0               	movwf	DEC_SET@P_RANGE
  1271     0518  0826               	movf	PACKET_CONTROL@DATA,w
  1272     0519  3185  25D5  3185   	fcall	_DEC_SET
  1273     051C  2D77               	goto	l201
  1274     051D                     l203:	
  1275                           ;Project_ATCS_Decorder_Module.c: 148:         case 2:
  1276                           
  1277                           
  1278                           ;Project_ATCS_Decorder_Module.c: 149:             COM_FLAG |= 0x10;
  1279     051D  165D               	bsf	_COM_FLAG,4
  1280     051E                     l1545:
  1281                           
  1282                           ;Project_ATCS_Decorder_Module.c: 150:             PWM_SET(DATA,P_RANGE);
  1283     051E  0822               	movf	PACKET_CONTROL@P_RANGE,w
  1284     051F  00A0               	movwf	PWM_SET@P_RANGE
  1285     0520  0826               	movf	PACKET_CONTROL@DATA,w
  1286     0521  3185  25D3  3185   	fcall	_PWM_SET
  1287     0524  2D77               	goto	l201
  1288     0525                     l1549:
  1289                           
  1290                           ;Project_ATCS_Decorder_Module.c: 153:             COM_FLAG &= 0xEF;
  1291     0525  30EF               	movlw	239
  1292     0526  00A3               	movwf	??_PACKET_CONTROL
  1293     0527  0823               	movf	??_PACKET_CONTROL,w
  1294     0528  05DD               	andwf	_COM_FLAG,f
  1295     0529                     l1551:
  1296                           
  1297                           ;Project_ATCS_Decorder_Module.c: 154:             PWM_SET(DATA,P_RANGE);
  1298     0529  0822               	movf	PACKET_CONTROL@P_RANGE,w
  1299     052A  00A0               	movwf	PWM_SET@P_RANGE
  1300     052B  0826               	movf	PACKET_CONTROL@DATA,w
  1301     052C  3185  25D3  3185   	fcall	_PWM_SET
  1302     052F  2D77               	goto	l201
  1303     0530                     l1555:
  1304                           
  1305                           ;Project_ATCS_Decorder_Module.c: 157:             COM_FLAG &= 0xDF;
  1306     0530  30DF               	movlw	223
  1307     0531  00A3               	movwf	??_PACKET_CONTROL
  1308     0532  0823               	movf	??_PACKET_CONTROL,w
  1309     0533  05DD               	andwf	_COM_FLAG,f
  1310     0534                     l1557:
  1311                           
  1312                           ;Project_ATCS_Decorder_Module.c: 158:             FUNC_SET(DATA,P_RANGE);
  1313     0534  0822               	movf	PACKET_CONTROL@P_RANGE,w
  1314     0535  00A0               	movwf	FUNC_SET@P_RANGE
  1315     0536  0826               	movf	PACKET_CONTROL@DATA,w
  1316     0537  3185  25D4  3185   	fcall	_FUNC_SET
  1317     053A  2D77               	goto	l201
  1318     053B                     l206:	
  1319                           ;Project_ATCS_Decorder_Module.c: 160:         case 5:
  1320                           
  1321                           
  1322                           ;Project_ATCS_Decorder_Module.c: 161:             COM_FLAG |= 0x20;
  1323     053B  16DD               	bsf	_COM_FLAG,5
  1324     053C                     l1561:
  1325                           
  1326                           ;Project_ATCS_Decorder_Module.c: 162:             FUNC_SET(DATA,P_RANGE);
  1327     053C  0822               	movf	PACKET_CONTROL@P_RANGE,w
  1328     053D  00A0               	movwf	FUNC_SET@P_RANGE
  1329     053E  0826               	movf	PACKET_CONTROL@DATA,w
  1330     053F  3185  25D4  3185   	fcall	_FUNC_SET
  1331     0542  2D77               	goto	l201
  1332     0543                     l207:	
  1333                           ;Project_ATCS_Decorder_Module.c: 164:         case 6:
  1334                           
  1335                           
  1336                           ;Project_ATCS_Decorder_Module.c: 165:             __nop();
  1337     0543  0000               	nop
  1338                           
  1339                           ;Project_ATCS_Decorder_Module.c: 166:             return;
  1340     0544  2D77               	goto	l201
  1341     0545                     l1565:
  1342                           
  1343                           ;Project_ATCS_Decorder_Module.c: 168:             CONFIG_SET(DATA,P_RANGE);
  1344     0545  0822               	movf	PACKET_CONTROL@P_RANGE,w
  1345     0546  00A0               	movwf	CONFIG_SET@P_RANGE
  1346     0547  0826               	movf	PACKET_CONTROL@DATA,w
  1347     0548  3185  25D6  3185   	fcall	_CONFIG_SET
  1348     054B  2D77               	goto	l201
  1349     054C                     l1571:
  1350     054C  0A26               	incf	PACKET_CONTROL@DATA,w
  1351     054D  0086               	movwf	6
  1352     054E  0187               	clrf	7
  1353     054F  0801               	movf	1,w
  1354     0550  00A3               	movwf	??_PACKET_CONTROL
  1355     0551  3005               	movlw	5
  1356     0552                     u775:
  1357     0552  36A3               	lsrf	??_PACKET_CONTROL,f
  1358     0553  0B89               	decfsz	9,f
  1359     0554  2D52               	goto	u775
  1360     0555  0823               	movf	??_PACKET_CONTROL,w
  1361     0556  00A4               	movwf	??_PACKET_CONTROL+1
  1362     0557  01A5               	clrf	??_PACKET_CONTROL+2
  1363                           
  1364                           ; Switch on 2 bytes has been partitioned into a top level switch of size 1, and 1 sub-sw
      +                          itches
  1365                           ; Switch size 1, requested type "simple"
  1366                           ; Number of cases is 1, Range of values is 0 to 0
  1367                           ; switch strategies available:
  1368                           ; Name         Instructions Cycles
  1369                           ; simple_byte            4     3 (average)
  1370                           ; direct_byte            8     6 (fixed)
  1371                           ; jumptable            260     6 (fixed)
  1372                           ;	Chosen strategy is simple_byte
  1373     0558  0825               	movf	??_PACKET_CONTROL+2,w
  1374     0559  3A00               	xorlw	0	; case 0
  1375     055A  1903               	skipnz
  1376     055B  2D5D               	goto	l1981
  1377     055C  2D77               	goto	l201
  1378     055D                     l1981:
  1379                           
  1380                           ; Switch size 1, requested type "simple"
  1381                           ; Number of cases is 8, Range of values is 0 to 7
  1382                           ; switch strategies available:
  1383                           ; Name         Instructions Cycles
  1384                           ; direct_byte           22     6 (fixed)
  1385                           ; simple_byte           25    13 (average)
  1386                           ; jumptable            260     6 (fixed)
  1387                           ;	Chosen strategy is simple_byte
  1388     055D  0824               	movf	??_PACKET_CONTROL+1,w
  1389     055E  3A00               	xorlw	0	; case 0
  1390     055F  1903               	skipnz
  1391     0560  2D0A               	goto	l1535
  1392     0561  3A01               	xorlw	1	; case 1
  1393     0562  1903               	skipnz
  1394     0563  2D15               	goto	l202
  1395     0564  3A03               	xorlw	3	; case 2
  1396     0565  1903               	skipnz
  1397     0566  2D1D               	goto	l203
  1398     0567  3A01               	xorlw	1	; case 3
  1399     0568  1903               	skipnz
  1400     0569  2D25               	goto	l1549
  1401     056A  3A07               	xorlw	7	; case 4
  1402     056B  1903               	skipnz
  1403     056C  2D30               	goto	l1555
  1404     056D  3A01               	xorlw	1	; case 5
  1405     056E  1903               	skipnz
  1406     056F  2D3B               	goto	l206
  1407     0570  3A03               	xorlw	3	; case 6
  1408     0571  1903               	skipnz
  1409     0572  2D43               	goto	l207
  1410     0573  3A01               	xorlw	1	; case 7
  1411     0574  1903               	skipnz
  1412     0575  2D45               	goto	l1565
  1413     0576  2D77               	goto	l201
  1414     0577                     l201:
  1415     0577  0008               	return
  1416     0578                     __end_of_PACKET_CONTROL:
  1417                           
  1418                           	psect	text2
  1419     05D3                     __ptext2:	
  1420 ;; *************** function _PWM_SET *****************
  1421 ;; Defined at:
  1422 ;;		line 176 in file "Project_ATCS_Decorder_Module.c"
  1423 ;; Parameters:    Size  Location     Type
  1424 ;;  DATA            1    wreg     PTR unsigned char 
  1425 ;;		 -> main@BYPASS(32), 
  1426 ;;  P_RANGE         1    0[BANK0 ] PTR unsigned char 
  1427 ;;		 -> main@DCC_PACKET_RANGE(1), 
  1428 ;; Auto vars:     Size  Location     Type
  1429 ;;  DATA            1    1[BANK0 ] PTR unsigned char 
  1430 ;;		 -> main@BYPASS(32), 
  1431 ;; Return value:  Size  Location     Type
  1432 ;;                  1    wreg      void 
  1433 ;; Registers used:
  1434 ;;		wreg
  1435 ;; Tracked objects:
  1436 ;;		On entry : 0/0
  1437 ;;		On exit  : 0/0
  1438 ;;		Unchanged: 0/0
  1439 ;; Data sizes:     COMMON   BANK0
  1440 ;;      Params:         0       1
  1441 ;;      Locals:         0       1
  1442 ;;      Temps:          0       0
  1443 ;;      Totals:         0       2
  1444 ;;Total ram usage:        2 bytes
  1445 ;; Hardware stack levels used: 1
  1446 ;; Hardware stack levels required when called: 2
  1447 ;; This function calls:
  1448 ;;		Nothing
  1449 ;; This function is called by:
  1450 ;;		_PACKET_CONTROL
  1451 ;; This function uses a non-reentrant model
  1452 ;;
  1453                           
  1454     05D3                     _PWM_SET:	
  1455                           ;psect for function _PWM_SET
  1456                           
  1457     05D3                     l215:	
  1458                           ;incstack = 0
  1459                           ; Regs used in _PWM_SET: [wreg]
  1460                           
  1461     05D3  0008               	return
  1462     05D4                     __end_of_PWM_SET:
  1463                           
  1464                           	psect	text3
  1465     05D4                     __ptext3:	
  1466 ;; *************** function _FUNC_SET *****************
  1467 ;; Defined at:
  1468 ;;		line 177 in file "Project_ATCS_Decorder_Module.c"
  1469 ;; Parameters:    Size  Location     Type
  1470 ;;  DATA            1    wreg     PTR unsigned char 
  1471 ;;		 -> main@BYPASS(32), 
  1472 ;;  P_RANGE         1    0[BANK0 ] PTR unsigned char 
  1473 ;;		 -> main@DCC_PACKET_RANGE(1), 
  1474 ;; Auto vars:     Size  Location     Type
  1475 ;;  DATA            1    1[BANK0 ] PTR unsigned char 
  1476 ;;		 -> main@BYPASS(32), 
  1477 ;; Return value:  Size  Location     Type
  1478 ;;                  1    wreg      void 
  1479 ;; Registers used:
  1480 ;;		wreg
  1481 ;; Tracked objects:
  1482 ;;		On entry : 0/0
  1483 ;;		On exit  : 0/0
  1484 ;;		Unchanged: 0/0
  1485 ;; Data sizes:     COMMON   BANK0
  1486 ;;      Params:         0       1
  1487 ;;      Locals:         0       1
  1488 ;;      Temps:          0       0
  1489 ;;      Totals:         0       2
  1490 ;;Total ram usage:        2 bytes
  1491 ;; Hardware stack levels used: 1
  1492 ;; Hardware stack levels required when called: 2
  1493 ;; This function calls:
  1494 ;;		Nothing
  1495 ;; This function is called by:
  1496 ;;		_PACKET_CONTROL
  1497 ;; This function uses a non-reentrant model
  1498 ;;
  1499                           
  1500     05D4                     _FUNC_SET:	
  1501                           ;psect for function _FUNC_SET
  1502                           
  1503     05D4                     l218:	
  1504                           ;incstack = 0
  1505                           ; Regs used in _FUNC_SET: [wreg]
  1506                           
  1507     05D4  0008               	return
  1508     05D5                     __end_of_FUNC_SET:
  1509                           
  1510                           	psect	text4
  1511     05D5                     __ptext4:	
  1512 ;; *************** function _DEC_SET *****************
  1513 ;; Defined at:
  1514 ;;		line 172 in file "Project_ATCS_Decorder_Module.c"
  1515 ;; Parameters:    Size  Location     Type
  1516 ;;  DATA            1    wreg     PTR unsigned char 
  1517 ;;		 -> main@BYPASS(32), 
  1518 ;;  P_RANGE         1    0[BANK0 ] PTR unsigned char 
  1519 ;;		 -> main@DCC_PACKET_RANGE(1), 
  1520 ;; Auto vars:     Size  Location     Type
  1521 ;;  DATA            1    1[BANK0 ] PTR unsigned char 
  1522 ;;		 -> main@BYPASS(32), 
  1523 ;; Return value:  Size  Location     Type
  1524 ;;                  1    wreg      void 
  1525 ;; Registers used:
  1526 ;;		wreg
  1527 ;; Tracked objects:
  1528 ;;		On entry : 0/0
  1529 ;;		On exit  : 0/0
  1530 ;;		Unchanged: 0/0
  1531 ;; Data sizes:     COMMON   BANK0
  1532 ;;      Params:         0       1
  1533 ;;      Locals:         0       1
  1534 ;;      Temps:          0       0
  1535 ;;      Totals:         0       2
  1536 ;;Total ram usage:        2 bytes
  1537 ;; Hardware stack levels used: 1
  1538 ;; Hardware stack levels required when called: 2
  1539 ;; This function calls:
  1540 ;;		Nothing
  1541 ;; This function is called by:
  1542 ;;		_PACKET_CONTROL
  1543 ;; This function uses a non-reentrant model
  1544 ;;
  1545                           
  1546     05D5                     _DEC_SET:	
  1547                           ;psect for function _DEC_SET
  1548                           
  1549     05D5                     l212:	
  1550                           ;incstack = 0
  1551                           ; Regs used in _DEC_SET: [wreg]
  1552                           
  1553     05D5  0008               	return
  1554     05D6                     __end_of_DEC_SET:
  1555                           
  1556                           	psect	text5
  1557     05D6                     __ptext5:	
  1558 ;; *************** function _CONFIG_SET *****************
  1559 ;; Defined at:
  1560 ;;		line 178 in file "Project_ATCS_Decorder_Module.c"
  1561 ;; Parameters:    Size  Location     Type
  1562 ;;  DATA            1    wreg     PTR unsigned char 
  1563 ;;		 -> main@BYPASS(32), 
  1564 ;;  P_RANGE         1    0[BANK0 ] PTR unsigned char 
  1565 ;;		 -> main@DCC_PACKET_RANGE(1), 
  1566 ;; Auto vars:     Size  Location     Type
  1567 ;;  DATA            1    1[BANK0 ] PTR unsigned char 
  1568 ;;		 -> main@BYPASS(32), 
  1569 ;; Return value:  Size  Location     Type
  1570 ;;                  1    wreg      void 
  1571 ;; Registers used:
  1572 ;;		wreg
  1573 ;; Tracked objects:
  1574 ;;		On entry : 0/0
  1575 ;;		On exit  : 0/0
  1576 ;;		Unchanged: 0/0
  1577 ;; Data sizes:     COMMON   BANK0
  1578 ;;      Params:         0       1
  1579 ;;      Locals:         0       1
  1580 ;;      Temps:          0       0
  1581 ;;      Totals:         0       2
  1582 ;;Total ram usage:        2 bytes
  1583 ;; Hardware stack levels used: 1
  1584 ;; Hardware stack levels required when called: 2
  1585 ;; This function calls:
  1586 ;;		Nothing
  1587 ;; This function is called by:
  1588 ;;		_PACKET_CONTROL
  1589 ;; This function uses a non-reentrant model
  1590 ;;
  1591                           
  1592     05D6                     _CONFIG_SET:	
  1593                           ;psect for function _CONFIG_SET
  1594                           
  1595     05D6                     l221:	
  1596                           ;incstack = 0
  1597                           ; Regs used in _CONFIG_SET: [wreg]
  1598                           
  1599     05D6  0008               	return
  1600     05D7                     __end_of_CONFIG_SET:
  1601                           
  1602                           	psect	text6
  1603     00F6                     __ptext6:	
  1604 ;; *************** function _EEPROM_SELECT *****************
  1605 ;; Defined at:
  1606 ;;		line 12 in file "Project_ATCS_Decorder_Module.c"
  1607 ;; Parameters:    Size  Location     Type
  1608 ;;		None
  1609 ;; Auto vars:     Size  Location     Type
  1610 ;;  EE_SAVE         2    2[BANK0 ] unsigned int 
  1611 ;;  COUNT           1    4[BANK0 ] unsigned char 
  1612 ;; Return value:  Size  Location     Type
  1613 ;;                  1    wreg      void 
  1614 ;; Registers used:
  1615 ;;		wreg, fsr0l, fsr0h, fsr1l, fsr1h, status,2, status,0
  1616 ;; Tracked objects:
  1617 ;;		On entry : 0/0
  1618 ;;		On exit  : 0/0
  1619 ;;		Unchanged: 0/0
  1620 ;; Data sizes:     COMMON   BANK0
  1621 ;;      Params:         0       0
  1622 ;;      Locals:         0       3
  1623 ;;      Temps:          0       2
  1624 ;;      Totals:         0       5
  1625 ;;Total ram usage:        5 bytes
  1626 ;; Hardware stack levels used: 1
  1627 ;; Hardware stack levels required when called: 2
  1628 ;; This function calls:
  1629 ;;		Nothing
  1630 ;; This function is called by:
  1631 ;;		_main
  1632 ;; This function uses a non-reentrant model
  1633 ;;
  1634                           
  1635     00F6                     _EEPROM_SELECT:	
  1636                           ;psect for function _EEPROM_SELECT
  1637                           
  1638     00F6                     l1389:	
  1639                           ;incstack = 0
  1640                           ; Regs used in _EEPROM_SELECT: [wreg-fsr1h+status,2+status,0]
  1641                           
  1642                           
  1643                           ;Project_ATCS_Decorder_Module.c: 13:     INTCONbits.GIE = 0;
  1644     00F6  138B               	bcf	11,7	;volatile
  1645     00F7                     l1391:
  1646                           
  1647                           ;Project_ATCS_Decorder_Module.c: 14:     UnCHR COUNT = 0x00 ;
  1648     00F7  0020               	movlb	0	; select bank0
  1649     00F8  01A4               	clrf	EEPROM_SELECT@COUNT
  1650                           
  1651                           ;Project_ATCS_Decorder_Module.c: 16:     switch (EE_STORE.EE_STATE) {
  1652     00F9  2A98               	goto	l1525
  1653     00FA                     l1393:
  1654                           
  1655                           ;Project_ATCS_Decorder_Module.c: 19:                 if(EE_STORE.EE_REPORT[COUNT]){
  1656     00FA  0824               	movf	EEPROM_SELECT@COUNT,w
  1657     00FB  3E58               	addlw	(low ((_EE_STORE| 0+12)))& (0+255)
  1658     00FC  0086               	movwf	6
  1659     00FD  0187               	clrf	7
  1660     00FE  0801               	movf	1,w
  1661     00FF  1903               	btfsc	3,2
  1662     0100  2902               	goto	u591
  1663     0101  2903               	goto	u590
  1664     0102                     u591:
  1665     0102  2924               	goto	l1403
  1666     0103                     u590:
  1667     0103                     l1395:
  1668                           
  1669                           ;Project_ATCS_Decorder_Module.c: 20:                     EEADR = EE_STORE.EE_ADRS;
  1670     0103  084F               	movf	_EE_STORE+3,w
  1671     0104  0023               	movlb	3	; select bank3
  1672     0105  0092               	movwf	18	;volatile
  1673     0106  0020               	movlb	0	; select bank0
  1674     0107  084E               	movf	_EE_STORE+2,w
  1675     0108  0023               	movlb	3	; select bank3
  1676     0109  0091               	movwf	17	;volatile
  1677                           
  1678                           ;Project_ATCS_Decorder_Module.c: 21:                     EECON1 = EE_STORE.EE_CONFIG;
  1679     010A  0020               	movlb	0	; select bank0
  1680     010B  084D               	movf	_EE_STORE+1,w
  1681     010C  0023               	movlb	3	; select bank3
  1682     010D  0095               	movwf	21	;volsfr
  1683     010E                     l157:	
  1684                           ;Project_ATCS_Decorder_Module.c: 22:                     while (EECON1bits.RD);
  1685                           
  1686     010E  1815               	btfsc	21,0	;volsfr
  1687     010F  2911               	goto	u601
  1688     0110  2912               	goto	u600
  1689     0111                     u601:
  1690     0111  290E               	goto	l157
  1691     0112                     u600:
  1692     0112                     l1397:
  1693                           
  1694                           ;Project_ATCS_Decorder_Module.c: 23:                     EE_STORE.EE_DATA[COUNT] = EEDAT
      +                          ;
  1695     0112  0020               	movlb	0	; select bank0
  1696     0113  3524               	lslf	EEPROM_SELECT@COUNT,w
  1697     0114  3E50               	addlw	(low ((_EE_STORE| 0+4)))& (0+255)
  1698     0115  0086               	movwf	6
  1699     0116  0187               	clrf	7
  1700     0117  0023               	movlb	3	; select bank3
  1701     0118  0813               	movf	19,w	;volatile
  1702     0119  3FC0               	movwi [0]fsr1
  1703     011A  0814               	movf	20,w	;volatile
  1704     011B  3FC1               	movwi [1]fsr1
  1705     011C                     l1399:
  1706                           
  1707                           ;Project_ATCS_Decorder_Module.c: 24:                     INTCONbits.GIE = 1;
  1708     011C  178B               	bsf	11,7	;volatile
  1709                           
  1710                           ;Project_ATCS_Decorder_Module.c: 25:                     EE_STORE.EE_REPORT[COUNT] = 0x0
      +                          0;
  1711     011D  0020               	movlb	0	; select bank0
  1712     011E  0824               	movf	EEPROM_SELECT@COUNT,w
  1713     011F  3E58               	addlw	(low ((_EE_STORE| 0+12)))& (0+255)
  1714     0120  0086               	movwf	6
  1715     0121  0187               	clrf	7
  1716     0122  0181               	clrf	1
  1717     0123  2AB4               	goto	l160
  1718     0124                     l1403:
  1719                           
  1720                           ;Project_ATCS_Decorder_Module.c: 28:                 COUNT++;
  1721     0124  3001               	movlw	1
  1722     0125  00A0               	movwf	??_EEPROM_SELECT
  1723     0126  0820               	movf	??_EEPROM_SELECT,w
  1724     0127  07A4               	addwf	EEPROM_SELECT@COUNT,f
  1725     0128                     l1405:
  1726                           
  1727                           ;Project_ATCS_Decorder_Module.c: 29:                 EEADR = EE_STORE.EE_ADRS++;
  1728     0128  084F               	movf	_EE_STORE+3,w
  1729     0129  0023               	movlb	3	; select bank3
  1730     012A  0092               	movwf	18	;volatile
  1731     012B  0020               	movlb	0	; select bank0
  1732     012C  084E               	movf	_EE_STORE+2,w
  1733     012D  0023               	movlb	3	; select bank3
  1734     012E  0091               	movwf	17	;volatile
  1735     012F                     l1407:
  1736     012F  3001               	movlw	1
  1737     0130  0020               	movlb	0	; select bank0
  1738     0131  07CE               	addwf	_EE_STORE+2,f
  1739     0132  3000               	movlw	0
  1740     0133  3DCF               	addwfc	_EE_STORE+3,f
  1741     0134                     l1409:
  1742                           
  1743                           ;Project_ATCS_Decorder_Module.c: 30:             }while(COUNT < 4);
  1744     0134  3004               	movlw	4
  1745     0135  0224               	subwf	EEPROM_SELECT@COUNT,w
  1746     0136  1C03               	skipc
  1747     0137  2939               	goto	u611
  1748     0138  293A               	goto	u610
  1749     0139                     u611:
  1750     0139  28FA               	goto	l1393
  1751     013A                     u610:
  1752     013A  2AB4               	goto	l160
  1753     013B                     l1411:
  1754                           
  1755                           ;Project_ATCS_Decorder_Module.c: 35:                 if(EE_STORE.EE_REPORT[COUNT]){
  1756     013B  0824               	movf	EEPROM_SELECT@COUNT,w
  1757     013C  3E58               	addlw	(low ((_EE_STORE| 0+12)))& (0+255)
  1758     013D  0086               	movwf	6
  1759     013E  0187               	clrf	7
  1760     013F  0801               	movf	1,w
  1761     0140  1903               	btfsc	3,2
  1762     0141  2943               	goto	u621
  1763     0142  2944               	goto	u620
  1764     0143                     u621:
  1765     0143  2964               	goto	l1419
  1766     0144                     u620:
  1767     0144                     l1413:
  1768                           
  1769                           ;Project_ATCS_Decorder_Module.c: 36:                     EEADR = EE_STORE.EE_ADRS;
  1770     0144  084F               	movf	_EE_STORE+3,w
  1771     0145  0023               	movlb	3	; select bank3
  1772     0146  0092               	movwf	18	;volatile
  1773     0147  0020               	movlb	0	; select bank0
  1774     0148  084E               	movf	_EE_STORE+2,w
  1775     0149  0023               	movlb	3	; select bank3
  1776     014A  0091               	movwf	17	;volatile
  1777                           
  1778                           ;Project_ATCS_Decorder_Module.c: 37:                     EECON1 = EE_STORE.EE_CONFIG;
  1779     014B  0020               	movlb	0	; select bank0
  1780     014C  084D               	movf	_EE_STORE+1,w
  1781     014D  0023               	movlb	3	; select bank3
  1782     014E  0095               	movwf	21	;volsfr
  1783     014F                     l1415:
  1784                           
  1785                           ;Project_ATCS_Decorder_Module.c: 38:                     EECON1bits.RD = 1;
  1786     014F  1415               	bsf	21,0	;volsfr
  1787     0150                     l165:	
  1788                           ;Project_ATCS_Decorder_Module.c: 39:                     while (EECON1bits.RD);
  1789                           
  1790     0150  1815               	btfsc	21,0	;volsfr
  1791     0151  2953               	goto	u631
  1792     0152  2954               	goto	u630
  1793     0153                     u631:
  1794     0153  2950               	goto	l165
  1795     0154                     u630:
  1796     0154                     l1417:
  1797                           
  1798                           ;Project_ATCS_Decorder_Module.c: 40:                     EE_STORE.EE_DATA[COUNT] = EEDAT
      +                          ;
  1799     0154  0020               	movlb	0	; select bank0
  1800     0155  3524               	lslf	EEPROM_SELECT@COUNT,w
  1801     0156  3E50               	addlw	(low ((_EE_STORE| 0+4)))& (0+255)
  1802     0157  0086               	movwf	6
  1803     0158  0187               	clrf	7
  1804     0159  0023               	movlb	3	; select bank3
  1805     015A  0813               	movf	19,w	;volatile
  1806     015B  3FC0               	movwi [0]fsr1
  1807     015C  0814               	movf	20,w	;volatile
  1808     015D  3FC1               	movwi [1]fsr1
  1809                           
  1810                           ;Project_ATCS_Decorder_Module.c: 41:                     EE_STORE.EE_REPORT[COUNT] = 0x0
      +                          0;
  1811     015E  0020               	movlb	0	; select bank0
  1812     015F  0824               	movf	EEPROM_SELECT@COUNT,w
  1813     0160  3E58               	addlw	(low ((_EE_STORE| 0+12)))& (0+255)
  1814     0161  0086               	movwf	6
  1815     0162  0187               	clrf	7
  1816     0163  0181               	clrf	1
  1817     0164                     l1419:
  1818                           
  1819                           ;Project_ATCS_Decorder_Module.c: 43:                 EE_STORE.EE_ADRS++;
  1820     0164  3001               	movlw	1
  1821     0165  07CE               	addwf	_EE_STORE+2,f
  1822     0166  3000               	movlw	0
  1823     0167  3DCF               	addwfc	_EE_STORE+3,f
  1824     0168                     l1421:
  1825                           
  1826                           ;Project_ATCS_Decorder_Module.c: 44:             } while (COUNT < 4);
  1827     0168  3004               	movlw	4
  1828     0169  0224               	subwf	EEPROM_SELECT@COUNT,w
  1829     016A  1C03               	skipc
  1830     016B  296D               	goto	u641
  1831     016C  296E               	goto	u640
  1832     016D                     u641:
  1833     016D  293B               	goto	l1411
  1834     016E                     u640:
  1835     016E                     l168:
  1836                           
  1837                           ;Project_ATCS_Decorder_Module.c: 45:             INTCONbits.GIE = 1;
  1838     016E  178B               	bsf	11,7	;volatile
  1839                           
  1840                           ;Project_ATCS_Decorder_Module.c: 46:             return;
  1841     016F  2AB4               	goto	l160
  1842     0170                     l169:	
  1843                           ;Project_ATCS_Decorder_Module.c: 48:         case EE_WRITE_UID:
  1844                           
  1845                           
  1846                           ;Project_ATCS_Decorder_Module.c: 49:             INTCONbits.GIE = 0;
  1847     0170  138B               	bcf	11,7	;volatile
  1848     0171                     l1423:
  1849                           
  1850                           ;Project_ATCS_Decorder_Module.c: 50:             UnINT EE_SAVE = EE_STORE.EE_ADRS;
  1851     0171  084F               	movf	_EE_STORE+3,w
  1852     0172  00A3               	movwf	EEPROM_SELECT@EE_SAVE+1
  1853     0173  084E               	movf	_EE_STORE+2,w
  1854     0174  00A2               	movwf	EEPROM_SELECT@EE_SAVE
  1855     0175                     l1425:
  1856                           
  1857                           ;Project_ATCS_Decorder_Module.c: 52:                 if(EE_STORE.EE_REPORT[COUNT]){
  1858     0175  0824               	movf	EEPROM_SELECT@COUNT,w
  1859     0176  3E58               	addlw	(low ((_EE_STORE| 0+12)))& (0+255)
  1860     0177  0086               	movwf	6
  1861     0178  0187               	clrf	7
  1862     0179  0801               	movf	1,w
  1863     017A  1903               	btfsc	3,2
  1864     017B  297D               	goto	u651
  1865     017C  297E               	goto	u650
  1866     017D                     u651:
  1867     017D  2996               	goto	l1439
  1868     017E                     u650:
  1869     017E                     l1427:
  1870                           
  1871                           ;Project_ATCS_Decorder_Module.c: 53:                     EEADR = EE_STORE.EE_ADRS;
  1872     017E  084F               	movf	_EE_STORE+3,w
  1873     017F  0023               	movlb	3	; select bank3
  1874     0180  0092               	movwf	18	;volatile
  1875     0181  0020               	movlb	0	; select bank0
  1876     0182  084E               	movf	_EE_STORE+2,w
  1877     0183  0023               	movlb	3	; select bank3
  1878     0184  0091               	movwf	17	;volatile
  1879     0185                     l1429:
  1880                           
  1881                           ;Project_ATCS_Decorder_Module.c: 54:                     EEDAT = EE_STORE.EE_DATA[COUNT]
      +                          ;
  1882     0185  0020               	movlb	0	; select bank0
  1883     0186  3524               	lslf	EEPROM_SELECT@COUNT,w
  1884     0187  3E50               	addlw	(low ((_EE_STORE| 0+4)))& (0+255)
  1885     0188  0086               	movwf	6
  1886     0189  0187               	clrf	7
  1887     018A  3F40               	moviw [0]fsr1
  1888     018B  0023               	movlb	3	; select bank3
  1889     018C  0093               	movwf	19	;volatile
  1890     018D  3F41               	moviw [1]fsr1
  1891     018E  0094               	movwf	20	;volatile
  1892     018F                     l1431:
  1893                           
  1894                           ;Project_ATCS_Decorder_Module.c: 55:                     EECON1 = 0x64;
  1895     018F  3064               	movlw	100
  1896     0190  0095               	movwf	21	;volsfr
  1897     0191                     l1433:
  1898                           
  1899                           ;Project_ATCS_Decorder_Module.c: 56:                     EECON2 = 0x55;
  1900     0191  3055               	movlw	85
  1901     0192  0096               	movwf	22	;volsfr
  1902     0193                     l1435:
  1903                           
  1904                           ;Project_ATCS_Decorder_Module.c: 57:                     EECON2 = 0xAA;
  1905     0193  30AA               	movlw	170
  1906     0194  0096               	movwf	22	;volsfr
  1907     0195                     l1437:
  1908                           
  1909                           ;Project_ATCS_Decorder_Module.c: 58:                     EECON1bits.WR = 1;
  1910     0195  1495               	bsf	21,1	;volsfr
  1911     0196                     l1439:
  1912                           
  1913                           ;Project_ATCS_Decorder_Module.c: 60:                 COUNT++;
  1914     0196  3001               	movlw	1
  1915     0197  0020               	movlb	0	; select bank0
  1916     0198  00A0               	movwf	??_EEPROM_SELECT
  1917     0199  0820               	movf	??_EEPROM_SELECT,w
  1918     019A  07A4               	addwf	EEPROM_SELECT@COUNT,f
  1919     019B                     l1441:
  1920                           
  1921                           ;Project_ATCS_Decorder_Module.c: 61:                 EE_STORE.EE_ADRS++;
  1922     019B  3001               	movlw	1
  1923     019C  07CE               	addwf	_EE_STORE+2,f
  1924     019D  3000               	movlw	0
  1925     019E  3DCF               	addwfc	_EE_STORE+3,f
  1926     019F                     l1443:
  1927                           
  1928                           ;Project_ATCS_Decorder_Module.c: 62:             } while (COUNT < 4);
  1929     019F  3004               	movlw	4
  1930     01A0  0224               	subwf	EEPROM_SELECT@COUNT,w
  1931     01A1  1C03               	skipc
  1932     01A2  29A4               	goto	u661
  1933     01A3  29A5               	goto	u660
  1934     01A4                     u661:
  1935     01A4  2975               	goto	l1425
  1936     01A5                     u660:
  1937     01A5                     l1445:
  1938                           
  1939                           ;Project_ATCS_Decorder_Module.c: 63:             EE_STORE.EE_ADRS = EE_SAVE;
  1940     01A5  0823               	movf	EEPROM_SELECT@EE_SAVE+1,w
  1941     01A6  00CF               	movwf	_EE_STORE+3
  1942     01A7  0822               	movf	EEPROM_SELECT@EE_SAVE,w
  1943     01A8  00CE               	movwf	_EE_STORE+2
  1944                           
  1945                           ;Project_ATCS_Decorder_Module.c: 65:             EECON1 = 0x44;
  1946     01A9  3044               	movlw	68
  1947     01AA  0023               	movlb	3	; select bank3
  1948     01AB  0095               	movwf	21	;volsfr
  1949                           
  1950                           ;Project_ATCS_Decorder_Module.c: 66:             EECON2 = 0x55;
  1951     01AC  3055               	movlw	85
  1952     01AD  0096               	movwf	22	;volsfr
  1953                           
  1954                           ;Project_ATCS_Decorder_Module.c: 67:             EECON2 = 0xAA;
  1955     01AE  30AA               	movlw	170
  1956     01AF  0096               	movwf	22	;volsfr
  1957     01B0                     l1447:
  1958                           
  1959                           ;Project_ATCS_Decorder_Module.c: 69:             EECON1bits.WR = 1;
  1960     01B0  1495               	bsf	21,1	;volsfr
  1961     01B1                     l1449:
  1962                           
  1963                           ;Project_ATCS_Decorder_Module.c: 70:             __nop();
  1964     01B1  0000               	nop
  1965     01B2                     l1451:
  1966                           
  1967                           ;Project_ATCS_Decorder_Module.c: 71:             __nop();
  1968     01B2  0000               	nop
  1969     01B3                     l1453:
  1970                           
  1971                           ;Project_ATCS_Decorder_Module.c: 72:             INTCONbits.GIE = 1;
  1972     01B3  178B               	bsf	11,7	;volatile
  1973     01B4  2AB4               	goto	l160
  1974     01B5                     l173:	
  1975                           ;Project_ATCS_Decorder_Module.c: 75:         case EE_VERIFY_UID:
  1976                           
  1977                           
  1978                           ;Project_ATCS_Decorder_Module.c: 76:             INTCONbits.GIE = 0;
  1979     01B5  138B               	bcf	11,7	;volatile
  1980     01B6                     l1457:
  1981                           
  1982                           ;Project_ATCS_Decorder_Module.c: 78:                 if(EE_STORE.EE_REPORT[COUNT]){
  1983     01B6  0824               	movf	EEPROM_SELECT@COUNT,w
  1984     01B7  3E58               	addlw	(low ((_EE_STORE| 0+12)))& (0+255)
  1985     01B8  0086               	movwf	6
  1986     01B9  0187               	clrf	7
  1987     01BA  0801               	movf	1,w
  1988     01BB  1903               	btfsc	3,2
  1989     01BC  29BE               	goto	u671
  1990     01BD  29BF               	goto	u670
  1991     01BE                     u671:
  1992     01BE  29EF               	goto	l1467
  1993     01BF                     u670:
  1994     01BF                     l1459:
  1995                           
  1996                           ;Project_ATCS_Decorder_Module.c: 79:                     EEADR = EE_STORE.EE_ADRS;
  1997     01BF  084F               	movf	_EE_STORE+3,w
  1998     01C0  0023               	movlb	3	; select bank3
  1999     01C1  0092               	movwf	18	;volatile
  2000     01C2  0020               	movlb	0	; select bank0
  2001     01C3  084E               	movf	_EE_STORE+2,w
  2002     01C4  0023               	movlb	3	; select bank3
  2003     01C5  0091               	movwf	17	;volatile
  2004                           
  2005                           ;Project_ATCS_Decorder_Module.c: 80:                     EECON1 = 0x41;
  2006     01C6  3041               	movlw	65
  2007     01C7  0095               	movwf	21	;volsfr
  2008     01C8                     l176:	
  2009                           ;Project_ATCS_Decorder_Module.c: 81:                     while (EECON1bits.RD);
  2010                           
  2011     01C8  1815               	btfsc	21,0	;volsfr
  2012     01C9  29CB               	goto	u681
  2013     01CA  29CC               	goto	u680
  2014     01CB                     u681:
  2015     01CB  29C8               	goto	l176
  2016     01CC                     u680:
  2017     01CC                     l1461:
  2018                           
  2019                           ;Project_ATCS_Decorder_Module.c: 82:                     if (EEDAT != EE_STORE.EE_DATA[C
      +                          OUNT]) {
  2020     01CC  0020               	movlb	0	; select bank0
  2021     01CD  3524               	lslf	EEPROM_SELECT@COUNT,w
  2022     01CE  3E50               	addlw	(low ((_EE_STORE| 0+4)))& (0+255)
  2023     01CF  0086               	movwf	6
  2024     01D0  0187               	clrf	7
  2025     01D1  3F40               	moviw [0]fsr1
  2026     01D2  00A0               	movwf	??_EEPROM_SELECT
  2027     01D3  3F41               	moviw [1]fsr1
  2028     01D4  00A1               	movwf	??_EEPROM_SELECT+1
  2029     01D5  0023               	movlb	3	; select bank3
  2030     01D6  0814               	movf	20,w	;volatile
  2031     01D7  0020               	movlb	0	; select bank0
  2032     01D8  0621               	xorwf	??_EEPROM_SELECT+1,w
  2033     01D9  1D03               	skipz
  2034     01DA  29DF               	goto	u695
  2035     01DB  0023               	movlb	3	; select bank3
  2036     01DC  0813               	movf	19,w	;volatile
  2037     01DD  0020               	movlb	0	; select bank0
  2038     01DE  0620               	xorwf	??_EEPROM_SELECT,w
  2039     01DF                     u695:
  2040     01DF  1903               	skipnz
  2041     01E0  29E2               	goto	u691
  2042     01E1  29E3               	goto	u690
  2043     01E2                     u691:
  2044     01E2  29EA               	goto	l1465
  2045     01E3                     u690:
  2046     01E3                     l1463:
  2047                           
  2048                           ;Project_ATCS_Decorder_Module.c: 83:                         EE_STORE.EE_REPORT[COUNT] =
      +                           0xFF;
  2049     01E3  0824               	movf	EEPROM_SELECT@COUNT,w
  2050     01E4  3E58               	addlw	(low ((_EE_STORE| 0+12)))& (0+255)
  2051     01E5  0086               	movwf	6
  2052     01E6  0187               	clrf	7
  2053     01E7  30FF               	movlw	255
  2054     01E8  0081               	movwf	1
  2055                           
  2056                           ;Project_ATCS_Decorder_Module.c: 84:                     } else {
  2057     01E9  29EF               	goto	l1467
  2058     01EA                     l1465:
  2059                           
  2060                           ;Project_ATCS_Decorder_Module.c: 85:                         EE_STORE.EE_REPORT[COUNT] =
      +                           0x00;
  2061     01EA  0824               	movf	EEPROM_SELECT@COUNT,w
  2062     01EB  3E58               	addlw	(low ((_EE_STORE| 0+12)))& (0+255)
  2063     01EC  0086               	movwf	6
  2064     01ED  0187               	clrf	7
  2065     01EE  0181               	clrf	1
  2066     01EF                     l1467:
  2067                           
  2068                           ;Project_ATCS_Decorder_Module.c: 88:                 COUNT++;
  2069     01EF  3001               	movlw	1
  2070     01F0  00A0               	movwf	??_EEPROM_SELECT
  2071     01F1  0820               	movf	??_EEPROM_SELECT,w
  2072     01F2  07A4               	addwf	EEPROM_SELECT@COUNT,f
  2073     01F3                     l1469:
  2074                           
  2075                           ;Project_ATCS_Decorder_Module.c: 89:                 EE_STORE.EE_ADRS++;
  2076     01F3  3001               	movlw	1
  2077     01F4  07CE               	addwf	_EE_STORE+2,f
  2078     01F5  3000               	movlw	0
  2079     01F6  3DCF               	addwfc	_EE_STORE+3,f
  2080     01F7                     l1471:
  2081                           
  2082                           ;Project_ATCS_Decorder_Module.c: 90:             } while (COUNT < 4);
  2083     01F7  3004               	movlw	4
  2084     01F8  0224               	subwf	EEPROM_SELECT@COUNT,w
  2085     01F9  1C03               	skipc
  2086     01FA  29FC               	goto	u701
  2087     01FB  29FD               	goto	u700
  2088     01FC                     u701:
  2089     01FC  29B6               	goto	l1457
  2090     01FD                     u700:
  2091     01FD                     l181:
  2092                           
  2093                           ;Project_ATCS_Decorder_Module.c: 91:             INTCONbits.GIE = 1;
  2094     01FD  178B               	bsf	11,7	;volatile
  2095                           
  2096                           ;Project_ATCS_Decorder_Module.c: 92:             return;
  2097     01FE  2AB4               	goto	l160
  2098     01FF                     l1473:
  2099                           
  2100                           ;Project_ATCS_Decorder_Module.c: 96:                 if(EE_STORE.EE_REPORT[COUNT]){
  2101     01FF  0824               	movf	EEPROM_SELECT@COUNT,w
  2102     0200  3E58               	addlw	(low ((_EE_STORE| 0+12)))& (0+255)
  2103     0201  0086               	movwf	6
  2104     0202  0187               	clrf	7
  2105     0203  0801               	movf	1,w
  2106     0204  1903               	btfsc	3,2
  2107     0205  2A07               	goto	u711
  2108     0206  2A08               	goto	u710
  2109     0207                     u711:
  2110     0207  2A24               	goto	l1495
  2111     0208                     u710:
  2112     0208                     l1475:
  2113                           
  2114                           ;Project_ATCS_Decorder_Module.c: 97:                     EEADR = EE_STORE.EE_ADRS;
  2115     0208  084F               	movf	_EE_STORE+3,w
  2116     0209  0023               	movlb	3	; select bank3
  2117     020A  0092               	movwf	18	;volatile
  2118     020B  0020               	movlb	0	; select bank0
  2119     020C  084E               	movf	_EE_STORE+2,w
  2120     020D  0023               	movlb	3	; select bank3
  2121     020E  0091               	movwf	17	;volatile
  2122     020F                     l1477:
  2123                           
  2124                           ;Project_ATCS_Decorder_Module.c: 98:                     EEDAT = EE_STORE.EE_DATA[COUNT]
      +                          ;
  2125     020F  0020               	movlb	0	; select bank0
  2126     0210  3524               	lslf	EEPROM_SELECT@COUNT,w
  2127     0211  3E50               	addlw	(low ((_EE_STORE| 0+4)))& (0+255)
  2128     0212  0086               	movwf	6
  2129     0213  0187               	clrf	7
  2130     0214  3F40               	moviw [0]fsr1
  2131     0215  0023               	movlb	3	; select bank3
  2132     0216  0093               	movwf	19	;volatile
  2133     0217  3F41               	moviw [1]fsr1
  2134     0218  0094               	movwf	20	;volatile
  2135     0219                     l1479:
  2136                           
  2137                           ;Project_ATCS_Decorder_Module.c: 99:                     EECON1 = 0x44;
  2138     0219  3044               	movlw	68
  2139     021A  0095               	movwf	21	;volsfr
  2140     021B                     l1481:
  2141                           
  2142                           ;Project_ATCS_Decorder_Module.c: 100:                     EECON2 = 0x55;
  2143     021B  3055               	movlw	85
  2144     021C  0096               	movwf	22	;volsfr
  2145     021D                     l1483:
  2146                           
  2147                           ;Project_ATCS_Decorder_Module.c: 101:                     EECON2 = 0xAA;
  2148     021D  30AA               	movlw	170
  2149     021E  0096               	movwf	22	;volsfr
  2150     021F                     l1485:
  2151                           
  2152                           ;Project_ATCS_Decorder_Module.c: 102:                     EECON1bits.WR = 1;
  2153     021F  1495               	bsf	21,1	;volsfr
  2154     0220                     l1487:
  2155                           
  2156                           ;Project_ATCS_Decorder_Module.c: 103:                     __nop();
  2157     0220  0000               	nop
  2158     0221                     l1489:
  2159                           
  2160                           ;Project_ATCS_Decorder_Module.c: 104:                     __nop();
  2161     0221  0000               	nop
  2162     0222                     l1491:
  2163                           
  2164                           ;Project_ATCS_Decorder_Module.c: 105:                     INTCONbits.GIE = 1;
  2165     0222  178B               	bsf	11,7	;volatile
  2166     0223  2AB4               	goto	l160
  2167     0224                     l1495:
  2168                           
  2169                           ;Project_ATCS_Decorder_Module.c: 108:                 COUNT++;
  2170     0224  3001               	movlw	1
  2171     0225  00A0               	movwf	??_EEPROM_SELECT
  2172     0226  0820               	movf	??_EEPROM_SELECT,w
  2173     0227  07A4               	addwf	EEPROM_SELECT@COUNT,f
  2174     0228                     l1497:
  2175                           
  2176                           ;Project_ATCS_Decorder_Module.c: 109:                 EEADR = EE_STORE.EE_ADRS++;
  2177     0228  084F               	movf	_EE_STORE+3,w
  2178     0229  0023               	movlb	3	; select bank3
  2179     022A  0092               	movwf	18	;volatile
  2180     022B  0020               	movlb	0	; select bank0
  2181     022C  084E               	movf	_EE_STORE+2,w
  2182     022D  0023               	movlb	3	; select bank3
  2183     022E  0091               	movwf	17	;volatile
  2184     022F                     l1499:
  2185     022F  3001               	movlw	1
  2186     0230  0020               	movlb	0	; select bank0
  2187     0231  07CE               	addwf	_EE_STORE+2,f
  2188     0232  3000               	movlw	0
  2189     0233  3DCF               	addwfc	_EE_STORE+3,f
  2190     0234                     l1501:
  2191                           
  2192                           ;Project_ATCS_Decorder_Module.c: 110:             }while(COUNT < 4);
  2193     0234  3004               	movlw	4
  2194     0235  0224               	subwf	EEPROM_SELECT@COUNT,w
  2195     0236  1C03               	skipc
  2196     0237  2A39               	goto	u721
  2197     0238  2A3A               	goto	u720
  2198     0239                     u721:
  2199     0239  29FF               	goto	l1473
  2200     023A                     u720:
  2201     023A                     l185:
  2202                           
  2203                           ;Project_ATCS_Decorder_Module.c: 111:             INTCONbits.GIE = 1;
  2204     023A  178B               	bsf	11,7	;volatile
  2205                           
  2206                           ;Project_ATCS_Decorder_Module.c: 112:             return;
  2207     023B  2AB4               	goto	l160
  2208     023C                     l1503:
  2209                           
  2210                           ;Project_ATCS_Decorder_Module.c: 116:                 if(EE_STORE.EE_REPORT[COUNT]){
  2211     023C  0824               	movf	EEPROM_SELECT@COUNT,w
  2212     023D  3E58               	addlw	(low ((_EE_STORE| 0+12)))& (0+255)
  2213     023E  0086               	movwf	6
  2214     023F  0187               	clrf	7
  2215     0240  0801               	movf	1,w
  2216     0241  1903               	btfsc	3,2
  2217     0242  2A44               	goto	u731
  2218     0243  2A45               	goto	u730
  2219     0244                     u731:
  2220     0244  2A80               	goto	l1515
  2221     0245                     u730:
  2222     0245                     l1505:
  2223                           
  2224                           ;Project_ATCS_Decorder_Module.c: 117:                     EEADR = EE_STORE.EE_ADRS;
  2225     0245  084F               	movf	_EE_STORE+3,w
  2226     0246  0023               	movlb	3	; select bank3
  2227     0247  0092               	movwf	18	;volatile
  2228     0248  0020               	movlb	0	; select bank0
  2229     0249  084E               	movf	_EE_STORE+2,w
  2230     024A  0023               	movlb	3	; select bank3
  2231     024B  0091               	movwf	17	;volatile
  2232                           
  2233                           ;Project_ATCS_Decorder_Module.c: 118:                     EECON1 = 0x01;
  2234     024C  3001               	movlw	1
  2235     024D  0095               	movwf	21	;volsfr
  2236     024E                     l189:	
  2237                           ;Project_ATCS_Decorder_Module.c: 119:                     while (EECON1bits.RD);
  2238                           
  2239     024E  1815               	btfsc	21,0	;volsfr
  2240     024F  2A51               	goto	u741
  2241     0250  2A52               	goto	u740
  2242     0251                     u741:
  2243     0251  2A4E               	goto	l189
  2244     0252                     u740:
  2245     0252                     l1507:
  2246                           
  2247                           ;Project_ATCS_Decorder_Module.c: 120:                     EE_STORE.EE_DATA[COUNT] = EEDA
      +                          T;
  2248     0252  0020               	movlb	0	; select bank0
  2249     0253  3524               	lslf	EEPROM_SELECT@COUNT,w
  2250     0254  3E50               	addlw	(low ((_EE_STORE| 0+4)))& (0+255)
  2251     0255  0086               	movwf	6
  2252     0256  0187               	clrf	7
  2253     0257  0023               	movlb	3	; select bank3
  2254     0258  0813               	movf	19,w	;volatile
  2255     0259  3FC0               	movwi [0]fsr1
  2256     025A  0814               	movf	20,w	;volatile
  2257     025B  3FC1               	movwi [1]fsr1
  2258                           
  2259                           ;Project_ATCS_Decorder_Module.c: 121:                     if (EEDAT != EE_STORE.EE_DATA[
      +                          COUNT]) {
  2260     025C  0020               	movlb	0	; select bank0
  2261     025D  3524               	lslf	EEPROM_SELECT@COUNT,w
  2262     025E  3E50               	addlw	(low ((_EE_STORE| 0+4)))& (0+255)
  2263     025F  0086               	movwf	6
  2264     0260  0187               	clrf	7
  2265     0261  3F40               	moviw [0]fsr1
  2266     0262  00A0               	movwf	??_EEPROM_SELECT
  2267     0263  3F41               	moviw [1]fsr1
  2268     0264  00A1               	movwf	??_EEPROM_SELECT+1
  2269     0265  0023               	movlb	3	; select bank3
  2270     0266  0814               	movf	20,w	;volatile
  2271     0267  0020               	movlb	0	; select bank0
  2272     0268  0621               	xorwf	??_EEPROM_SELECT+1,w
  2273     0269  1D03               	skipz
  2274     026A  2A6F               	goto	u755
  2275     026B  0023               	movlb	3	; select bank3
  2276     026C  0813               	movf	19,w	;volatile
  2277     026D  0020               	movlb	0	; select bank0
  2278     026E  0620               	xorwf	??_EEPROM_SELECT,w
  2279     026F                     u755:
  2280     026F  1903               	skipnz
  2281     0270  2A72               	goto	u751
  2282     0271  2A73               	goto	u750
  2283     0272                     u751:
  2284     0272  2A7A               	goto	l1511
  2285     0273                     u750:
  2286     0273                     l1509:
  2287                           
  2288                           ;Project_ATCS_Decorder_Module.c: 122:                         EE_STORE.EE_REPORT[COUNT] 
      +                          = 0xFF;
  2289     0273  0824               	movf	EEPROM_SELECT@COUNT,w
  2290     0274  3E58               	addlw	(low ((_EE_STORE| 0+12)))& (0+255)
  2291     0275  0086               	movwf	6
  2292     0276  0187               	clrf	7
  2293     0277  30FF               	movlw	255
  2294     0278  0081               	movwf	1
  2295                           
  2296                           ;Project_ATCS_Decorder_Module.c: 123:                     } else {
  2297     0279  2AB4               	goto	l160
  2298     027A                     l1511:
  2299                           
  2300                           ;Project_ATCS_Decorder_Module.c: 124:                         EE_STORE.EE_REPORT[COUNT] 
      +                          = 0x00;
  2301     027A  0824               	movf	EEPROM_SELECT@COUNT,w
  2302     027B  3E58               	addlw	(low ((_EE_STORE| 0+12)))& (0+255)
  2303     027C  0086               	movwf	6
  2304     027D  0187               	clrf	7
  2305     027E  0181               	clrf	1
  2306     027F  2AB4               	goto	l160
  2307     0280                     l1515:
  2308                           
  2309                           ;Project_ATCS_Decorder_Module.c: 128:                 COUNT++;
  2310     0280  3001               	movlw	1
  2311     0281  00A0               	movwf	??_EEPROM_SELECT
  2312     0282  0820               	movf	??_EEPROM_SELECT,w
  2313     0283  07A4               	addwf	EEPROM_SELECT@COUNT,f
  2314     0284                     l1517:
  2315                           
  2316                           ;Project_ATCS_Decorder_Module.c: 129:                 EEADR = EE_STORE.EE_ADRS++;
  2317     0284  084F               	movf	_EE_STORE+3,w
  2318     0285  0023               	movlb	3	; select bank3
  2319     0286  0092               	movwf	18	;volatile
  2320     0287  0020               	movlb	0	; select bank0
  2321     0288  084E               	movf	_EE_STORE+2,w
  2322     0289  0023               	movlb	3	; select bank3
  2323     028A  0091               	movwf	17	;volatile
  2324     028B                     l1519:
  2325     028B  3001               	movlw	1
  2326     028C  0020               	movlb	0	; select bank0
  2327     028D  07CE               	addwf	_EE_STORE+2,f
  2328     028E  3000               	movlw	0
  2329     028F  3DCF               	addwfc	_EE_STORE+3,f
  2330     0290                     l1521:
  2331                           
  2332                           ;Project_ATCS_Decorder_Module.c: 130:             }while(COUNT < 4);
  2333     0290  3004               	movlw	4
  2334     0291  0224               	subwf	EEPROM_SELECT@COUNT,w
  2335     0292  1C03               	skipc
  2336     0293  2A95               	goto	u761
  2337     0294  2A96               	goto	u760
  2338     0295                     u761:
  2339     0295  2A3C               	goto	l1503
  2340     0296                     u760:
  2341     0296                     l194:
  2342                           
  2343                           ;Project_ATCS_Decorder_Module.c: 131:             INTCONbits.GIE = 1;
  2344     0296  178B               	bsf	11,7	;volatile
  2345                           
  2346                           ;Project_ATCS_Decorder_Module.c: 132:             return;
  2347     0297  2AB4               	goto	l160
  2348     0298                     l1525:
  2349     0298  084C               	movf	_EE_STORE,w
  2350     0299  00A0               	movwf	??_EEPROM_SELECT
  2351     029A  01A1               	clrf	??_EEPROM_SELECT+1
  2352                           
  2353                           ; Switch on 2 bytes has been partitioned into a top level switch of size 1, and 1 sub-sw
      +                          itches
  2354                           ; Switch size 1, requested type "simple"
  2355                           ; Number of cases is 1, Range of values is 0 to 0
  2356                           ; switch strategies available:
  2357                           ; Name         Instructions Cycles
  2358                           ; simple_byte            4     3 (average)
  2359                           ; direct_byte            8     6 (fixed)
  2360                           ; jumptable            260     6 (fixed)
  2361                           ;	Chosen strategy is simple_byte
  2362     029B  0821               	movf	??_EEPROM_SELECT+1,w
  2363     029C  3A00               	xorlw	0	; case 0
  2364     029D  1903               	skipnz
  2365     029E  2AA0               	goto	l1983
  2366     029F  2AB4               	goto	l160
  2367     02A0                     l1983:
  2368                           
  2369                           ; Switch size 1, requested type "simple"
  2370                           ; Number of cases is 6, Range of values is 0 to 5
  2371                           ; switch strategies available:
  2372                           ; Name         Instructions Cycles
  2373                           ; direct_byte           18     6 (fixed)
  2374                           ; simple_byte           19    10 (average)
  2375                           ; jumptable            260     6 (fixed)
  2376                           ;	Chosen strategy is simple_byte
  2377     02A0  0820               	movf	??_EEPROM_SELECT,w
  2378     02A1  3A00               	xorlw	0	; case 0
  2379     02A2  1903               	skipnz
  2380     02A3  28FA               	goto	l1393
  2381     02A4  3A01               	xorlw	1	; case 1
  2382     02A5  1903               	skipnz
  2383     02A6  293B               	goto	l1411
  2384     02A7  3A03               	xorlw	3	; case 2
  2385     02A8  1903               	skipnz
  2386     02A9  2970               	goto	l169
  2387     02AA  3A01               	xorlw	1	; case 3
  2388     02AB  1903               	skipnz
  2389     02AC  29B5               	goto	l173
  2390     02AD  3A07               	xorlw	7	; case 4
  2391     02AE  1903               	skipnz
  2392     02AF  29FF               	goto	l1473
  2393     02B0  3A01               	xorlw	1	; case 5
  2394     02B1  1903               	skipnz
  2395     02B2  2A3C               	goto	l1503
  2396     02B3  2AB4               	goto	l160
  2397     02B4                     l160:
  2398     02B4  0008               	return
  2399     02B5                     __end_of_EEPROM_SELECT:
  2400                           
  2401                           	psect	intentry
  2402     0004                     __pintentry:	
  2403 ;; *************** function _isr *****************
  2404 ;; Defined at:
  2405 ;;		line 15 in file "Project_ATCS_Decorder_INTERRUPT.c"
  2406 ;; Parameters:    Size  Location     Type
  2407 ;;		None
  2408 ;; Auto vars:     Size  Location     Type
  2409 ;;  COUNT           2    6[COMMON] unsigned short 
  2410 ;; Return value:  Size  Location     Type
  2411 ;;                  1    wreg      void 
  2412 ;; Registers used:
  2413 ;;		wreg, fsr0l, fsr0h, fsr1l, fsr1h, status,2, status,0, pclath, cstack
  2414 ;; Tracked objects:
  2415 ;;		On entry : 0/0
  2416 ;;		On exit  : 0/0
  2417 ;;		Unchanged: 0/0
  2418 ;; Data sizes:     COMMON   BANK0
  2419 ;;      Params:         0       0
  2420 ;;      Locals:         2       0
  2421 ;;      Temps:          1       0
  2422 ;;      Totals:         3       0
  2423 ;;Total ram usage:        3 bytes
  2424 ;; Hardware stack levels used: 1
  2425 ;; Hardware stack levels required when called: 1
  2426 ;; This function calls:
  2427 ;;		i1_EEPROM_SELECT
  2428 ;; This function is called by:
  2429 ;;		Interrupt level 1
  2430 ;; This function uses a non-reentrant model
  2431 ;;
  2432                           
  2433     0004                     _isr:
  2434                           
  2435                           ;incstack = 0
  2436     0004  147E               	bsf	int$flags,0	;set compiler interrupt flag (level 1)
  2437                           
  2438                           ; Regs used in _isr: [wreg-fsr1h+status,2+status,0+pclath+cstack]
  2439     0005  3180               	pagesel	$
  2440     0006                     i1l1803:
  2441     0006                     i1l1805:
  2442                           
  2443                           ;Project_ATCS_Decorder_INTERRUPT.c: 18:     if(INTCONbits.IOCIF){
  2444     0006  1C0B               	btfss	11,0	;volatile
  2445     0007  2809               	goto	u104_21
  2446     0008  280A               	goto	u104_20
  2447     0009                     u104_21:
  2448     0009  28BD               	goto	i1l97
  2449     000A                     u104_20:
  2450     000A                     i1l1807:
  2451                           
  2452                           ;Project_ATCS_Decorder_INTERRUPT.c: 19:         COUNT = TMR1;
  2453     000A  0020               	movlb	0	; select bank0
  2454     000B  0817               	movf	23,w	;volatile
  2455     000C  00F7               	movwf	isr@COUNT+1
  2456     000D  0816               	movf	22,w	;volatile
  2457     000E  00F6               	movwf	isr@COUNT
  2458     000F                     i1l1809:
  2459                           
  2460                           ;Project_ATCS_Decorder_INTERRUPT.c: 20:         TMR1 = 0x00;
  2461     000F  0196               	clrf	22	;volatile
  2462     0010  0197               	clrf	23	;volatile
  2463     0011                     i1l1811:
  2464                           
  2465                           ;Project_ATCS_Decorder_INTERRUPT.c: 21:         IOCAF = 0x00;
  2466     0011  0027               	movlb	7	; select bank7
  2467     0012  0193               	clrf	19	;volatile
  2468     0013                     i1l1813:
  2469                           
  2470                           ;Project_ATCS_Decorder_INTERRUPT.c: 23:         if(!(COM_FLAG & 0x01)){
  2471     0013  0020               	movlb	0	; select bank0
  2472     0014  185D               	btfsc	_COM_FLAG,0
  2473     0015  2817               	goto	u105_21
  2474     0016  2818               	goto	u105_20
  2475     0017                     u105_21:
  2476     0017  284F               	goto	i1l98
  2477     0018                     u105_20:
  2478     0018                     i1l1815:
  2479                           
  2480                           ;Project_ATCS_Decorder_INTERRUPT.c: 24:             if(COUNT >= 0x00C0 && COUNT <= 0x010
      +                          0 && !(COM_FLAG & 0x02) ){
  2481     0018  3000               	movlw	0
  2482     0019  0277               	subwf	isr@COUNT+1,w
  2483     001A  30C0               	movlw	192
  2484     001B  1903               	skipnz
  2485     001C  0276               	subwf	isr@COUNT,w
  2486     001D  1C03               	skipc
  2487     001E  2820               	goto	u106_21
  2488     001F  2821               	goto	u106_20
  2489     0020                     u106_21:
  2490     0020  2833               	goto	i1l1823
  2491     0021                     u106_20:
  2492     0021                     i1l1817:
  2493     0021  3001               	movlw	1
  2494     0022  0277               	subwf	isr@COUNT+1,w
  2495     0023  3001               	movlw	1
  2496     0024  1903               	skipnz
  2497     0025  0276               	subwf	isr@COUNT,w
  2498     0026  1803               	skipnc
  2499     0027  2829               	goto	u107_21
  2500     0028  282A               	goto	u107_20
  2501     0029                     u107_21:
  2502     0029  2833               	goto	i1l1823
  2503     002A                     u107_20:
  2504     002A                     i1l1819:
  2505     002A  18DD               	btfsc	_COM_FLAG,1
  2506     002B  282D               	goto	u108_21
  2507     002C  282E               	goto	u108_20
  2508     002D                     u108_21:
  2509     002D  2833               	goto	i1l1823
  2510     002E                     u108_20:
  2511     002E                     i1l1821:
  2512                           
  2513                           ;Project_ATCS_Decorder_INTERRUPT.c: 25:                 COUNTER++;
  2514     002E  3001               	movlw	1
  2515     002F  00F5               	movwf	??_isr
  2516     0030  0875               	movf	??_isr,w
  2517     0031  07F8               	addwf	_COUNTER,f
  2518                           
  2519                           ;Project_ATCS_Decorder_INTERRUPT.c: 26:             }
  2520     0032  28E0               	goto	i1l124
  2521     0033                     i1l1823:
  2522     0033  3000               	movlw	0
  2523     0034  0277               	subwf	isr@COUNT+1,w
  2524     0035  3081               	movlw	129
  2525     0036  1903               	skipnz
  2526     0037  0276               	subwf	isr@COUNT,w
  2527     0038  1803               	skipnc
  2528     0039  283B               	goto	u109_21
  2529     003A  283C               	goto	u109_20
  2530     003B                     u109_21:
  2531     003B  2840               	goto	i1l1827
  2532     003C                     u109_20:
  2533     003C                     i1l1825:
  2534     003C  1CDD               	btfss	_COM_FLAG,1
  2535     003D  283F               	goto	u110_21
  2536     003E  2840               	goto	u110_20
  2537     003F                     u110_21:
  2538     003F  28E0               	goto	i1l124
  2539     0040                     u110_20:
  2540     0040                     i1l1827:
  2541                           
  2542                           ;Project_ATCS_Decorder_INTERRUPT.c: 29:                 if(COUNTER > 11){
  2543     0040  300C               	movlw	12
  2544     0041  0278               	subwf	_COUNTER,w
  2545     0042  1C03               	skipc
  2546     0043  2845               	goto	u111_21
  2547     0044  2846               	goto	u111_20
  2548     0045                     u111_21:
  2549     0045  28BC               	goto	i1l105
  2550     0046                     u111_20:
  2551     0046                     i1l1829:
  2552                           
  2553                           ;Project_ATCS_Decorder_INTERRUPT.c: 30:                     COM_FLAG = COM_FLAG | 0x01;
  2554     0046  085D               	movf	_COM_FLAG,w
  2555     0047  3801               	iorlw	1
  2556     0048  00DD               	movwf	_COM_FLAG
  2557                           
  2558                           ;Project_ATCS_Decorder_INTERRUPT.c: 31:                     COM_FLAG = COM_FLAG & 0xFD;
  2559     0049  085D               	movf	_COM_FLAG,w
  2560     004A  39FD               	andlw	253
  2561     004B  00DD               	movwf	_COM_FLAG
  2562     004C                     i1l1831:
  2563                           
  2564                           ;Project_ATCS_Decorder_INTERRUPT.c: 32:                     COUNTER = 0x00;
  2565     004C  01F8               	clrf	_COUNTER
  2566     004D                     i1l1833:
  2567                           
  2568                           ;Project_ATCS_Decorder_INTERRUPT.c: 33:                     DATA = 0x00;
  2569     004D  01F9               	clrf	_DATA
  2570     004E  28E0               	goto	i1l124
  2571     004F                     i1l98:
  2572     004F  1C5D               	btfss	_COM_FLAG,0
  2573     0050  2852               	goto	u112_21
  2574     0051  2853               	goto	u112_20
  2575     0052                     u112_21:
  2576     0052  28E0               	goto	i1l124
  2577     0053                     u112_20:
  2578     0053                     i1l1835:
  2579                           
  2580                           ;Project_ATCS_Decorder_INTERRUPT.c: 38:             if(COUNTER < 8 ){
  2581     0053  3008               	movlw	8
  2582     0054  0278               	subwf	_COUNTER,w
  2583     0055  1803               	skipnc
  2584     0056  2858               	goto	u113_21
  2585     0057  2859               	goto	u113_20
  2586     0058                     u113_21:
  2587     0058  2883               	goto	i1l1851
  2588     0059                     u113_20:
  2589     0059                     i1l1837:
  2590                           
  2591                           ;Project_ATCS_Decorder_INTERRUPT.c: 39:                 if(COUNT >= 0x00C0 && COUNT <= 0
      +                          x0100 && !(COM_FLAG & 0x02)){
  2592     0059  3000               	movlw	0
  2593     005A  0277               	subwf	isr@COUNT+1,w
  2594     005B  30C0               	movlw	192
  2595     005C  1903               	skipnz
  2596     005D  0276               	subwf	isr@COUNT,w
  2597     005E  1C03               	skipc
  2598     005F  2861               	goto	u114_21
  2599     0060  2862               	goto	u114_20
  2600     0061                     u114_21:
  2601     0061  2872               	goto	i1l1845
  2602     0062                     u114_20:
  2603     0062                     i1l1839:
  2604     0062  3001               	movlw	1
  2605     0063  0277               	subwf	isr@COUNT+1,w
  2606     0064  3001               	movlw	1
  2607     0065  1903               	skipnz
  2608     0066  0276               	subwf	isr@COUNT,w
  2609     0067  1803               	skipnc
  2610     0068  286A               	goto	u115_21
  2611     0069  286B               	goto	u115_20
  2612     006A                     u115_21:
  2613     006A  2872               	goto	i1l1845
  2614     006B                     u115_20:
  2615     006B                     i1l1841:
  2616     006B  18DD               	btfsc	_COM_FLAG,1
  2617     006C  286E               	goto	u116_21
  2618     006D  286F               	goto	u116_20
  2619     006E                     u116_21:
  2620     006E  2872               	goto	i1l1845
  2621     006F                     u116_20:
  2622     006F                     i1l1843:
  2623                           
  2624                           ;Project_ATCS_Decorder_INTERRUPT.c: 40:                     DATA = (UnCHR) (DATA << 1) |
      +                           0x01;
  2625     006F  1403               	setc
  2626     0070  0DF9               	rlf	_DATA,f
  2627                           
  2628                           ;Project_ATCS_Decorder_INTERRUPT.c: 41:                 }else if(COUNT > 0x0080 || COM_F
      +                          LAG & 0x02){
  2629     0071  282E               	goto	i1l1821
  2630     0072                     i1l1845:
  2631     0072  3000               	movlw	0
  2632     0073  0277               	subwf	isr@COUNT+1,w
  2633     0074  3081               	movlw	129
  2634     0075  1903               	skipnz
  2635     0076  0276               	subwf	isr@COUNT,w
  2636     0077  1803               	skipnc
  2637     0078  287A               	goto	u117_21
  2638     0079  287B               	goto	u117_20
  2639     007A                     u117_21:
  2640     007A  287F               	goto	i1l1849
  2641     007B                     u117_20:
  2642     007B                     i1l1847:
  2643     007B  1CDD               	btfss	_COM_FLAG,1
  2644     007C  287E               	goto	u118_21
  2645     007D  287F               	goto	u118_20
  2646     007E                     u118_21:
  2647     007E  282E               	goto	i1l1821
  2648     007F                     u118_20:
  2649     007F                     i1l1849:
  2650                           
  2651                           ;Project_ATCS_Decorder_INTERRUPT.c: 42:                     DATA = (UnCHR) (DATA << 1) &
      +                           0xFE;
  2652     007F  3579               	lslf	_DATA,w
  2653     0080  39FE               	andlw	254
  2654     0081  00F9               	movwf	_DATA
  2655     0082  282E               	goto	i1l1821
  2656     0083                     i1l1851:
  2657                           
  2658                           ;Project_ATCS_Decorder_INTERRUPT.c: 47:                 if(COUNT >= 0x00C0 && COUNT <= 0
      +                          x0100 && !(COM_FLAG & 0x02)){
  2659     0083  3000               	movlw	0
  2660     0084  0277               	subwf	isr@COUNT+1,w
  2661     0085  30C0               	movlw	192
  2662     0086  1903               	skipnz
  2663     0087  0276               	subwf	isr@COUNT,w
  2664     0088  1C03               	skipc
  2665     0089  288B               	goto	u119_21
  2666     008A  288C               	goto	u119_20
  2667     008B                     u119_21:
  2668     008B  28A6               	goto	i1l1863
  2669     008C                     u119_20:
  2670     008C                     i1l1853:
  2671     008C  3001               	movlw	1
  2672     008D  0277               	subwf	isr@COUNT+1,w
  2673     008E  3001               	movlw	1
  2674     008F  1903               	skipnz
  2675     0090  0276               	subwf	isr@COUNT,w
  2676     0091  1803               	skipnc
  2677     0092  2894               	goto	u120_21
  2678     0093  2895               	goto	u120_20
  2679     0094                     u120_21:
  2680     0094  28A6               	goto	i1l1863
  2681     0095                     u120_20:
  2682     0095                     i1l1855:
  2683     0095  18DD               	btfsc	_COM_FLAG,1
  2684     0096  2898               	goto	u121_21
  2685     0097  2899               	goto	u121_20
  2686     0098                     u121_21:
  2687     0098  28A6               	goto	i1l1863
  2688     0099                     u121_20:
  2689     0099                     i1l1857:
  2690                           
  2691                           ;Project_ATCS_Decorder_INTERRUPT.c: 48:                     STACK[STCR] = DATA;
  2692     0099  085C               	movf	_STCR,w
  2693     009A  3EA0               	addlw	160
  2694     009B  0086               	movwf	6
  2695     009C  0187               	clrf	7
  2696     009D  0879               	movf	_DATA,w
  2697     009E  0081               	movwf	1
  2698     009F                     i1l1859:
  2699                           
  2700                           ;Project_ATCS_Decorder_INTERRUPT.c: 49:                     COM_FLAG = COM_FLAG | 0x04;
  2701     009F  085D               	movf	_COM_FLAG,w
  2702     00A0  3804               	iorlw	4
  2703     00A1  00DD               	movwf	_COM_FLAG
  2704     00A2                     i1l1861:
  2705                           
  2706                           ;Project_ATCS_Decorder_INTERRUPT.c: 50:                     COM_FLAG = COM_FLAG & 0xFE;
  2707     00A2  085D               	movf	_COM_FLAG,w
  2708     00A3  39FE               	andlw	254
  2709     00A4  00DD               	movwf	_COM_FLAG
  2710                           
  2711                           ;Project_ATCS_Decorder_INTERRUPT.c: 51:                 }else{
  2712     00A5  28BA               	goto	i1l1873
  2713     00A6                     i1l1863:
  2714                           
  2715                           ;Project_ATCS_Decorder_INTERRUPT.c: 52:                     if(STCR == 32){
  2716     00A6  3020               	movlw	32
  2717     00A7  065C               	xorwf	_STCR,w
  2718     00A8  1D03               	btfss	3,2
  2719     00A9  28AB               	goto	u122_21
  2720     00AA  28AC               	goto	u122_20
  2721     00AB                     u122_21:
  2722     00AB  28AD               	goto	i1l1867
  2723     00AC                     u122_20:
  2724     00AC                     i1l1865:
  2725                           
  2726                           ;Project_ATCS_Decorder_INTERRUPT.c: 53:                         STCR = 0;
  2727     00AC  01DC               	clrf	_STCR
  2728     00AD                     i1l1867:
  2729                           
  2730                           ;Project_ATCS_Decorder_INTERRUPT.c: 55:                     STACK[STCR] = DATA;
  2731     00AD  085C               	movf	_STCR,w
  2732     00AE  3EA0               	addlw	160
  2733     00AF  0086               	movwf	6
  2734     00B0  0187               	clrf	7
  2735     00B1  0879               	movf	_DATA,w
  2736     00B2  0081               	movwf	1
  2737     00B3                     i1l1869:
  2738                           
  2739                           ;Project_ATCS_Decorder_INTERRUPT.c: 56:                     COM_FLAG = COM_FLAG & 0xFB;
  2740     00B3  085D               	movf	_COM_FLAG,w
  2741     00B4  39FB               	andlw	251
  2742     00B5  00DD               	movwf	_COM_FLAG
  2743     00B6                     i1l1871:
  2744                           
  2745                           ;Project_ATCS_Decorder_INTERRUPT.c: 57:                     STCR++;
  2746     00B6  3001               	movlw	1
  2747     00B7  00F5               	movwf	??_isr
  2748     00B8  0875               	movf	??_isr,w
  2749     00B9  07DC               	addwf	_STCR,f
  2750     00BA                     i1l1873:
  2751                           
  2752                           ;Project_ATCS_Decorder_INTERRUPT.c: 59:                 COUNTER = 0x00;
  2753     00BA  01F8               	clrf	_COUNTER
  2754     00BB  28E0               	goto	i1l124
  2755     00BC                     i1l105:
  2756                           
  2757                           ;Project_ATCS_Decorder_INTERRUPT.c: 62:     }else if(PIR1bits.TMR1IF){
  2758     00BC  28E0               	goto	i1l124
  2759     00BD                     i1l97:
  2760     00BD  0020               	movlb	0	; select bank0
  2761     00BE  1C11               	btfss	17,0	;volatile
  2762     00BF  28C1               	goto	u123_21
  2763     00C0  28C2               	goto	u123_20
  2764     00C1                     u123_21:
  2765     00C1  28C7               	goto	i1l118
  2766     00C2                     u123_20:
  2767     00C2                     i1l1875:
  2768                           
  2769                           ;Project_ATCS_Decorder_INTERRUPT.c: 63:         PIR1 = 0x00;
  2770     00C2  0191               	clrf	17	;volatile
  2771     00C3                     i1l1877:
  2772                           
  2773                           ;Project_ATCS_Decorder_INTERRUPT.c: 64:         COM_FLAG = COM_FLAG | 0x02;
  2774     00C3  085D               	movf	_COM_FLAG,w
  2775     00C4  3802               	iorlw	2
  2776     00C5  00DD               	movwf	_COM_FLAG
  2777                           
  2778                           ;Project_ATCS_Decorder_INTERRUPT.c: 65:     }else if(PIR2bits.EEIF){
  2779     00C6  28E0               	goto	i1l124
  2780     00C7                     i1l118:
  2781     00C7  1E12               	btfss	18,4	;volatile
  2782     00C8  28CA               	goto	u124_21
  2783     00C9  28CB               	goto	u124_20
  2784     00CA                     u124_21:
  2785     00CA  28E0               	goto	i1l124
  2786     00CB                     u124_20:
  2787     00CB                     i1l1879:
  2788                           
  2789                           ;Project_ATCS_Decorder_INTERRUPT.c: 66:         PIR2bits.EEIF = 0;
  2790     00CB  1212               	bcf	18,4	;volatile
  2791     00CC                     i1l1881:
  2792                           
  2793                           ;Project_ATCS_Decorder_INTERRUPT.c: 67:         if(EE_STORE.EE_STATE == EE_WRITE_UID){
  2794     00CC  3002               	movlw	2
  2795     00CD  064C               	xorwf	_EE_STORE,w
  2796     00CE  1D03               	btfss	3,2
  2797     00CF  28D1               	goto	u125_21
  2798     00D0  28D2               	goto	u125_20
  2799     00D1                     u125_21:
  2800     00D1  28D5               	goto	i1l1885
  2801     00D2                     u125_20:
  2802     00D2                     i1l1883:
  2803                           
  2804                           ;Project_ATCS_Decorder_INTERRUPT.c: 68:             EE_STORE.EE_STATE = EE_VERIFY_UID;
  2805     00D2  3003               	movlw	3
  2806     00D3  00CC               	movwf	_EE_STORE
  2807                           
  2808                           ;Project_ATCS_Decorder_INTERRUPT.c: 69:         }else if(EE_STORE.EE_STATE == EE_WRITE_R
      +                          OM){
  2809     00D4  28DD               	goto	i1l1889
  2810     00D5                     i1l1885:
  2811     00D5  3004               	movlw	4
  2812     00D6  064C               	xorwf	_EE_STORE,w
  2813     00D7  1D03               	btfss	3,2
  2814     00D8  28DA               	goto	u126_21
  2815     00D9  28DB               	goto	u126_20
  2816     00DA                     u126_21:
  2817     00DA  28DD               	goto	i1l1889
  2818     00DB                     u126_20:
  2819     00DB                     i1l1887:
  2820                           
  2821                           ;Project_ATCS_Decorder_INTERRUPT.c: 70:             EE_STORE.EE_STATE = EE_VERIFY_ROM;
  2822     00DB  3005               	movlw	5
  2823     00DC  00CC               	movwf	_EE_STORE
  2824     00DD                     i1l1889:
  2825                           
  2826                           ;Project_ATCS_Decorder_INTERRUPT.c: 72:         EEPROM_SELECT();
  2827     00DD  3182  22B5  3180   	fcall	i1_EEPROM_SELECT
  2828     00E0                     i1l124:
  2829     00E0  107E               	bcf	int$flags,0	;clear compiler interrupt flag (level 1)
  2830     00E1  0009               	retfie
  2831     00E2                     __end_of_isr:
  2832                           
  2833                           	psect	text8
  2834     02B5                     __ptext8:	
  2835 ;; *************** function i1_EEPROM_SELECT *****************
  2836 ;; Defined at:
  2837 ;;		line 12 in file "Project_ATCS_Decorder_Module.c"
  2838 ;; Parameters:    Size  Location     Type
  2839 ;;		None
  2840 ;; Auto vars:     Size  Location     Type
  2841 ;;  EE_SAVE         2    2[COMMON] unsigned int 
  2842 ;;  COUNT           1    4[COMMON] unsigned char 
  2843 ;; Return value:  Size  Location     Type
  2844 ;;                  1    wreg      void 
  2845 ;; Registers used:
  2846 ;;		wreg, fsr0l, fsr0h, fsr1l, fsr1h, status,2, status,0
  2847 ;; Tracked objects:
  2848 ;;		On entry : 0/0
  2849 ;;		On exit  : 0/0
  2850 ;;		Unchanged: 0/0
  2851 ;; Data sizes:     COMMON   BANK0
  2852 ;;      Params:         0       0
  2853 ;;      Locals:         3       0
  2854 ;;      Temps:          2       0
  2855 ;;      Totals:         5       0
  2856 ;;Total ram usage:        5 bytes
  2857 ;; Hardware stack levels used: 1
  2858 ;; This function calls:
  2859 ;;		Nothing
  2860 ;; This function is called by:
  2861 ;;		_isr
  2862 ;; This function uses a non-reentrant model
  2863 ;;
  2864                           
  2865     02B5                     i1_EEPROM_SELECT:	
  2866                           ;psect for function i1_EEPROM_SELECT
  2867                           
  2868     02B5                     i1l1579:	
  2869                           ;incstack = 0
  2870                           ; Regs used in i1_EEPROM_SELECT: [wreg-fsr1h+status,2+status,0]
  2871                           
  2872                           
  2873                           ;Project_ATCS_Decorder_Module.c: 13:     INTCONbits.GIE = 0;
  2874     02B5  138B               	bcf	11,7	;volatile
  2875     02B6                     i1l1581:
  2876                           
  2877                           ;Project_ATCS_Decorder_Module.c: 14:     UnCHR COUNT = 0x00 ;
  2878     02B6  01F4               	clrf	i1EEPROM_SELECT@COUNT
  2879                           
  2880                           ;Project_ATCS_Decorder_Module.c: 16:     switch (EE_STORE.EE_STATE) {
  2881     02B7  2C42               	goto	i1l1715
  2882     02B8                     i1l1583:
  2883                           
  2884                           ;Project_ATCS_Decorder_Module.c: 19:                 if(EE_STORE.EE_REPORT[COUNT]){
  2885     02B8  0874               	movf	i1EEPROM_SELECT@COUNT,w
  2886     02B9  3E58               	addlw	(low ((_EE_STORE| 0+12)))& (0+255)
  2887     02BA  0086               	movwf	6
  2888     02BB  0187               	clrf	7
  2889     02BC  0801               	movf	1,w
  2890     02BD  1903               	btfsc	3,2
  2891     02BE  2AC0               	goto	u78_21
  2892     02BF  2AC1               	goto	u78_20
  2893     02C0                     u78_21:
  2894     02C0  2ADF               	goto	i1l1593
  2895     02C1                     u78_20:
  2896     02C1                     i1l1585:
  2897                           
  2898                           ;Project_ATCS_Decorder_Module.c: 20:                     EEADR = EE_STORE.EE_ADRS;
  2899     02C1  084F               	movf	_EE_STORE+3,w
  2900     02C2  0023               	movlb	3	; select bank3
  2901     02C3  0092               	movwf	18	;volatile
  2902     02C4  0020               	movlb	0	; select bank0
  2903     02C5  084E               	movf	_EE_STORE+2,w
  2904     02C6  0023               	movlb	3	; select bank3
  2905     02C7  0091               	movwf	17	;volatile
  2906                           
  2907                           ;Project_ATCS_Decorder_Module.c: 21:                     EECON1 = EE_STORE.EE_CONFIG;
  2908     02C8  0020               	movlb	0	; select bank0
  2909     02C9  084D               	movf	_EE_STORE+1,w
  2910     02CA  0023               	movlb	3	; select bank3
  2911     02CB  0095               	movwf	21	;volsfr
  2912     02CC                     i1l157:	
  2913                           ;Project_ATCS_Decorder_Module.c: 22:                     while (EECON1bits.RD);
  2914                           
  2915     02CC  1815               	btfsc	21,0	;volsfr
  2916     02CD  2ACF               	goto	u79_21
  2917     02CE  2AD0               	goto	u79_20
  2918     02CF                     u79_21:
  2919     02CF  2ACC               	goto	i1l157
  2920     02D0                     u79_20:
  2921     02D0                     i1l1587:
  2922                           
  2923                           ;Project_ATCS_Decorder_Module.c: 23:                     EE_STORE.EE_DATA[COUNT] = EEDAT
      +                          ;
  2924     02D0  3574               	lslf	i1EEPROM_SELECT@COUNT,w
  2925     02D1  3E50               	addlw	(low ((_EE_STORE| 0+4)))& (0+255)
  2926     02D2  0086               	movwf	6
  2927     02D3  0187               	clrf	7
  2928     02D4  0813               	movf	19,w	;volatile
  2929     02D5  3FC0               	movwi [0]fsr1
  2930     02D6  0814               	movf	20,w	;volatile
  2931     02D7  3FC1               	movwi [1]fsr1
  2932     02D8                     i1l1589:
  2933                           
  2934                           ;Project_ATCS_Decorder_Module.c: 24:                     INTCONbits.GIE = 1;
  2935     02D8  178B               	bsf	11,7	;volatile
  2936                           
  2937                           ;Project_ATCS_Decorder_Module.c: 25:                     EE_STORE.EE_REPORT[COUNT] = 0x0
      +                          0;
  2938     02D9  0874               	movf	i1EEPROM_SELECT@COUNT,w
  2939     02DA  3E58               	addlw	(low ((_EE_STORE| 0+12)))& (0+255)
  2940     02DB  0086               	movwf	6
  2941     02DC  0187               	clrf	7
  2942     02DD  0181               	clrf	1
  2943     02DE  2C5F               	goto	i1l160
  2944     02DF                     i1l1593:
  2945                           
  2946                           ;Project_ATCS_Decorder_Module.c: 28:                 COUNT++;
  2947     02DF  3001               	movlw	1
  2948     02E0  00F0               	movwf	??i1_EEPROM_SELECT
  2949     02E1  0870               	movf	??i1_EEPROM_SELECT,w
  2950     02E2  07F4               	addwf	i1EEPROM_SELECT@COUNT,f
  2951     02E3                     i1l1595:
  2952                           
  2953                           ;Project_ATCS_Decorder_Module.c: 29:                 EEADR = EE_STORE.EE_ADRS++;
  2954     02E3  084F               	movf	_EE_STORE+3,w
  2955     02E4  0023               	movlb	3	; select bank3
  2956     02E5  0092               	movwf	18	;volatile
  2957     02E6  0020               	movlb	0	; select bank0
  2958     02E7  084E               	movf	_EE_STORE+2,w
  2959     02E8  0023               	movlb	3	; select bank3
  2960     02E9  0091               	movwf	17	;volatile
  2961     02EA                     i1l1597:
  2962     02EA  3001               	movlw	1
  2963     02EB  0020               	movlb	0	; select bank0
  2964     02EC  07CE               	addwf	_EE_STORE+2,f
  2965     02ED  3000               	movlw	0
  2966     02EE  3DCF               	addwfc	_EE_STORE+3,f
  2967     02EF                     i1l1599:
  2968                           
  2969                           ;Project_ATCS_Decorder_Module.c: 30:             }while(COUNT < 4);
  2970     02EF  3004               	movlw	4
  2971     02F0  0274               	subwf	i1EEPROM_SELECT@COUNT,w
  2972     02F1  1C03               	skipc
  2973     02F2  2AF4               	goto	u80_21
  2974     02F3  2AF5               	goto	u80_20
  2975     02F4                     u80_21:
  2976     02F4  2AB8               	goto	i1l1583
  2977     02F5                     u80_20:
  2978     02F5  2C5F               	goto	i1l160
  2979     02F6                     i1l1601:
  2980                           
  2981                           ;Project_ATCS_Decorder_Module.c: 35:                 if(EE_STORE.EE_REPORT[COUNT]){
  2982     02F6  0874               	movf	i1EEPROM_SELECT@COUNT,w
  2983     02F7  3E58               	addlw	(low ((_EE_STORE| 0+12)))& (0+255)
  2984     02F8  0086               	movwf	6
  2985     02F9  0187               	clrf	7
  2986     02FA  0801               	movf	1,w
  2987     02FB  1903               	btfsc	3,2
  2988     02FC  2AFE               	goto	u81_21
  2989     02FD  2AFF               	goto	u81_20
  2990     02FE                     u81_21:
  2991     02FE  2B1C               	goto	i1l1609
  2992     02FF                     u81_20:
  2993     02FF                     i1l1603:
  2994                           
  2995                           ;Project_ATCS_Decorder_Module.c: 36:                     EEADR = EE_STORE.EE_ADRS;
  2996     02FF  084F               	movf	_EE_STORE+3,w
  2997     0300  0023               	movlb	3	; select bank3
  2998     0301  0092               	movwf	18	;volatile
  2999     0302  0020               	movlb	0	; select bank0
  3000     0303  084E               	movf	_EE_STORE+2,w
  3001     0304  0023               	movlb	3	; select bank3
  3002     0305  0091               	movwf	17	;volatile
  3003                           
  3004                           ;Project_ATCS_Decorder_Module.c: 37:                     EECON1 = EE_STORE.EE_CONFIG;
  3005     0306  0020               	movlb	0	; select bank0
  3006     0307  084D               	movf	_EE_STORE+1,w
  3007     0308  0023               	movlb	3	; select bank3
  3008     0309  0095               	movwf	21	;volsfr
  3009     030A                     i1l1605:
  3010                           
  3011                           ;Project_ATCS_Decorder_Module.c: 38:                     EECON1bits.RD = 1;
  3012     030A  1415               	bsf	21,0	;volsfr
  3013     030B                     i1l165:	
  3014                           ;Project_ATCS_Decorder_Module.c: 39:                     while (EECON1bits.RD);
  3015                           
  3016     030B  1815               	btfsc	21,0	;volsfr
  3017     030C  2B0E               	goto	u82_21
  3018     030D  2B0F               	goto	u82_20
  3019     030E                     u82_21:
  3020     030E  2B0B               	goto	i1l165
  3021     030F                     u82_20:
  3022     030F                     i1l1607:
  3023                           
  3024                           ;Project_ATCS_Decorder_Module.c: 40:                     EE_STORE.EE_DATA[COUNT] = EEDAT
      +                          ;
  3025     030F  3574               	lslf	i1EEPROM_SELECT@COUNT,w
  3026     0310  3E50               	addlw	(low ((_EE_STORE| 0+4)))& (0+255)
  3027     0311  0086               	movwf	6
  3028     0312  0187               	clrf	7
  3029     0313  0813               	movf	19,w	;volatile
  3030     0314  3FC0               	movwi [0]fsr1
  3031     0315  0814               	movf	20,w	;volatile
  3032     0316  3FC1               	movwi [1]fsr1
  3033                           
  3034                           ;Project_ATCS_Decorder_Module.c: 41:                     EE_STORE.EE_REPORT[COUNT] = 0x0
      +                          0;
  3035     0317  0874               	movf	i1EEPROM_SELECT@COUNT,w
  3036     0318  3E58               	addlw	(low ((_EE_STORE| 0+12)))& (0+255)
  3037     0319  0086               	movwf	6
  3038     031A  0187               	clrf	7
  3039     031B  0181               	clrf	1
  3040     031C                     i1l1609:
  3041                           
  3042                           ;Project_ATCS_Decorder_Module.c: 43:                 EE_STORE.EE_ADRS++;
  3043     031C  3001               	movlw	1
  3044     031D  0020               	movlb	0	; select bank0
  3045     031E  07CE               	addwf	_EE_STORE+2,f
  3046     031F  3000               	movlw	0
  3047     0320  3DCF               	addwfc	_EE_STORE+3,f
  3048     0321                     i1l1611:
  3049                           
  3050                           ;Project_ATCS_Decorder_Module.c: 44:             } while (COUNT < 4);
  3051     0321  3004               	movlw	4
  3052     0322  0274               	subwf	i1EEPROM_SELECT@COUNT,w
  3053     0323  1C03               	skipc
  3054     0324  2B26               	goto	u83_21
  3055     0325  2B27               	goto	u83_20
  3056     0326                     u83_21:
  3057     0326  2AF6               	goto	i1l1601
  3058     0327                     u83_20:
  3059     0327                     i1l168:
  3060                           
  3061                           ;Project_ATCS_Decorder_Module.c: 45:             INTCONbits.GIE = 1;
  3062     0327  178B               	bsf	11,7	;volatile
  3063                           
  3064                           ;Project_ATCS_Decorder_Module.c: 46:             return;
  3065     0328  2C5F               	goto	i1l160
  3066     0329                     i1l169:	
  3067                           ;Project_ATCS_Decorder_Module.c: 48:         case EE_WRITE_UID:
  3068                           
  3069                           
  3070                           ;Project_ATCS_Decorder_Module.c: 49:             INTCONbits.GIE = 0;
  3071     0329  138B               	bcf	11,7	;volatile
  3072     032A                     i1l1613:
  3073                           
  3074                           ;Project_ATCS_Decorder_Module.c: 50:             UnINT EE_SAVE = EE_STORE.EE_ADRS;
  3075     032A  084F               	movf	_EE_STORE+3,w
  3076     032B  00F3               	movwf	i1EEPROM_SELECT@EE_SAVE+1
  3077     032C  084E               	movf	_EE_STORE+2,w
  3078     032D  00F2               	movwf	i1EEPROM_SELECT@EE_SAVE
  3079     032E                     i1l1615:
  3080                           
  3081                           ;Project_ATCS_Decorder_Module.c: 52:                 if(EE_STORE.EE_REPORT[COUNT]){
  3082     032E  0874               	movf	i1EEPROM_SELECT@COUNT,w
  3083     032F  3E58               	addlw	(low ((_EE_STORE| 0+12)))& (0+255)
  3084     0330  0086               	movwf	6
  3085     0331  0187               	clrf	7
  3086     0332  0801               	movf	1,w
  3087     0333  1903               	btfsc	3,2
  3088     0334  2B36               	goto	u84_21
  3089     0335  2B37               	goto	u84_20
  3090     0336                     u84_21:
  3091     0336  2B4D               	goto	i1l1629
  3092     0337                     u84_20:
  3093     0337                     i1l1617:
  3094                           
  3095                           ;Project_ATCS_Decorder_Module.c: 53:                     EEADR = EE_STORE.EE_ADRS;
  3096     0337  084F               	movf	_EE_STORE+3,w
  3097     0338  0023               	movlb	3	; select bank3
  3098     0339  0092               	movwf	18	;volatile
  3099     033A  0020               	movlb	0	; select bank0
  3100     033B  084E               	movf	_EE_STORE+2,w
  3101     033C  0023               	movlb	3	; select bank3
  3102     033D  0091               	movwf	17	;volatile
  3103     033E                     i1l1619:
  3104                           
  3105                           ;Project_ATCS_Decorder_Module.c: 54:                     EEDAT = EE_STORE.EE_DATA[COUNT]
      +                          ;
  3106     033E  3574               	lslf	i1EEPROM_SELECT@COUNT,w
  3107     033F  3E50               	addlw	(low ((_EE_STORE| 0+4)))& (0+255)
  3108     0340  0086               	movwf	6
  3109     0341  0187               	clrf	7
  3110     0342  3F40               	moviw [0]fsr1
  3111     0343  0093               	movwf	19	;volatile
  3112     0344  3F41               	moviw [1]fsr1
  3113     0345  0094               	movwf	20	;volatile
  3114     0346                     i1l1621:
  3115                           
  3116                           ;Project_ATCS_Decorder_Module.c: 55:                     EECON1 = 0x64;
  3117     0346  3064               	movlw	100
  3118     0347  0095               	movwf	21	;volsfr
  3119     0348                     i1l1623:
  3120                           
  3121                           ;Project_ATCS_Decorder_Module.c: 56:                     EECON2 = 0x55;
  3122     0348  3055               	movlw	85
  3123     0349  0096               	movwf	22	;volsfr
  3124     034A                     i1l1625:
  3125                           
  3126                           ;Project_ATCS_Decorder_Module.c: 57:                     EECON2 = 0xAA;
  3127     034A  30AA               	movlw	170
  3128     034B  0096               	movwf	22	;volsfr
  3129     034C                     i1l1627:
  3130                           
  3131                           ;Project_ATCS_Decorder_Module.c: 58:                     EECON1bits.WR = 1;
  3132     034C  1495               	bsf	21,1	;volsfr
  3133     034D                     i1l1629:
  3134                           
  3135                           ;Project_ATCS_Decorder_Module.c: 60:                 COUNT++;
  3136     034D  3001               	movlw	1
  3137     034E  00F0               	movwf	??i1_EEPROM_SELECT
  3138     034F  0870               	movf	??i1_EEPROM_SELECT,w
  3139     0350  07F4               	addwf	i1EEPROM_SELECT@COUNT,f
  3140     0351                     i1l1631:
  3141                           
  3142                           ;Project_ATCS_Decorder_Module.c: 61:                 EE_STORE.EE_ADRS++;
  3143     0351  3001               	movlw	1
  3144     0352  0020               	movlb	0	; select bank0
  3145     0353  07CE               	addwf	_EE_STORE+2,f
  3146     0354  3000               	movlw	0
  3147     0355  3DCF               	addwfc	_EE_STORE+3,f
  3148     0356                     i1l1633:
  3149                           
  3150                           ;Project_ATCS_Decorder_Module.c: 62:             } while (COUNT < 4);
  3151     0356  3004               	movlw	4
  3152     0357  0274               	subwf	i1EEPROM_SELECT@COUNT,w
  3153     0358  1C03               	skipc
  3154     0359  2B5B               	goto	u85_21
  3155     035A  2B5C               	goto	u85_20
  3156     035B                     u85_21:
  3157     035B  2B2E               	goto	i1l1615
  3158     035C                     u85_20:
  3159     035C                     i1l1635:
  3160                           
  3161                           ;Project_ATCS_Decorder_Module.c: 63:             EE_STORE.EE_ADRS = EE_SAVE;
  3162     035C  0873               	movf	i1EEPROM_SELECT@EE_SAVE+1,w
  3163     035D  00CF               	movwf	_EE_STORE+3
  3164     035E  0872               	movf	i1EEPROM_SELECT@EE_SAVE,w
  3165     035F  00CE               	movwf	_EE_STORE+2
  3166                           
  3167                           ;Project_ATCS_Decorder_Module.c: 65:             EECON1 = 0x44;
  3168     0360  3044               	movlw	68
  3169     0361  0023               	movlb	3	; select bank3
  3170     0362  0095               	movwf	21	;volsfr
  3171                           
  3172                           ;Project_ATCS_Decorder_Module.c: 66:             EECON2 = 0x55;
  3173     0363  3055               	movlw	85
  3174     0364  0096               	movwf	22	;volsfr
  3175                           
  3176                           ;Project_ATCS_Decorder_Module.c: 67:             EECON2 = 0xAA;
  3177     0365  30AA               	movlw	170
  3178     0366  0096               	movwf	22	;volsfr
  3179     0367                     i1l1637:
  3180                           
  3181                           ;Project_ATCS_Decorder_Module.c: 69:             EECON1bits.WR = 1;
  3182     0367  1495               	bsf	21,1	;volsfr
  3183     0368                     i1l1639:
  3184                           
  3185                           ;Project_ATCS_Decorder_Module.c: 70:             __nop();
  3186     0368  0000               	nop
  3187     0369                     i1l1641:
  3188                           
  3189                           ;Project_ATCS_Decorder_Module.c: 71:             __nop();
  3190     0369  0000               	nop
  3191     036A                     i1l1643:
  3192                           
  3193                           ;Project_ATCS_Decorder_Module.c: 72:             INTCONbits.GIE = 1;
  3194     036A  178B               	bsf	11,7	;volatile
  3195     036B  2C5F               	goto	i1l160
  3196     036C                     i1l173:	
  3197                           ;Project_ATCS_Decorder_Module.c: 75:         case EE_VERIFY_UID:
  3198                           
  3199                           
  3200                           ;Project_ATCS_Decorder_Module.c: 76:             INTCONbits.GIE = 0;
  3201     036C  138B               	bcf	11,7	;volatile
  3202     036D                     i1l1647:
  3203                           
  3204                           ;Project_ATCS_Decorder_Module.c: 78:                 if(EE_STORE.EE_REPORT[COUNT]){
  3205     036D  0874               	movf	i1EEPROM_SELECT@COUNT,w
  3206     036E  3E58               	addlw	(low ((_EE_STORE| 0+12)))& (0+255)
  3207     036F  0086               	movwf	6
  3208     0370  0187               	clrf	7
  3209     0371  0801               	movf	1,w
  3210     0372  1903               	btfsc	3,2
  3211     0373  2B75               	goto	u86_21
  3212     0374  2B76               	goto	u86_20
  3213     0375                     u86_21:
  3214     0375  2BA1               	goto	i1l1657
  3215     0376                     u86_20:
  3216     0376                     i1l1649:
  3217                           
  3218                           ;Project_ATCS_Decorder_Module.c: 79:                     EEADR = EE_STORE.EE_ADRS;
  3219     0376  084F               	movf	_EE_STORE+3,w
  3220     0377  0023               	movlb	3	; select bank3
  3221     0378  0092               	movwf	18	;volatile
  3222     0379  0020               	movlb	0	; select bank0
  3223     037A  084E               	movf	_EE_STORE+2,w
  3224     037B  0023               	movlb	3	; select bank3
  3225     037C  0091               	movwf	17	;volatile
  3226                           
  3227                           ;Project_ATCS_Decorder_Module.c: 80:                     EECON1 = 0x41;
  3228     037D  3041               	movlw	65
  3229     037E  0095               	movwf	21	;volsfr
  3230     037F                     i1l176:	
  3231                           ;Project_ATCS_Decorder_Module.c: 81:                     while (EECON1bits.RD);
  3232                           
  3233     037F  1815               	btfsc	21,0	;volsfr
  3234     0380  2B82               	goto	u87_21
  3235     0381  2B83               	goto	u87_20
  3236     0382                     u87_21:
  3237     0382  2B7F               	goto	i1l176
  3238     0383                     u87_20:
  3239     0383                     i1l1651:
  3240                           
  3241                           ;Project_ATCS_Decorder_Module.c: 82:                     if (EEDAT != EE_STORE.EE_DATA[C
      +                          OUNT]) {
  3242     0383  3574               	lslf	i1EEPROM_SELECT@COUNT,w
  3243     0384  3E50               	addlw	(low ((_EE_STORE| 0+4)))& (0+255)
  3244     0385  0086               	movwf	6
  3245     0386  0187               	clrf	7
  3246     0387  3F40               	moviw [0]fsr1
  3247     0388  00F0               	movwf	??i1_EEPROM_SELECT
  3248     0389  3F41               	moviw [1]fsr1
  3249     038A  00F1               	movwf	??i1_EEPROM_SELECT+1
  3250     038B  0814               	movf	20,w	;volatile
  3251     038C  0671               	xorwf	??i1_EEPROM_SELECT+1,w
  3252     038D  1D03               	skipz
  3253     038E  2B91               	goto	u88_25
  3254     038F  0813               	movf	19,w	;volatile
  3255     0390  0670               	xorwf	??i1_EEPROM_SELECT,w
  3256     0391                     u88_25:
  3257     0391  1903               	skipnz
  3258     0392  2B94               	goto	u88_21
  3259     0393  2B95               	goto	u88_20
  3260     0394                     u88_21:
  3261     0394  2B9C               	goto	i1l1655
  3262     0395                     u88_20:
  3263     0395                     i1l1653:
  3264                           
  3265                           ;Project_ATCS_Decorder_Module.c: 83:                         EE_STORE.EE_REPORT[COUNT] =
      +                           0xFF;
  3266     0395  0874               	movf	i1EEPROM_SELECT@COUNT,w
  3267     0396  3E58               	addlw	(low ((_EE_STORE| 0+12)))& (0+255)
  3268     0397  0086               	movwf	6
  3269     0398  0187               	clrf	7
  3270     0399  30FF               	movlw	255
  3271     039A  0081               	movwf	1
  3272                           
  3273                           ;Project_ATCS_Decorder_Module.c: 84:                     } else {
  3274     039B  2BA1               	goto	i1l1657
  3275     039C                     i1l1655:
  3276                           
  3277                           ;Project_ATCS_Decorder_Module.c: 85:                         EE_STORE.EE_REPORT[COUNT] =
      +                           0x00;
  3278     039C  0874               	movf	i1EEPROM_SELECT@COUNT,w
  3279     039D  3E58               	addlw	(low ((_EE_STORE| 0+12)))& (0+255)
  3280     039E  0086               	movwf	6
  3281     039F  0187               	clrf	7
  3282     03A0  0181               	clrf	1
  3283     03A1                     i1l1657:
  3284                           
  3285                           ;Project_ATCS_Decorder_Module.c: 88:                 COUNT++;
  3286     03A1  3001               	movlw	1
  3287     03A2  00F0               	movwf	??i1_EEPROM_SELECT
  3288     03A3  0870               	movf	??i1_EEPROM_SELECT,w
  3289     03A4  07F4               	addwf	i1EEPROM_SELECT@COUNT,f
  3290     03A5                     i1l1659:
  3291                           
  3292                           ;Project_ATCS_Decorder_Module.c: 89:                 EE_STORE.EE_ADRS++;
  3293     03A5  3001               	movlw	1
  3294     03A6  0020               	movlb	0	; select bank0
  3295     03A7  07CE               	addwf	_EE_STORE+2,f
  3296     03A8  3000               	movlw	0
  3297     03A9  3DCF               	addwfc	_EE_STORE+3,f
  3298     03AA                     i1l1661:
  3299                           
  3300                           ;Project_ATCS_Decorder_Module.c: 90:             } while (COUNT < 4);
  3301     03AA  3004               	movlw	4
  3302     03AB  0274               	subwf	i1EEPROM_SELECT@COUNT,w
  3303     03AC  1C03               	skipc
  3304     03AD  2BAF               	goto	u89_21
  3305     03AE  2BB0               	goto	u89_20
  3306     03AF                     u89_21:
  3307     03AF  2B6D               	goto	i1l1647
  3308     03B0                     u89_20:
  3309     03B0                     i1l181:
  3310                           
  3311                           ;Project_ATCS_Decorder_Module.c: 91:             INTCONbits.GIE = 1;
  3312     03B0  178B               	bsf	11,7	;volatile
  3313                           
  3314                           ;Project_ATCS_Decorder_Module.c: 92:             return;
  3315     03B1  2C5F               	goto	i1l160
  3316     03B2                     i1l1663:
  3317                           
  3318                           ;Project_ATCS_Decorder_Module.c: 96:                 if(EE_STORE.EE_REPORT[COUNT]){
  3319     03B2  0874               	movf	i1EEPROM_SELECT@COUNT,w
  3320     03B3  3E58               	addlw	(low ((_EE_STORE| 0+12)))& (0+255)
  3321     03B4  0086               	movwf	6
  3322     03B5  0187               	clrf	7
  3323     03B6  0801               	movf	1,w
  3324     03B7  1903               	btfsc	3,2
  3325     03B8  2BBA               	goto	u90_21
  3326     03B9  2BBB               	goto	u90_20
  3327     03BA                     u90_21:
  3328     03BA  2BD5               	goto	i1l1685
  3329     03BB                     u90_20:
  3330     03BB                     i1l1665:
  3331                           
  3332                           ;Project_ATCS_Decorder_Module.c: 97:                     EEADR = EE_STORE.EE_ADRS;
  3333     03BB  084F               	movf	_EE_STORE+3,w
  3334     03BC  0023               	movlb	3	; select bank3
  3335     03BD  0092               	movwf	18	;volatile
  3336     03BE  0020               	movlb	0	; select bank0
  3337     03BF  084E               	movf	_EE_STORE+2,w
  3338     03C0  0023               	movlb	3	; select bank3
  3339     03C1  0091               	movwf	17	;volatile
  3340     03C2                     i1l1667:
  3341                           
  3342                           ;Project_ATCS_Decorder_Module.c: 98:                     EEDAT = EE_STORE.EE_DATA[COUNT]
      +                          ;
  3343     03C2  3574               	lslf	i1EEPROM_SELECT@COUNT,w
  3344     03C3  3E50               	addlw	(low ((_EE_STORE| 0+4)))& (0+255)
  3345     03C4  0086               	movwf	6
  3346     03C5  0187               	clrf	7
  3347     03C6  3F40               	moviw [0]fsr1
  3348     03C7  0093               	movwf	19	;volatile
  3349     03C8  3F41               	moviw [1]fsr1
  3350     03C9  0094               	movwf	20	;volatile
  3351     03CA                     i1l1669:
  3352                           
  3353                           ;Project_ATCS_Decorder_Module.c: 99:                     EECON1 = 0x44;
  3354     03CA  3044               	movlw	68
  3355     03CB  0095               	movwf	21	;volsfr
  3356     03CC                     i1l1671:
  3357                           
  3358                           ;Project_ATCS_Decorder_Module.c: 100:                     EECON2 = 0x55;
  3359     03CC  3055               	movlw	85
  3360     03CD  0096               	movwf	22	;volsfr
  3361     03CE                     i1l1673:
  3362                           
  3363                           ;Project_ATCS_Decorder_Module.c: 101:                     EECON2 = 0xAA;
  3364     03CE  30AA               	movlw	170
  3365     03CF  0096               	movwf	22	;volsfr
  3366     03D0                     i1l1675:
  3367                           
  3368                           ;Project_ATCS_Decorder_Module.c: 102:                     EECON1bits.WR = 1;
  3369     03D0  1495               	bsf	21,1	;volsfr
  3370     03D1                     i1l1677:
  3371                           
  3372                           ;Project_ATCS_Decorder_Module.c: 103:                     __nop();
  3373     03D1  0000               	nop
  3374     03D2                     i1l1679:
  3375                           
  3376                           ;Project_ATCS_Decorder_Module.c: 104:                     __nop();
  3377     03D2  0000               	nop
  3378     03D3                     i1l1681:
  3379                           
  3380                           ;Project_ATCS_Decorder_Module.c: 105:                     INTCONbits.GIE = 1;
  3381     03D3  178B               	bsf	11,7	;volatile
  3382     03D4  2C5F               	goto	i1l160
  3383     03D5                     i1l1685:
  3384                           
  3385                           ;Project_ATCS_Decorder_Module.c: 108:                 COUNT++;
  3386     03D5  3001               	movlw	1
  3387     03D6  00F0               	movwf	??i1_EEPROM_SELECT
  3388     03D7  0870               	movf	??i1_EEPROM_SELECT,w
  3389     03D8  07F4               	addwf	i1EEPROM_SELECT@COUNT,f
  3390     03D9                     i1l1687:
  3391                           
  3392                           ;Project_ATCS_Decorder_Module.c: 109:                 EEADR = EE_STORE.EE_ADRS++;
  3393     03D9  084F               	movf	_EE_STORE+3,w
  3394     03DA  0023               	movlb	3	; select bank3
  3395     03DB  0092               	movwf	18	;volatile
  3396     03DC  0020               	movlb	0	; select bank0
  3397     03DD  084E               	movf	_EE_STORE+2,w
  3398     03DE  0023               	movlb	3	; select bank3
  3399     03DF  0091               	movwf	17	;volatile
  3400     03E0                     i1l1689:
  3401     03E0  3001               	movlw	1
  3402     03E1  0020               	movlb	0	; select bank0
  3403     03E2  07CE               	addwf	_EE_STORE+2,f
  3404     03E3  3000               	movlw	0
  3405     03E4  3DCF               	addwfc	_EE_STORE+3,f
  3406     03E5                     i1l1691:
  3407                           
  3408                           ;Project_ATCS_Decorder_Module.c: 110:             }while(COUNT < 4);
  3409     03E5  3004               	movlw	4
  3410     03E6  0274               	subwf	i1EEPROM_SELECT@COUNT,w
  3411     03E7  1C03               	skipc
  3412     03E8  2BEA               	goto	u91_21
  3413     03E9  2BEB               	goto	u91_20
  3414     03EA                     u91_21:
  3415     03EA  2BB2               	goto	i1l1663
  3416     03EB                     u91_20:
  3417     03EB                     i1l185:
  3418                           
  3419                           ;Project_ATCS_Decorder_Module.c: 111:             INTCONbits.GIE = 1;
  3420     03EB  178B               	bsf	11,7	;volatile
  3421                           
  3422                           ;Project_ATCS_Decorder_Module.c: 112:             return;
  3423     03EC  2C5F               	goto	i1l160
  3424     03ED                     i1l1693:
  3425                           
  3426                           ;Project_ATCS_Decorder_Module.c: 116:                 if(EE_STORE.EE_REPORT[COUNT]){
  3427     03ED  0874               	movf	i1EEPROM_SELECT@COUNT,w
  3428     03EE  3E58               	addlw	(low ((_EE_STORE| 0+12)))& (0+255)
  3429     03EF  0086               	movwf	6
  3430     03F0  0187               	clrf	7
  3431     03F1  0801               	movf	1,w
  3432     03F2  1903               	btfsc	3,2
  3433     03F3  2BF5               	goto	u92_21
  3434     03F4  2BF6               	goto	u92_20
  3435     03F5                     u92_21:
  3436     03F5  2C2A               	goto	i1l1705
  3437     03F6                     u92_20:
  3438     03F6                     i1l1695:
  3439                           
  3440                           ;Project_ATCS_Decorder_Module.c: 117:                     EEADR = EE_STORE.EE_ADRS;
  3441     03F6  084F               	movf	_EE_STORE+3,w
  3442     03F7  0023               	movlb	3	; select bank3
  3443     03F8  0092               	movwf	18	;volatile
  3444     03F9  0020               	movlb	0	; select bank0
  3445     03FA  084E               	movf	_EE_STORE+2,w
  3446     03FB  0023               	movlb	3	; select bank3
  3447     03FC  0091               	movwf	17	;volatile
  3448                           
  3449                           ;Project_ATCS_Decorder_Module.c: 118:                     EECON1 = 0x01;
  3450     03FD  3001               	movlw	1
  3451     03FE  0095               	movwf	21	;volsfr
  3452     03FF                     i1l189:	
  3453                           ;Project_ATCS_Decorder_Module.c: 119:                     while (EECON1bits.RD);
  3454                           
  3455     03FF  1815               	btfsc	21,0	;volsfr
  3456     0400  2C02               	goto	u93_21
  3457     0401  2C03               	goto	u93_20
  3458     0402                     u93_21:
  3459     0402  2BFF               	goto	i1l189
  3460     0403                     u93_20:
  3461     0403                     i1l1697:
  3462                           
  3463                           ;Project_ATCS_Decorder_Module.c: 120:                     EE_STORE.EE_DATA[COUNT] = EEDA
      +                          T;
  3464     0403  3574               	lslf	i1EEPROM_SELECT@COUNT,w
  3465     0404  3E50               	addlw	(low ((_EE_STORE| 0+4)))& (0+255)
  3466     0405  0086               	movwf	6
  3467     0406  0187               	clrf	7
  3468     0407  0813               	movf	19,w	;volatile
  3469     0408  3FC0               	movwi [0]fsr1
  3470     0409  0814               	movf	20,w	;volatile
  3471     040A  3FC1               	movwi [1]fsr1
  3472                           
  3473                           ;Project_ATCS_Decorder_Module.c: 121:                     if (EEDAT != EE_STORE.EE_DATA[
      +                          COUNT]) {
  3474     040B  3574               	lslf	i1EEPROM_SELECT@COUNT,w
  3475     040C  3E50               	addlw	(low ((_EE_STORE| 0+4)))& (0+255)
  3476     040D  0086               	movwf	6
  3477     040E  0187               	clrf	7
  3478     040F  3F40               	moviw [0]fsr1
  3479     0410  00F0               	movwf	??i1_EEPROM_SELECT
  3480     0411  3F41               	moviw [1]fsr1
  3481     0412  00F1               	movwf	??i1_EEPROM_SELECT+1
  3482     0413  0814               	movf	20,w	;volatile
  3483     0414  0671               	xorwf	??i1_EEPROM_SELECT+1,w
  3484     0415  1D03               	skipz
  3485     0416  2C19               	goto	u94_25
  3486     0417  0813               	movf	19,w	;volatile
  3487     0418  0670               	xorwf	??i1_EEPROM_SELECT,w
  3488     0419                     u94_25:
  3489     0419  1903               	skipnz
  3490     041A  2C1C               	goto	u94_21
  3491     041B  2C1D               	goto	u94_20
  3492     041C                     u94_21:
  3493     041C  2C24               	goto	i1l1701
  3494     041D                     u94_20:
  3495     041D                     i1l1699:
  3496                           
  3497                           ;Project_ATCS_Decorder_Module.c: 122:                         EE_STORE.EE_REPORT[COUNT] 
      +                          = 0xFF;
  3498     041D  0874               	movf	i1EEPROM_SELECT@COUNT,w
  3499     041E  3E58               	addlw	(low ((_EE_STORE| 0+12)))& (0+255)
  3500     041F  0086               	movwf	6
  3501     0420  0187               	clrf	7
  3502     0421  30FF               	movlw	255
  3503     0422  0081               	movwf	1
  3504                           
  3505                           ;Project_ATCS_Decorder_Module.c: 123:                     } else {
  3506     0423  2C5F               	goto	i1l160
  3507     0424                     i1l1701:
  3508                           
  3509                           ;Project_ATCS_Decorder_Module.c: 124:                         EE_STORE.EE_REPORT[COUNT] 
      +                          = 0x00;
  3510     0424  0874               	movf	i1EEPROM_SELECT@COUNT,w
  3511     0425  3E58               	addlw	(low ((_EE_STORE| 0+12)))& (0+255)
  3512     0426  0086               	movwf	6
  3513     0427  0187               	clrf	7
  3514     0428  0181               	clrf	1
  3515     0429  2C5F               	goto	i1l160
  3516     042A                     i1l1705:
  3517                           
  3518                           ;Project_ATCS_Decorder_Module.c: 128:                 COUNT++;
  3519     042A  3001               	movlw	1
  3520     042B  00F0               	movwf	??i1_EEPROM_SELECT
  3521     042C  0870               	movf	??i1_EEPROM_SELECT,w
  3522     042D  07F4               	addwf	i1EEPROM_SELECT@COUNT,f
  3523     042E                     i1l1707:
  3524                           
  3525                           ;Project_ATCS_Decorder_Module.c: 129:                 EEADR = EE_STORE.EE_ADRS++;
  3526     042E  084F               	movf	_EE_STORE+3,w
  3527     042F  0023               	movlb	3	; select bank3
  3528     0430  0092               	movwf	18	;volatile
  3529     0431  0020               	movlb	0	; select bank0
  3530     0432  084E               	movf	_EE_STORE+2,w
  3531     0433  0023               	movlb	3	; select bank3
  3532     0434  0091               	movwf	17	;volatile
  3533     0435                     i1l1709:
  3534     0435  3001               	movlw	1
  3535     0436  0020               	movlb	0	; select bank0
  3536     0437  07CE               	addwf	_EE_STORE+2,f
  3537     0438  3000               	movlw	0
  3538     0439  3DCF               	addwfc	_EE_STORE+3,f
  3539     043A                     i1l1711:
  3540                           
  3541                           ;Project_ATCS_Decorder_Module.c: 130:             }while(COUNT < 4);
  3542     043A  3004               	movlw	4
  3543     043B  0274               	subwf	i1EEPROM_SELECT@COUNT,w
  3544     043C  1C03               	skipc
  3545     043D  2C3F               	goto	u95_21
  3546     043E  2C40               	goto	u95_20
  3547     043F                     u95_21:
  3548     043F  2BED               	goto	i1l1693
  3549     0440                     u95_20:
  3550     0440                     i1l194:
  3551                           
  3552                           ;Project_ATCS_Decorder_Module.c: 131:             INTCONbits.GIE = 1;
  3553     0440  178B               	bsf	11,7	;volatile
  3554                           
  3555                           ;Project_ATCS_Decorder_Module.c: 132:             return;
  3556     0441  2C5F               	goto	i1l160
  3557     0442                     i1l1715:
  3558     0442  0020               	movlb	0	; select bank0
  3559     0443  084C               	movf	_EE_STORE,w
  3560     0444  00F0               	movwf	??i1_EEPROM_SELECT
  3561     0445  01F1               	clrf	??i1_EEPROM_SELECT+1
  3562                           
  3563                           ; Switch on 2 bytes has been partitioned into a top level switch of size 1, and 1 sub-sw
      +                          itches
  3564                           ; Switch size 1, requested type "simple"
  3565                           ; Number of cases is 1, Range of values is 0 to 0
  3566                           ; switch strategies available:
  3567                           ; Name         Instructions Cycles
  3568                           ; simple_byte            4     3 (average)
  3569                           ; direct_byte            8     6 (fixed)
  3570                           ; jumptable            260     6 (fixed)
  3571                           ;	Chosen strategy is simple_byte
  3572     0446  0871               	movf	??i1_EEPROM_SELECT+1,w
  3573     0447  3A00               	xorlw	0	; case 0
  3574     0448  1903               	skipnz
  3575     0449  2C4B               	goto	i1l1985
  3576     044A  2C5F               	goto	i1l160
  3577     044B                     i1l1985:
  3578                           
  3579                           ; Switch size 1, requested type "simple"
  3580                           ; Number of cases is 6, Range of values is 0 to 5
  3581                           ; switch strategies available:
  3582                           ; Name         Instructions Cycles
  3583                           ; direct_byte           18     6 (fixed)
  3584                           ; simple_byte           19    10 (average)
  3585                           ; jumptable            260     6 (fixed)
  3586                           ;	Chosen strategy is simple_byte
  3587     044B  0870               	movf	??i1_EEPROM_SELECT,w
  3588     044C  3A00               	xorlw	0	; case 0
  3589     044D  1903               	skipnz
  3590     044E  2AB8               	goto	i1l1583
  3591     044F  3A01               	xorlw	1	; case 1
  3592     0450  1903               	skipnz
  3593     0451  2AF6               	goto	i1l1601
  3594     0452  3A03               	xorlw	3	; case 2
  3595     0453  1903               	skipnz
  3596     0454  2B29               	goto	i1l169
  3597     0455  3A01               	xorlw	1	; case 3
  3598     0456  1903               	skipnz
  3599     0457  2B6C               	goto	i1l173
  3600     0458  3A07               	xorlw	7	; case 4
  3601     0459  1903               	skipnz
  3602     045A  2BB2               	goto	i1l1663
  3603     045B  3A01               	xorlw	1	; case 5
  3604     045C  1903               	skipnz
  3605     045D  2BED               	goto	i1l1693
  3606     045E  2C5F               	goto	i1l160
  3607     045F                     i1l160:
  3608     045F  0008               	return
  3609     0460                     __end_ofi1_EEPROM_SELECT:
  3610     007E                     btemp	set	126	;btemp
  3611     007E                     int$flags	set	126
  3612     007E                     wtemp0	set	126
  3613                           
  3614                           	psect	idloc
  3615                           
  3616                           ;Config register IDLOC0 @ 0x8000
  3617                           ;	unspecified, using default values
  3618     8000                     	org	32768
  3619     8000  3FFF               	dw	16383
  3620                           
  3621                           ;Config register IDLOC1 @ 0x8001
  3622                           ;	unspecified, using default values
  3623     8001                     	org	32769
  3624     8001  3FFF               	dw	16383
  3625                           
  3626                           ;Config register IDLOC2 @ 0x8002
  3627                           ;	unspecified, using default values
  3628     8002                     	org	32770
  3629     8002  3FFF               	dw	16383
  3630                           
  3631                           ;Config register IDLOC3 @ 0x8003
  3632                           ;	unspecified, using default values
  3633     8003                     	org	32771
  3634     8003  3FFF               	dw	16383
  3635                           
  3636                           	psect	config
  3637                           
  3638                           ;Config register CONFIG1 @ 0x8007
  3639                           ;	Oscillator Selection
  3640                           ;	FOSC = INTOSC, INTOSC oscillator: I/O function on CLKIN pin
  3641                           ;	Watchdog Timer Enable
  3642                           ;	WDTE = OFF, WDT disabled
  3643                           ;	Power-up Timer Enable
  3644                           ;	PWRTE = ON, PWRT enabled
  3645                           ;	MCLR Pin Function Select
  3646                           ;	MCLRE = OFF, MCLR/VPP pin function is digital input
  3647                           ;	Flash Program Memory Code Protection
  3648                           ;	CP = OFF, Program memory code protection is disabled
  3649                           ;	Data Memory Code Protection
  3650                           ;	CPD = OFF, Data memory code protection is disabled
  3651                           ;	Brown-out Reset Enable
  3652                           ;	BOREN = ON, Brown-out Reset enabled
  3653                           ;	Clock Out Enable
  3654                           ;	CLKOUTEN = OFF, CLKOUT function is disabled. I/O or oscillator function on the CLKOUT 
      +                          pin
  3655                           ;	Internal/External Switchover
  3656                           ;	IESO = OFF, Internal/External Switchover mode is disabled
  3657                           ;	Fail-Safe Clock Monitor Enable
  3658                           ;	FCMEN = OFF, Fail-Safe Clock Monitor is disabled
  3659     8007                     	org	32775
  3660     8007  0F84               	dw	3972
  3661                           
  3662                           ;Config register CONFIG2 @ 0x8008
  3663                           ;	Flash Memory Self-Write Protection
  3664                           ;	WRT = OFF, Write protection off
  3665                           ;	PLL Enable
  3666                           ;	PLLEN = OFF, 4x PLL disabled
  3667                           ;	Stack Overflow/Underflow Reset Enable
  3668                           ;	STVREN = ON, Stack Overflow or Underflow will cause a Reset
  3669                           ;	Brown-out Reset Voltage Selection
  3670                           ;	BORV = HI, Brown-out Reset Voltage (Vbor), high trip point selected.
  3671                           ;	Low-Voltage Programming Enable
  3672                           ;	LVP = OFF, High-voltage on MCLR/VPP must be used for programming
  3673     8008                     	org	32776
  3674     8008  1AFF               	dw	6911

Data Sizes:
    Strings     0
    Constant    69
    Data        16
    BSS         4
    Persistent  32
    Stack       0

Auto Spaces:
    Space          Size  Autos    Used
    COMMON           14      8      10
    BANK0            80     44      62

Pointer List with Targets:

    CONFIG_SET@P_RANGE	PTR unsigned char  size(1) Largest target is 1
		 -> main@DCC_PACKET_RANGE(BANK0[1]), 

    CONFIG_SET@DATA	PTR unsigned char  size(1) Largest target is 32
		 -> main@BYPASS(BANK0[32]), 

    FUNC_SET@P_RANGE	PTR unsigned char  size(1) Largest target is 1
		 -> main@DCC_PACKET_RANGE(BANK0[1]), 

    FUNC_SET@DATA	PTR unsigned char  size(1) Largest target is 32
		 -> main@BYPASS(BANK0[32]), 

    PWM_SET@P_RANGE	PTR unsigned char  size(1) Largest target is 1
		 -> main@DCC_PACKET_RANGE(BANK0[1]), 

    PWM_SET@DATA	PTR unsigned char  size(1) Largest target is 32
		 -> main@BYPASS(BANK0[32]), 

    DEC_SET@P_RANGE	PTR unsigned char  size(1) Largest target is 1
		 -> main@DCC_PACKET_RANGE(BANK0[1]), 

    DEC_SET@DATA	PTR unsigned char  size(1) Largest target is 32
		 -> main@BYPASS(BANK0[32]), 

    PACKET_CONTROL@P_RANGE	PTR unsigned char  size(1) Largest target is 1
		 -> main@DCC_PACKET_RANGE(BANK0[1]), 

    PACKET_CONTROL@DATA	PTR unsigned char  size(1) Largest target is 32
		 -> main@BYPASS(BANK0[32]), 


Critical Paths under _main in COMMON

    None.

Critical Paths under _isr in COMMON

    _isr->i1_EEPROM_SELECT

Critical Paths under _main in BANK0

    _main->_PACKET_CONTROL
    _PACKET_CONTROL->_CONFIG_SET
    _PACKET_CONTROL->_DEC_SET
    _PACKET_CONTROL->_FUNC_SET
    _PACKET_CONTROL->_PWM_SET

Critical Paths under _isr in BANK0

    None.

Call Graph Tables:

 ---------------------------------------------------------------------------------
 (Depth) Function   	        Calls       Base Space   Used Autos Params    Refs
 ---------------------------------------------------------------------------------
 (0) _main                                                38    38      0    2394
                                              7 BANK0     37    37      0
                      _EEPROM_SELECT
                     _PACKET_CONTROL
 ---------------------------------------------------------------------------------
 (1) _PACKET_CONTROL                                       5     4      1    1430
                                              2 BANK0      5     4      1
                         _CONFIG_SET
                            _DEC_SET
                           _FUNC_SET
                            _PWM_SET
 ---------------------------------------------------------------------------------
 (2) _PWM_SET                                              2     1      1     252
                                              0 BANK0      2     1      1
 ---------------------------------------------------------------------------------
 (2) _FUNC_SET                                             2     1      1     252
                                              0 BANK0      2     1      1
 ---------------------------------------------------------------------------------
 (2) _DEC_SET                                              2     1      1     252
                                              0 BANK0      2     1      1
 ---------------------------------------------------------------------------------
 (2) _CONFIG_SET                                           2     1      1     126
                                              0 BANK0      2     1      1
 ---------------------------------------------------------------------------------
 (1) _EEPROM_SELECT                                        5     5      0     579
                                              0 BANK0      5     5      0
 ---------------------------------------------------------------------------------
 Estimated maximum stack depth 2
 ---------------------------------------------------------------------------------
 (Depth) Function   	        Calls       Base Space   Used Autos Params    Refs
 ---------------------------------------------------------------------------------
 (3) _isr                                                  3     3      0     757
                                              5 COMMON     3     3      0
                    i1_EEPROM_SELECT
 ---------------------------------------------------------------------------------
 (4) i1_EEPROM_SELECT                                      5     5      0     579
                                              0 COMMON     5     5      0
 ---------------------------------------------------------------------------------
 Estimated maximum stack depth 4
 ---------------------------------------------------------------------------------

 Call Graph Graphs:

 _main (ROOT)
   _EEPROM_SELECT
   _PACKET_CONTROL
     _CONFIG_SET
     _DEC_SET
     _FUNC_SET
     _PWM_SET

 _isr (ROOT)
   i1_EEPROM_SELECT

 Address spaces:
Name               Size   Autos  Total    Cost      Usage
BIGRAM              70      0       0       0        0.0%
EEDATA             100      0       0       0        0.0%
NULL                 0      0       0       0        0.0%
CODE                 0      0       0       0        0.0%
BITCOMMON            E      0       0       1        0.0%
BITSFR0              0      0       0       1        0.0%
SFR0                 0      0       0       1        0.0%
COMMON               E      8       A       2       71.4%
BITSFR1              0      0       0       2        0.0%
SFR1                 0      0       0       2        0.0%
BITSFR2              0      0       0       3        0.0%
SFR2                 0      0       0       3        0.0%
STACK                0      0       0       3        0.0%
BITSFR3              0      0       0       4        0.0%
SFR3                 0      0       0       4        0.0%
ABS                  0      0      48       4        0.0%
BITBANK0            50      0       0       5        0.0%
BITSFR4              0      0       0       5        0.0%
SFR4                 0      0       0       5        0.0%
BANK0               50     2C      3E       6       77.5%
BITSFR5              0      0       0       6        0.0%
SFR5                 0      0       0       6        0.0%
BITSFR6              0      0       0       7        0.0%
SFR6                 0      0       0       7        0.0%
DATA                 0      0      48       7        0.0%
BITSFR7              0      0       0       8        0.0%
SFR7                 0      0       0       8        0.0%
BITSFR8              0      0       0       9        0.0%
SFR8                 0      0       0       9        0.0%
BITSFR9              0      0       0      10        0.0%
SFR9                 0      0       0      10        0.0%
BITSFR10             0      0       0      11        0.0%
SFR10                0      0       0      11        0.0%
BITSFR11             0      0       0      12        0.0%
SFR11                0      0       0      12        0.0%
BITSFR12             0      0       0      13        0.0%
SFR12                0      0       0      13        0.0%
BITSFR13             0      0       0      14        0.0%
SFR13                0      0       0      14        0.0%
BITSFR14             0      0       0      15        0.0%
SFR14                0      0       0      15        0.0%
BITSFR15             0      0       0      16        0.0%
SFR15                0      0       0      16        0.0%
BITSFR16             0      0       0      17        0.0%
SFR16                0      0       0      17        0.0%
BITSFR17             0      0       0      18        0.0%
SFR17                0      0       0      18        0.0%
BITSFR18             0      0       0      19        0.0%
SFR18                0      0       0      19        0.0%
BITSFR19             0      0       0      20        0.0%
SFR19                0      0       0      20        0.0%
BITSFR20             0      0       0      21        0.0%
SFR20                0      0       0      21        0.0%
BITSFR21             0      0       0      22        0.0%
SFR21                0      0       0      22        0.0%
BITSFR22             0      0       0      23        0.0%
SFR22                0      0       0      23        0.0%
BITSFR23             0      0       0      24        0.0%
SFR23                0      0       0      24        0.0%
BITSFR24             0      0       0      25        0.0%
SFR24                0      0       0      25        0.0%
BITSFR25             0      0       0      26        0.0%
SFR25                0      0       0      26        0.0%
BITSFR26             0      0       0      27        0.0%
SFR26                0      0       0      27        0.0%
BITSFR27             0      0       0      28        0.0%
SFR27                0      0       0      28        0.0%
BITSFR28             0      0       0      29        0.0%
SFR28                0      0       0      29        0.0%
BITSFR29             0      0       0      30        0.0%
SFR29                0      0       0      30        0.0%
BITSFR30             0      0       0      31        0.0%
SFR30                0      0       0      31        0.0%
BITSFR31             0      0       0      32        0.0%
SFR31                0      0       0      32        0.0%


Microchip Technology PIC Macro Assembler V2.40 build 20220703182018 
Symbol Table                                                                                   Fri Dec 15 01:23:35 2023

                     l59 0505                      l201 0577                      l202 0515  
                    l203 051D                      l212 05D5                      l221 05D6  
                    l206 053B                      l215 05D3                      l207 0543  
                    l160 02B4                      l218 05D4                      l181 01FD  
                    l173 01B5                      l165 0150                      l157 010E  
                    l176 01C8                      l168 016E                      l185 023A  
                    l169 0170                      l194 0296                      l189 024E  
                    _PR2 001B                      u600 0112                      u601 0111  
                    u610 013A                      u611 0139                      u700 01FD  
                    u620 0144                      u701 01FC                      u621 0143  
                    u710 0208                      u630 0154                      u711 0207  
                    u631 0153                      u720 023A                      u640 016E  
                    u721 0239                      u641 016D                      u730 0245  
                    u650 017E                      u731 0244                      u651 017D  
                    u740 0252                      u660 01A5                      u741 0251  
                    u661 01A4                      u750 0273                      u670 01BF  
                    u590 0103                      u751 0272                      u671 01BE  
                    u591 0102                      u760 0296                      u680 01CC  
                    u761 0295                      u681 01CB                      u690 01E3  
                    u755 026F                      u691 01E2                      u695 01DF  
                    u775 0552                      u960 0492                      u961 0491  
                    u970 04AC                      u971 04AB                      u980 04B2  
                    u981 04B1                      u990 04CA                      u991 04C9  
                    _isr 0004                      wreg 0009          __end_of_DEC_SET 05D6  
                   l1411 013B                     l1403 0124                     l1501 0234  
                   l1421 0168                     l1413 0144                     l1405 0128  
                   l1511 027A                     l1503 023C                     l1431 018F  
                   l1423 0171                     l1415 014F                     l1407 012F  
                   l1521 0290                     l1505 0245                     l1441 019B  
                   l1433 0191                     l1425 0175                     l1417 0154  
                   l1409 0134                     l1507 0252                     l1515 0280  
                   l1451 01B2                     l1443 019F                     l1435 0193  
                   l1427 017E                     l1419 0164                     l1517 0284  
                   l1509 0273                     l1461 01CC                     l1453 01B3  
                   l1445 01A5                     l1437 0195                     l1429 0185  
                   l1525 0298                     l1541 0516                     l1533 0509  
                   l1519 028B                     l1471 01F7                     l1463 01E3  
                   l1447 01B0                     l1439 0196                     l1391 00F7  
                   l1551 0529                     l1535 050A                     l1481 021B  
                   l1473 01FF                     l1465 01EA                     l1457 01B6  
                   l1449 01B1                     l1393 00FA                     l1561 053C  
                   l1545 051E                     l1537 050E                     l1801 04FE  
                   l1491 0222                     l1483 021D                     l1475 0208  
                   l1459 01BF                     l1467 01EF                     l1395 0103  
                   l1555 0530                     l1571 054C                     l1731 046D  
                   l1723 0460                     l1485 021F                     l1477 020F  
                   l1469 01F3                     l1397 0112                     l1389 00F6  
                   l1565 0545                     l1557 0534                     l1549 0525  
                   l1741 047A                     l1733 046F                     l1725 0463  
                   l1487 0220                     l1479 0219                     l1495 0224  
                   l1399 011C                     l1751 0488                     l1743 047D  
                   l1735 0472                     l1727 0465                     l1497 0228  
                   l1489 0221                     l1761 0494                     l1753 048A  
                   l1745 047F                     l1737 0475                     l1729 046A  
                   l1499 022F                     l1771 04AC                     l1763 0498  
                   l1755 048D                     l1747 0482                     l1739 0477  
                   l1781 04C4                     l1773 04B2                     l1765 049B  
                   l1757 0492                     l1749 0485                     l1791 04E6  
                   l1783 04CA                     l1775 04B6                     l1767 049D  
                   l1759 0492                     l1793 04E9                     l1785 04D4  
                   l1777 04B9                     l1769 04A7                     l1795 04EB  
                   l1787 04D9                     l1779 04C0                     l1981 055D  
                   l1797 04ED                     l1789 04E0                     l1983 02A0  
                   l1799 04F0                     ?_isr 0070                     _DATA 0079  
                   u1000 04D4                     u1001 04D3                     u1010 04D9  
                   u1011 04D8                     u1020 04E6                     u1021 04E5  
                   u1030 04FE                     u1031 04FD                     u1035 04FA  
                   _PIE1 0091                     _PIE2 0092                     _PIR1 0011  
                   i1l97 00BD                     i1l98 004F                     _TMR1 0016  
                   _STCR 005C                     _main 0460                     fsr0h 0005  
                   fsr1h 0007                     indf0 0000                     fsr0l 0004  
                   indf1 0001                     fsr1l 0006                     btemp 007E  
        __end_of_PWM_SET 05D4         __end_of_DCC_ADRS 05D3                     start 00E2  
         CONFIG_SET@DATA 0021       EEPROM_SELECT@COUNT 0024                    ??_isr 0075  
       __end_of_FUNC_SET 05D5                    ?_main 0070                    _EEADR 0191  
                  _EEDAT 0193                    _T1CON 0018                    _T2CON 001C  
                  _IOCAF 0393                    _IOCAP 0391                    i1l105 00BC  
                  i1l124 00E0                    i1l118 00C7                    i1l160 045F  
                  i1l181 03B0                    i1l173 036C                    i1l165 030B  
                  i1l157 02CC                    i1l176 037F                    i1l168 0327  
                  i1l185 03EB                    i1l169 0329                    i1l194 0440  
                  i1l189 03FF                    _STACK 00A0                    _PORTA 000C  
                  u80_20 02F5                    u80_21 02F4                    u81_20 02FF  
                  u81_21 02FE                    _TRISA 008C                    u90_20 03BB  
                  u82_20 030F                    u90_21 03BA                    u82_21 030E  
                  u91_20 03EB                    u83_20 0327                    u91_21 03EA  
                  u83_21 0326                    u92_20 03F6                    u84_20 0337  
                  u92_21 03F5                    u84_21 0336                    u93_20 0403  
                  u85_20 035C                    u93_21 0402                    u85_21 035B  
                  u94_20 041D                    u86_20 0376                    u78_20 02C1  
                  u94_21 041C                    u86_21 0375                    u78_21 02C0  
                  u94_25 0419                    u95_20 0440                    u87_20 0383  
                  u79_20 02D0                    u95_21 043F                    u87_21 0382  
                  u79_21 02CF                    u88_20 0395                    u88_21 0394  
                  u88_25 0391                    u89_20 03B0                    u89_21 03AF  
       __end_of_PWM_DATA 05B8                    status 0003                    wtemp0 007E  
  __end_of_EEPROM_SELECT 02B5          __initialization 00E3             __end_of_main 0507  
              ??_DEC_SET 0021                   ??_main 0027           DEC_SET@P_RANGE 0020  
                 _CCPR1L 0291                   _EECON1 0195                   _EECON2 0196  
              ??_PWM_SET 0021                   _APFCON 011D       PACKET_CONTROL@DATA 0026  
                 _ANSELA 018C         ??_PACKET_CONTROL 0023                   u110_20 0040  
                 u110_21 003F                   u111_20 0046                   u111_21 0045  
                 u120_20 0095                   u112_20 0053                   u104_20 000A  
                 i1l1601 02F6                   u120_21 0094                   u112_21 0052  
                 u104_21 0009                   i1l1611 0321                   i1l1603 02FF  
                 i1l1701 0424                   i1l1621 0346                   i1l1613 032A  
                 i1l1605 030A                   i1l1711 043A                   i1l1631 0351  
                 i1l1623 0348                   i1l1615 032E                   i1l1607 030F  
                 u121_20 0099                   u113_20 0059                   u105_20 0018  
                 i1l1705 042A                   i1l1641 0369                   i1l1633 0356  
                 i1l1625 034A                   i1l1617 0337                   i1l1609 031C  
                 u121_21 0098                   u113_21 0058                   u105_21 0017  
                 i1l1707 042E                   i1l1651 0383                   i1l1643 036A  
                 i1l1635 035C                   i1l1627 034C                   i1l1619 033E  
                 i1l1715 0442                   i1l1811 0011                   i1l1803 0006  
                 i1l1709 0435                   i1l1661 03AA                   i1l1653 0395  
                 i1l1637 0367                   i1l1629 034D                   i1l1581 02B6  
                 i1l1821 002E                   i1l1813 0013                   i1l1805 0006  
                 i1l1671 03CC                   i1l1663 03B2                   i1l1655 039C  
                 i1l1647 036D                   i1l1639 0368                   i1l1583 02B8  
                 i1l1831 004C                   i1l1823 0033                   i1l1815 0018  
                 i1l1807 000A                   u122_20 00AC                   u114_20 0062  
                 u106_20 0021                   i1l1681 03D3                   i1l1673 03CE  
                 i1l1665 03BB                   i1l1649 0376                   i1l1657 03A1  
                 i1l1585 02C1                   i1l1593 02DF                   u122_21 00AB  
                 i1l1841 006B                   u114_21 0061                   i1l1833 004D  
                 i1l1825 003C                   i1l1817 0021                   u106_21 0020  
                 i1l1809 000F                   i1l1691 03E5                   i1l1675 03D0  
                 i1l1667 03C2                   i1l1659 03A5                   i1l1595 02E3  
                 i1l1587 02D0                   i1l1579 02B5                   i1l1843 006F  
                 i1l1851 0083                   i1l1835 0053                   i1l1827 0040  
                 i1l1819 002A                   i1l1693 03ED                   i1l1677 03D1  
                 i1l1669 03CA                   i1l1685 03D5                   i1l1597 02EA  
                 i1l1589 02D8                   i1l1861 00A2                   i1l1853 008C  
                 i1l1845 0072                   i1l1837 0059                   i1l1829 0046  
                 i1l1695 03F6                   i1l1687 03D9                   i1l1679 03D2  
                 i1l1599 02EF                   i1l1871 00B6                   i1l1855 0095  
                 i1l1863 00A6                   i1l1847 007B                   i1l1839 0062  
                 u123_20 00C2                   u115_20 006B                   u107_20 002A  
                 i1l1697 0403                   i1l1689 03E0                   i1l1881 00CC  
                 u123_21 00C1                   i1l1865 00AC                   i1l1873 00BA  
                 i1l1857 0099                   i1l1849 007F                   u115_21 006A  
                 u107_21 0029                   i1l1699 041D                   i1l1883 00D2  
                 i1l1875 00C2                   i1l1867 00AD                   i1l1859 009F  
                 i1l1885 00D5                   i1l1877 00C3                   i1l1869 00B3  
                 i1l1887 00DB                   i1l1879 00CB                   u124_20 00CB  
                 u116_20 006F                   u108_20 002E                   i1l1985 044B  
                 i1l1889 00DD                   u124_21 00CA                   u116_21 006E  
                 u108_21 002D                   u125_20 00D2                   u117_20 007B  
                 u109_20 003C                   u125_21 00D1                   u117_21 007A  
                 u109_21 003B                   u126_20 00DB                   u118_20 007F  
                 u126_21 00DA                   u118_21 007E                   u119_20 008C  
                 u119_21 008B                   _INTCON 000B                   _OSCCON 0099  
 i1EEPROM_SELECT@EE_SAVE 0072             ??_CONFIG_SET 0021             FUNC_SET@DATA 0021  
__end_of__initialization 00F3                ?_FUNC_SET 0020           __pcstackCOMMON 0070  
     __end_of_CONFIG_SET 05D7             __pidataBANK0 05B8     main@DCC_PACKET_RANGE 004B  
   EEPROM_SELECT@EE_SAVE 0022               __pbssBANK0 005C               ??_FUNC_SET 0021  
             __pmaintext 0460               __pintentry 0004                  _CCP1CON 0293  
                _DEC_SET 05D5                  _COUNTER 0078                  _PWM_SET 05D3  
                __ptext1 0507                  __ptext2 05D3                  __ptext3 05D4  
                __ptext4 05D5                  __ptext5 05D6                  __ptext6 00F6  
                __ptext8 02B5    PACKET_CONTROL@P_RANGE 0022     end_of_initialization 00F3  
                init_ram 05C8                  initloop 05C9               main@PACKET 0049  
             main@BYPASS 0029        ??i1_EEPROM_SELECT 0070        CONFIG_SET@P_RANGE 0020  
         PWM_SET@P_RANGE 0020      start_initialization 00E3              PWM_SET@DATA 0021  
            __end_of_isr 00E2            _EEPROM_SELECT 00F6              __pdataBANK0 004C  
               ?_DEC_SET 0020              __pbssCOMMON 0078                ___latbits 0000  
          __pcstackBANK0 0020                 ?_PWM_SET 0020           ?_EEPROM_SELECT 0070  
               _DCC_ADRS 05CE                 _COM_FLAG 005D                 _EE_STORE 004C  
               _FUNC_SET 05D4                 _PIR1bits 0011                 _PIR2bits 0012  
               _PSTR1CON 0296                 _PWM_DATA 0578          i1_EEPROM_SELECT 02B5  
              main@count 004A              DEC_SET@DATA 0021          ??_EEPROM_SELECT 0020  
             _EECON1bits 0195           _PACKET_CONTROL 0507     i1EEPROM_SELECT@COUNT 0074  
             _CONFIG_SET 05D6   __end_of_PACKET_CONTROL 0578  __end_ofi1_EEPROM_SELECT 0460  
               int$flags 007E                 isr@COUNT 0076               _INTCONbits 000B  
        FUNC_SET@P_RANGE 0020                 intlevel1 0000          ?_PACKET_CONTROL 0022  
          __pstringtext1 0578            __pstringtext2 05CE              ?_CONFIG_SET 0020  
       ?i1_EEPROM_SELECT 0070  
