

Microchip MPLAB XC8 Assembler V2.40 build 20220703182018 
                                                                                               Tue Dec 05 03:22:20 2023

Microchip MPLAB XC8 C Compiler v2.40 (Free license) build 20220703182018 Og1 
     1                           	processor	12F1822
     2                           	pagewidth 120
     3                           	opt	flic
     4                           	psect	cinit,global,class=CODE,merge=1,delta=2
     5                           	psect	bssCOMMON,global,class=COMMON,space=1,delta=1,noexec
     6                           	psect	cstackCOMMON,global,class=COMMON,space=1,delta=1,noexec
     7                           	psect	maintext,global,class=CODE,merge=1,split=1,delta=2
     8                           	psect	intentry,global,class=CODE,delta=2
     9                           	psect	idloc,global,abs,ovrld,class=IDLOC,space=5,delta=2,noexec
    10                           	psect	config,global,abs,ovrld,class=CONFIG,space=4,delta=2,noexec
    11                           	dabs	1,0x7E,2
    12     0000                     
    13                           ; Version 2.40
    14                           ; Generated 17/11/2021 GMT
    15                           ; 
    16                           ; Copyright © 2021, Microchip Technology Inc. and its subsidiaries ("Microchip")
    17                           ; All rights reserved.
    18                           ; 
    19                           ; This software is developed by Microchip Technology Inc. and its subsidiaries ("Microch
      +                          ip").
    20                           ; 
    21                           ; Redistribution and use in source and binary forms, with or without modification, are
    22                           ; permitted provided that the following conditions are met:
    23                           ; 
    24                           ;     1. Redistributions of source code must retain the above copyright notice, this lis
      +                          t of
    25                           ;        conditions and the following disclaimer.
    26                           ; 
    27                           ;     2. Redistributions in binary form must reproduce the above copyright notice, this 
      +                          list
    28                           ;        of conditions and the following disclaimer in the documentation and/or other
    29                           ;        materials provided with the distribution. Publication is not required when
    30                           ;        this file is used in an embedded application.
    31                           ; 
    32                           ;     3. Microchip's name may not be used to endorse or promote products derived from th
      +                          is
    33                           ;        software without specific prior written permission.
    34                           ; 
    35                           ; THIS SOFTWARE IS PROVIDED BY MICROCHIP "AS IS" AND ANY EXPRESS OR IMPLIED WARRANTIES,
    36                           ; INCLUDING, BUT NOT LIMITED TO, THE IMPLIED WARRANTIES OF MERCHANTABILITY AND FITNESS F
      +                          OR
    37                           ; PURPOSE ARE DISCLAIMED.  IN NO EVENT SHALL MICROCHIP BE LIABLE FOR ANY DIRECT, INDIREC
      +                          T,
    38                           ; INCIDENTAL, SPECIAL, EXEMPLARY, OR CONSEQUENTIAL DAMAGES (INCLUDING BUT NOT LIMITED TO
    39                           ; PROCUREMENT OF SUBSTITUTE GOODS OR SERVICES; LOSS OF USE, DATA OR PROFITS; OR BUSINESS
    40                           ; INTERRUPTION) HOWSOEVER CAUSED AND ON ANY THEORY OF LIABILITY, WHETHER IN CONTRACT, ST
      +                          RICT
    41                           ; LIABILITY, OR TORT (INCLUDING NEGLIGENCE OR OTHERWISE) ARISING IN ANY WAY OUT OF THE U
      +                          SE OF
    42                           ; THIS SOFTWARE, EVEN IF ADVISED OF THE POSSIBILITY OF SUCH DAMAGE.
    43                           ; 
    44                           ; 
    45                           ; Code-generator required, PIC12F1822 Definitions
    46                           ; 
    47                           ; SFR Addresses
    48     0000                     	;# 
    49     0001                     	;# 
    50     0002                     	;# 
    51     0003                     	;# 
    52     0004                     	;# 
    53     0005                     	;# 
    54     0006                     	;# 
    55     0007                     	;# 
    56     0008                     	;# 
    57     0009                     	;# 
    58     000A                     	;# 
    59     000B                     	;# 
    60     000C                     	;# 
    61     0011                     	;# 
    62     0012                     	;# 
    63     0015                     	;# 
    64     0016                     	;# 
    65     0016                     	;# 
    66     0017                     	;# 
    67     0018                     	;# 
    68     0019                     	;# 
    69     001A                     	;# 
    70     001B                     	;# 
    71     001C                     	;# 
    72     001E                     	;# 
    73     001F                     	;# 
    74     008C                     	;# 
    75     0091                     	;# 
    76     0092                     	;# 
    77     0095                     	;# 
    78     0096                     	;# 
    79     0097                     	;# 
    80     0098                     	;# 
    81     0099                     	;# 
    82     009A                     	;# 
    83     009B                     	;# 
    84     009B                     	;# 
    85     009C                     	;# 
    86     009D                     	;# 
    87     009E                     	;# 
    88     010C                     	;# 
    89     0111                     	;# 
    90     0112                     	;# 
    91     0115                     	;# 
    92     0116                     	;# 
    93     0117                     	;# 
    94     0118                     	;# 
    95     0119                     	;# 
    96     011A                     	;# 
    97     011B                     	;# 
    98     011D                     	;# 
    99     011D                     	;# 
   100     018C                     	;# 
   101     0191                     	;# 
   102     0191                     	;# 
   103     0192                     	;# 
   104     0193                     	;# 
   105     0193                     	;# 
   106     0193                     	;# 
   107     0194                     	;# 
   108     0195                     	;# 
   109     0196                     	;# 
   110     0199                     	;# 
   111     019A                     	;# 
   112     019B                     	;# 
   113     019B                     	;# 
   114     019B                     	;# 
   115     019B                     	;# 
   116     019C                     	;# 
   117     019C                     	;# 
   118     019D                     	;# 
   119     019E                     	;# 
   120     019F                     	;# 
   121     020C                     	;# 
   122     0211                     	;# 
   123     0211                     	;# 
   124     0212                     	;# 
   125     0212                     	;# 
   126     0213                     	;# 
   127     0213                     	;# 
   128     0214                     	;# 
   129     0214                     	;# 
   130     0215                     	;# 
   131     0215                     	;# 
   132     0215                     	;# 
   133     0216                     	;# 
   134     0216                     	;# 
   135     0217                     	;# 
   136     0217                     	;# 
   137     0291                     	;# 
   138     0291                     	;# 
   139     0292                     	;# 
   140     0293                     	;# 
   141     0294                     	;# 
   142     0295                     	;# 
   143     0295                     	;# 
   144     0296                     	;# 
   145     0391                     	;# 
   146     0392                     	;# 
   147     0393                     	;# 
   148     039A                     	;# 
   149     039C                     	;# 
   150     039D                     	;# 
   151     039E                     	;# 
   152     039F                     	;# 
   153     0FE4                     	;# 
   154     0FE5                     	;# 
   155     0FE6                     	;# 
   156     0FE7                     	;# 
   157     0FE8                     	;# 
   158     0FE9                     	;# 
   159     0FEA                     	;# 
   160     0FEB                     	;# 
   161     0FED                     	;# 
   162     0FEE                     	;# 
   163     0FEF                     	;# 
   164     0000                     	;# 
   165     0001                     	;# 
   166     0002                     	;# 
   167     0003                     	;# 
   168     0004                     	;# 
   169     0005                     	;# 
   170     0006                     	;# 
   171     0007                     	;# 
   172     0008                     	;# 
   173     0009                     	;# 
   174     000A                     	;# 
   175     000B                     	;# 
   176     000C                     	;# 
   177     0011                     	;# 
   178     0012                     	;# 
   179     0015                     	;# 
   180     0016                     	;# 
   181     0016                     	;# 
   182     0017                     	;# 
   183     0018                     	;# 
   184     0019                     	;# 
   185     001A                     	;# 
   186     001B                     	;# 
   187     001C                     	;# 
   188     001E                     	;# 
   189     001F                     	;# 
   190     008C                     	;# 
   191     0091                     	;# 
   192     0092                     	;# 
   193     0095                     	;# 
   194     0096                     	;# 
   195     0097                     	;# 
   196     0098                     	;# 
   197     0099                     	;# 
   198     009A                     	;# 
   199     009B                     	;# 
   200     009B                     	;# 
   201     009C                     	;# 
   202     009D                     	;# 
   203     009E                     	;# 
   204     010C                     	;# 
   205     0111                     	;# 
   206     0112                     	;# 
   207     0115                     	;# 
   208     0116                     	;# 
   209     0117                     	;# 
   210     0118                     	;# 
   211     0119                     	;# 
   212     011A                     	;# 
   213     011B                     	;# 
   214     011D                     	;# 
   215     011D                     	;# 
   216     018C                     	;# 
   217     0191                     	;# 
   218     0191                     	;# 
   219     0192                     	;# 
   220     0193                     	;# 
   221     0193                     	;# 
   222     0193                     	;# 
   223     0194                     	;# 
   224     0195                     	;# 
   225     0196                     	;# 
   226     0199                     	;# 
   227     019A                     	;# 
   228     019B                     	;# 
   229     019B                     	;# 
   230     019B                     	;# 
   231     019B                     	;# 
   232     019C                     	;# 
   233     019C                     	;# 
   234     019D                     	;# 
   235     019E                     	;# 
   236     019F                     	;# 
   237     020C                     	;# 
   238     0211                     	;# 
   239     0211                     	;# 
   240     0212                     	;# 
   241     0212                     	;# 
   242     0213                     	;# 
   243     0213                     	;# 
   244     0214                     	;# 
   245     0214                     	;# 
   246     0215                     	;# 
   247     0215                     	;# 
   248     0215                     	;# 
   249     0216                     	;# 
   250     0216                     	;# 
   251     0217                     	;# 
   252     0217                     	;# 
   253     0291                     	;# 
   254     0291                     	;# 
   255     0292                     	;# 
   256     0293                     	;# 
   257     0294                     	;# 
   258     0295                     	;# 
   259     0295                     	;# 
   260     0296                     	;# 
   261     0391                     	;# 
   262     0392                     	;# 
   263     0393                     	;# 
   264     039A                     	;# 
   265     039C                     	;# 
   266     039D                     	;# 
   267     039E                     	;# 
   268     039F                     	;# 
   269     0FE4                     	;# 
   270     0FE5                     	;# 
   271     0FE6                     	;# 
   272     0FE7                     	;# 
   273     0FE8                     	;# 
   274     0FE9                     	;# 
   275     0FEA                     	;# 
   276     0FEB                     	;# 
   277     0FED                     	;# 
   278     0FEE                     	;# 
   279     0FEF                     	;# 
   280     0000                     	;# 
   281     0001                     	;# 
   282     0002                     	;# 
   283     0003                     	;# 
   284     0004                     	;# 
   285     0005                     	;# 
   286     0006                     	;# 
   287     0007                     	;# 
   288     0008                     	;# 
   289     0009                     	;# 
   290     000A                     	;# 
   291     000B                     	;# 
   292     000C                     	;# 
   293     0011                     	;# 
   294     0012                     	;# 
   295     0015                     	;# 
   296     0016                     	;# 
   297     0016                     	;# 
   298     0017                     	;# 
   299     0018                     	;# 
   300     0019                     	;# 
   301     001A                     	;# 
   302     001B                     	;# 
   303     001C                     	;# 
   304     001E                     	;# 
   305     001F                     	;# 
   306     008C                     	;# 
   307     0091                     	;# 
   308     0092                     	;# 
   309     0095                     	;# 
   310     0096                     	;# 
   311     0097                     	;# 
   312     0098                     	;# 
   313     0099                     	;# 
   314     009A                     	;# 
   315     009B                     	;# 
   316     009B                     	;# 
   317     009C                     	;# 
   318     009D                     	;# 
   319     009E                     	;# 
   320     010C                     	;# 
   321     0111                     	;# 
   322     0112                     	;# 
   323     0115                     	;# 
   324     0116                     	;# 
   325     0117                     	;# 
   326     0118                     	;# 
   327     0119                     	;# 
   328     011A                     	;# 
   329     011B                     	;# 
   330     011D                     	;# 
   331     011D                     	;# 
   332     018C                     	;# 
   333     0191                     	;# 
   334     0191                     	;# 
   335     0192                     	;# 
   336     0193                     	;# 
   337     0193                     	;# 
   338     0193                     	;# 
   339     0194                     	;# 
   340     0195                     	;# 
   341     0196                     	;# 
   342     0199                     	;# 
   343     019A                     	;# 
   344     019B                     	;# 
   345     019B                     	;# 
   346     019B                     	;# 
   347     019B                     	;# 
   348     019C                     	;# 
   349     019C                     	;# 
   350     019D                     	;# 
   351     019E                     	;# 
   352     019F                     	;# 
   353     020C                     	;# 
   354     0211                     	;# 
   355     0211                     	;# 
   356     0212                     	;# 
   357     0212                     	;# 
   358     0213                     	;# 
   359     0213                     	;# 
   360     0214                     	;# 
   361     0214                     	;# 
   362     0215                     	;# 
   363     0215                     	;# 
   364     0215                     	;# 
   365     0216                     	;# 
   366     0216                     	;# 
   367     0217                     	;# 
   368     0217                     	;# 
   369     0291                     	;# 
   370     0291                     	;# 
   371     0292                     	;# 
   372     0293                     	;# 
   373     0294                     	;# 
   374     0295                     	;# 
   375     0295                     	;# 
   376     0296                     	;# 
   377     0391                     	;# 
   378     0392                     	;# 
   379     0393                     	;# 
   380     039A                     	;# 
   381     039C                     	;# 
   382     039D                     	;# 
   383     039E                     	;# 
   384     039F                     	;# 
   385     0FE4                     	;# 
   386     0FE5                     	;# 
   387     0FE6                     	;# 
   388     0FE7                     	;# 
   389     0FE8                     	;# 
   390     0FE9                     	;# 
   391     0FEA                     	;# 
   392     0FEB                     	;# 
   393     0FED                     	;# 
   394     0FEE                     	;# 
   395     0FEF                     	;# 
   396     0016                     _TMR1L	set	22
   397     0017                     _TMR1H	set	23
   398     0011                     _PIR1	set	17
   399     0011                     _PIR1bits	set	17
   400     0018                     _T1CON	set	24
   401     000B                     _INTCON	set	11
   402     000B                     _INTCONbits	set	11
   403     000C                     _PORTA	set	12
   404     0091                     _PIE1	set	145
   405     008C                     _TRISA	set	140
   406     0099                     _OSCCON	set	153
   407     0193                     _EEDAT	set	403
   408     0191                     _EEADR	set	401
   409     0193                     _EEDATL	set	403
   410     0192                     _EEADRH	set	402
   411     0191                     _EEADRL	set	401
   412     0195                     _EECON1bits	set	405
   413     0196                     _EECON2	set	406
   414     0195                     _EECON1	set	405
   415     018C                     _ANSELA	set	396
   416     0291                     _CCPR1L	set	657
   417     0292                     _CCPR1H	set	658
   418     0293                     _CCP1CON	set	659
   419                           
   420                           	psect	cinit
   421     00D5                     start_initialization:	
   422                           ; #config settings
   423                           
   424     00D5                     __initialization:
   425                           
   426                           ; Clear objects allocated to COMMON
   427     00D5  01F0               	clrf	__pbssCOMMON& (0+127)
   428     00D6  01F1               	clrf	(__pbssCOMMON+1)& (0+127)
   429     00D7  01F2               	clrf	(__pbssCOMMON+2)& (0+127)
   430     00D8  01F3               	clrf	(__pbssCOMMON+3)& (0+127)
   431     00D9  01F4               	clrf	(__pbssCOMMON+4)& (0+127)
   432     00DA  01F5               	clrf	(__pbssCOMMON+5)& (0+127)
   433     00DB                     end_of_initialization:	
   434                           ;End of C runtime variable initialization code
   435                           
   436     00DB                     __end_of__initialization:
   437     00DB  107E               	bcf	int$flags,0	;clear compiler interrupt flag (level 1)
   438     00DC  0020               	movlb	0
   439     00DD  28DE               	ljmp	_main	;jump to C main() function
   440                           
   441                           	psect	bssCOMMON
   442     0070                     __pbssCOMMON:
   443     0070                     _COUNTER:
   444     0070                     	ds	2
   445     0072                     main@EECTR:
   446     0072                     	ds	1
   447     0073                     _EE_STATE:
   448     0073                     	ds	1
   449     0074                     _DATA:
   450     0074                     	ds	1
   451     0075                     _COM_FLAG:
   452     0075                     	ds	1
   453                           
   454                           	psect	cstackCOMMON
   455     0076                     __pcstackCOMMON:
   456     0076                     ?_main:
   457     0076                     ?_isr:	
   458                           ; 1 bytes @ 0x0
   459                           
   460     0076                     ??_isr:	
   461                           ; 1 bytes @ 0x0
   462                           
   463                           
   464                           ; 1 bytes @ 0x0
   465     0076                     	ds	1
   466     0077                     isr@COUNT:
   467                           
   468                           ; 2 bytes @ 0x1
   469     0077                     	ds	2
   470     0079                     ??_main:
   471                           
   472                           ; 1 bytes @ 0x3
   473     0079                     	ds	1
   474                           
   475                           	psect	maintext
   476     00DE                     __pmaintext:	
   477 ;;
   478 ;;Main: autosize = 0, tempsize = 1, incstack = 0, save=0
   479 ;;
   480 ;; *************** function _main *****************
   481 ;; Defined at:
   482 ;;		line 18 in file "Project_ATCS_Decorder_Main.c"
   483 ;; Parameters:    Size  Location     Type
   484 ;;		None
   485 ;; Auto vars:     Size  Location     Type
   486 ;;		None
   487 ;; Return value:  Size  Location     Type
   488 ;;                  1    wreg      void 
   489 ;; Registers used:
   490 ;;		wreg, status,2, status,0
   491 ;; Tracked objects:
   492 ;;		On entry : B1F/0
   493 ;;		On exit  : 0/0
   494 ;;		Unchanged: 0/0
   495 ;; Data sizes:     COMMON   BANK0   BANK1
   496 ;;      Params:         0       0       0
   497 ;;      Locals:         0       0       0
   498 ;;      Temps:          1       0       0
   499 ;;      Totals:         1       0       0
   500 ;;Total ram usage:        1 bytes
   501 ;; Hardware stack levels required when called: 1
   502 ;; This function calls:
   503 ;;		Nothing
   504 ;; This function is called by:
   505 ;;		Startup code after reset
   506 ;; This function uses a non-reentrant model
   507 ;;
   508                           
   509     00DE                     _main:	
   510                           ;psect for function _main
   511                           
   512     00DE                     l724:	
   513                           ;incstack = 0
   514                           ; Regs used in _main: [wreg+status,2+status,0]
   515                           
   516                           
   517                           ;Project_ATCS_Decorder_Main.c: 20:     OSCCON = 0x72;
   518     00DE  3072               	movlw	114
   519     00DF  0021               	movlb	1	; select bank1
   520     00E0  0099               	movwf	25	;volatile
   521     00E1                     l726:
   522                           
   523                           ;Project_ATCS_Decorder_Main.c: 21:     ANSELA = 0x00;
   524     00E1  0023               	movlb	3	; select bank3
   525     00E2  018C               	clrf	12	;volatile
   526     00E3                     l728:
   527                           
   528                           ;Project_ATCS_Decorder_Main.c: 23:     TRISA = 0x04;
   529     00E3  3004               	movlw	4
   530     00E4  0021               	movlb	1	; select bank1
   531     00E5  008C               	movwf	12	;volatile
   532                           
   533                           ;Project_ATCS_Decorder_Main.c: 24:     PORTA = 0x00;
   534     00E6  0020               	movlb	0	; select bank0
   535     00E7  018C               	clrf	12	;volatile
   536     00E8                     l730:
   537                           
   538                           ;Project_ATCS_Decorder_Main.c: 27:         static UnCHR EECTR = 0;;Project_ATCS_Decorder
      +                          _Main.c: 28:         if(EECTR > 3){
   539     00E8  3004               	movlw	4
   540     00E9  0272               	subwf	main@EECTR,w
   541     00EA  1C03               	skipc
   542     00EB  28ED               	goto	u11
   543     00EC  28EE               	goto	u10
   544     00ED                     u11:
   545     00ED  28F2               	goto	l64
   546     00EE                     u10:
   547     00EE                     l732:
   548                           
   549                           ;Project_ATCS_Decorder_Main.c: 29:             COM_FLAG = COM_FLAG | 0x08;
   550     00EE  0875               	movf	_COM_FLAG,w
   551     00EF  3808               	iorlw	8
   552     00F0  00F5               	movwf	_COM_FLAG
   553                           
   554                           ;Project_ATCS_Decorder_Main.c: 30:             break;
   555     00F1  2921               	goto	l754
   556     00F2                     l64:	
   557                           ;Project_ATCS_Decorder_Main.c: 31:         }
   558                           
   559                           
   560                           ;Project_ATCS_Decorder_Main.c: 32:         EEADR = 0x8000;
   561     00F2  3080               	movlw	128
   562     00F3  0023               	movlb	3	; select bank3
   563     00F4  0092               	movwf	18	;volatile
   564     00F5  3000               	movlw	0
   565     00F6  0091               	movwf	17	;volatile
   566                           
   567                           ;Project_ATCS_Decorder_Main.c: 33:         EEDAT = 0x0049;
   568     00F7  3000               	movlw	0
   569     00F8  0094               	movwf	20	;volatile
   570     00F9  3049               	movlw	73
   571     00FA  0093               	movwf	19	;volatile
   572                           
   573                           ;Project_ATCS_Decorder_Main.c: 34:         INTCONbits.GIE = 0;
   574     00FB  138B               	bcf	11,7	;volatile
   575     00FC                     l734:
   576                           
   577                           ;Project_ATCS_Decorder_Main.c: 35:         EECON1 = 0x44;
   578     00FC  3044               	movlw	68
   579     00FD  0095               	movwf	21	;volsfr
   580                           
   581                           ;Project_ATCS_Decorder_Main.c: 36:         EECON2 = 0x55;
   582     00FE  3055               	movlw	85
   583     00FF  0096               	movwf	22	;volsfr
   584                           
   585                           ;Project_ATCS_Decorder_Main.c: 37:         EECON2 = 0xAA;
   586     0100  30AA               	movlw	170
   587     0101  0096               	movwf	22	;volsfr
   588     0102                     l736:
   589                           
   590                           ;Project_ATCS_Decorder_Main.c: 38:         EECON1bits.WR = 1;
   591     0102  1495               	bsf	21,1	;volsfr
   592     0103                     l738:
   593                           
   594                           ;Project_ATCS_Decorder_Main.c: 39:         INTCONbits.GIE = 1;
   595     0103  178B               	bsf	11,7	;volatile
   596     0104                     l66:	
   597                           ;Project_ATCS_Decorder_Main.c: 40:         while (EECON1bits.WR);
   598                           
   599     0104  1895               	btfsc	21,1	;volsfr
   600     0105  2907               	goto	u21
   601     0106  2908               	goto	u20
   602     0107                     u21:
   603     0107  2904               	goto	l66
   604     0108                     u20:
   605     0108                     l740:
   606                           
   607                           ;Project_ATCS_Decorder_Main.c: 41:         EECTR++;
   608     0108  3001               	movlw	1
   609     0109  00F9               	movwf	??_main
   610     010A  0879               	movf	??_main,w
   611     010B  07F2               	addwf	main@EECTR,f
   612     010C                     l742:
   613                           
   614                           ;Project_ATCS_Decorder_Main.c: 42:         if(EECON1bits.WRERR){
   615     010C  1D95               	btfss	21,3	;volsfr
   616     010D  290F               	goto	u31
   617     010E  2910               	goto	u30
   618     010F                     u31:
   619     010F  2911               	goto	l69
   620     0110                     u30:
   621     0110  291B               	goto	l752
   622     0111                     l69:	
   623                           ;Project_ATCS_Decorder_Main.c: 44:         }
   624                           
   625                           
   626                           ;Project_ATCS_Decorder_Main.c: 45:         INTCONbits.GIE = 1;
   627     0111  178B               	bsf	11,7	;volatile
   628     0112                     l746:
   629                           
   630                           ;Project_ATCS_Decorder_Main.c: 46:         EEADRL = 0x00;
   631     0112  0191               	clrf	17	;volatile
   632                           
   633                           ;Project_ATCS_Decorder_Main.c: 47:         EEADRH = 0x00;
   634     0113  0192               	clrf	18	;volatile
   635     0114                     l748:
   636                           
   637                           ;Project_ATCS_Decorder_Main.c: 48:         INTCONbits.GIE = 0;
   638     0114  138B               	bcf	11,7	;volatile
   639     0115                     l750:
   640                           
   641                           ;Project_ATCS_Decorder_Main.c: 49:         EECON1 = 0x41;
   642     0115  3041               	movlw	65
   643     0116  0095               	movwf	21	;volsfr
   644     0117                     l71:	
   645                           ;Project_ATCS_Decorder_Main.c: 50:         while(EECON1bits.RD);
   646                           
   647     0117  1815               	btfsc	21,0	;volsfr
   648     0118  291A               	goto	u41
   649     0119  291B               	goto	u40
   650     011A                     u41:
   651     011A  2917               	goto	l71
   652     011B                     u40:
   653     011B                     l752:
   654     011B  3049               	movlw	73
   655     011C  0613               	xorwf	19,w	;volatile
   656     011D  1D03               	btfss	3,2
   657     011E  2920               	goto	u51
   658     011F  2921               	goto	u50
   659     0120                     u51:
   660     0120  28E8               	goto	l730
   661     0121                     u50:
   662     0121                     l754:
   663                           
   664                           ;Project_ATCS_Decorder_Main.c: 54:     INTCON = 0xC0;
   665     0121  30C0               	movlw	192
   666     0122  008B               	movwf	11	;volatile
   667                           
   668                           ;Project_ATCS_Decorder_Main.c: 55:     PIE1 = 0x85;
   669     0123  3085               	movlw	133
   670     0124  0021               	movlb	1	; select bank1
   671     0125  0091               	movwf	17	;volatile
   672                           
   673                           ;Project_ATCS_Decorder_Main.c: 56:     CCP1CON = 0x05;
   674     0126  3005               	movlw	5
   675     0127  0025               	movlb	5	; select bank5
   676     0128  0093               	movwf	19	;volatile
   677                           
   678                           ;Project_ATCS_Decorder_Main.c: 57:     T1CON = 0x01;
   679     0129  3001               	movlw	1
   680     012A  0020               	movlb	0	; select bank0
   681     012B  0098               	movwf	24	;volatile
   682     012C                     l756:
   683                           
   684                           ;Project_ATCS_Decorder_Main.c: 61:         __nop();
   685     012C  0000               	nop
   686     012D  292C               	goto	l756
   687     012E  28D4               	ljmp	start
   688     012F                     __end_of_main:
   689                           
   690                           	psect	intentry
   691     0004                     __pintentry:	
   692 ;; *************** function _isr *****************
   693 ;; Defined at:
   694 ;;		line 66 in file "Project_ATCS_Decorder_Main.c"
   695 ;; Parameters:    Size  Location     Type
   696 ;;		None
   697 ;; Auto vars:     Size  Location     Type
   698 ;;  COUNT           2    1[COMMON] int 
   699 ;; Return value:  Size  Location     Type
   700 ;;                  1    wreg      void 
   701 ;; Registers used:
   702 ;;		wreg, status,2, status,0
   703 ;; Tracked objects:
   704 ;;		On entry : 0/0
   705 ;;		On exit  : 0/0
   706 ;;		Unchanged: 0/0
   707 ;; Data sizes:     COMMON   BANK0   BANK1
   708 ;;      Params:         0       0       0
   709 ;;      Locals:         2       0       0
   710 ;;      Temps:          1       0       0
   711 ;;      Totals:         3       0       0
   712 ;;Total ram usage:        3 bytes
   713 ;; Hardware stack levels used: 1
   714 ;; This function calls:
   715 ;;		Nothing
   716 ;; This function is called by:
   717 ;;		Interrupt level 1
   718 ;; This function uses a non-reentrant model
   719 ;;
   720                           
   721     0004                     _isr:
   722                           
   723                           ;incstack = 0
   724     0004  147E               	bsf	int$flags,0	;set compiler interrupt flag (level 1)
   725                           
   726                           ; Regs used in _isr: [wreg+status,2+status,0]
   727     0005  3180               	pagesel	$
   728     0006                     i1l758:
   729     0006                     i1l760:
   730                           
   731                           ;Project_ATCS_Decorder_Main.c: 68:     if(PIR1bits.CCP1IF){
   732     0006  0020               	movlb	0	; select bank0
   733     0007  1D11               	btfss	17,2	;volatile
   734     0008  280A               	goto	u6_21
   735     0009  280B               	goto	u6_20
   736     000A                     u6_21:
   737     000A  28CA               	goto	i1l82
   738     000B                     u6_20:
   739     000B                     i1l762:
   740                           
   741                           ;Project_ATCS_Decorder_Main.c: 69:         PIR1 = 0x00;
   742     000B  0191               	clrf	17	;volatile
   743                           
   744                           ;Project_ATCS_Decorder_Main.c: 70:         TMR1H = 0x00;
   745     000C  0197               	clrf	23	;volatile
   746                           
   747                           ;Project_ATCS_Decorder_Main.c: 71:         TMR1L = 0x00;
   748     000D  0196               	clrf	22	;volatile
   749     000E                     i1l764:
   750                           
   751                           ;Project_ATCS_Decorder_Main.c: 72:         COUNT = CCPR1H << 8 | CCPR1L;
   752     000E  0025               	movlb	5	; select bank5
   753     000F  0812               	movf	18,w	;volatile
   754     0010  00F8               	movwf	isr@COUNT+1
   755     0011  0811               	movf	17,w	;volatile
   756     0012  00F7               	movwf	isr@COUNT
   757     0013                     i1l766:
   758                           
   759                           ;Project_ATCS_Decorder_Main.c: 73:         if(!(COM_FLAG & 0x01)){
   760     0013  1875               	btfsc	_COM_FLAG,0
   761     0014  2816               	goto	u7_21
   762     0015  2817               	goto	u7_20
   763     0016                     u7_21:
   764     0016  285D               	goto	i1l83
   765     0017                     u7_20:
   766     0017                     i1l768:
   767                           
   768                           ;Project_ATCS_Decorder_Main.c: 74:             if(COUNT >= 0x00C0 && COUNT <= 0x0100 && 
      +                          !(COM_FLAG & 0x02) ){
   769     0017  0878               	movf	isr@COUNT+1,w
   770     0018  3A80               	xorlw	128
   771     0019  00F6               	movwf	??_isr
   772     001A  3080               	movlw	128
   773     001B  0276               	subwf	??_isr,w
   774     001C  1D03               	skipz
   775     001D  2820               	goto	u8_25
   776     001E  30C0               	movlw	192
   777     001F  0277               	subwf	isr@COUNT,w
   778     0020                     u8_25:
   779     0020  1C03               	skipc
   780     0021  2823               	goto	u8_21
   781     0022  2824               	goto	u8_20
   782     0023                     u8_21:
   783     0023  283A               	goto	i1l776
   784     0024                     u8_20:
   785     0024                     i1l770:
   786     0024  0878               	movf	isr@COUNT+1,w
   787     0025  3A80               	xorlw	128
   788     0026  00F6               	movwf	??_isr
   789     0027  3081               	movlw	129
   790     0028  0276               	subwf	??_isr,w
   791     0029  1D03               	skipz
   792     002A  282D               	goto	u9_25
   793     002B  3001               	movlw	1
   794     002C  0277               	subwf	isr@COUNT,w
   795     002D                     u9_25:
   796     002D  1803               	skipnc
   797     002E  2830               	goto	u9_21
   798     002F  2831               	goto	u9_20
   799     0030                     u9_21:
   800     0030  283A               	goto	i1l776
   801     0031                     u9_20:
   802     0031                     i1l772:
   803     0031  18F5               	btfsc	_COM_FLAG,1
   804     0032  2834               	goto	u10_21
   805     0033  2835               	goto	u10_20
   806     0034                     u10_21:
   807     0034  283A               	goto	i1l776
   808     0035                     u10_20:
   809     0035                     i1l774:
   810                           
   811                           ;Project_ATCS_Decorder_Main.c: 75:                 COUNTER++;
   812     0035  3001               	movlw	1
   813     0036  07F0               	addwf	_COUNTER,f
   814     0037  3000               	movlw	0
   815     0038  3DF1               	addwfc	_COUNTER+1,f
   816                           
   817                           ;Project_ATCS_Decorder_Main.c: 76:             }
   818     0039  28D2               	goto	i1l103
   819     003A                     i1l776:
   820     003A  0878               	movf	isr@COUNT+1,w
   821     003B  3A80               	xorlw	128
   822     003C  00F6               	movwf	??_isr
   823     003D  3080               	movlw	128
   824     003E  0276               	subwf	??_isr,w
   825     003F  1D03               	skipz
   826     0040  2843               	goto	u11_25
   827     0041  3081               	movlw	129
   828     0042  0277               	subwf	isr@COUNT,w
   829     0043                     u11_25:
   830     0043  1803               	skipnc
   831     0044  2846               	goto	u11_21
   832     0045  2847               	goto	u11_20
   833     0046                     u11_21:
   834     0046  284B               	goto	i1l780
   835     0047                     u11_20:
   836     0047                     i1l778:
   837     0047  1CF5               	btfss	_COM_FLAG,1
   838     0048  284A               	goto	u12_21
   839     0049  284B               	goto	u12_20
   840     004A                     u12_21:
   841     004A  28D2               	goto	i1l103
   842     004B                     u12_20:
   843     004B                     i1l780:
   844                           
   845                           ;Project_ATCS_Decorder_Main.c: 78:                 if(COUNTER > 11){
   846     004B  3000               	movlw	0
   847     004C  0271               	subwf	_COUNTER+1,w
   848     004D  300C               	movlw	12
   849     004E  1903               	skipnz
   850     004F  0270               	subwf	_COUNTER,w
   851     0050  1C03               	skipc
   852     0051  2853               	goto	u13_21
   853     0052  2854               	goto	u13_20
   854     0053                     u13_21:
   855     0053  28C9               	goto	i1l90
   856     0054                     u13_20:
   857     0054                     i1l782:
   858                           
   859                           ;Project_ATCS_Decorder_Main.c: 79:                     COM_FLAG = COM_FLAG | 0x01;
   860     0054  0875               	movf	_COM_FLAG,w
   861     0055  3801               	iorlw	1
   862     0056  00F5               	movwf	_COM_FLAG
   863                           
   864                           ;Project_ATCS_Decorder_Main.c: 80:                     COM_FLAG = COM_FLAG & 0xFD;
   865     0057  0875               	movf	_COM_FLAG,w
   866     0058  39FD               	andlw	253
   867     0059  00F5               	movwf	_COM_FLAG
   868     005A                     i1l784:
   869                           
   870                           ;Project_ATCS_Decorder_Main.c: 81:                     COUNTER = 0x00;
   871     005A  01F0               	clrf	_COUNTER
   872     005B  01F1               	clrf	_COUNTER+1
   873     005C  28D2               	goto	i1l103
   874     005D                     i1l83:
   875     005D  1C75               	btfss	_COM_FLAG,0
   876     005E  2860               	goto	u14_21
   877     005F  2861               	goto	u14_20
   878     0060                     u14_21:
   879     0060  28D2               	goto	i1l103
   880     0061                     u14_20:
   881     0061                     i1l786:
   882                           
   883                           ;Project_ATCS_Decorder_Main.c: 85:             if(COUNTER < 8 ){
   884     0061  3000               	movlw	0
   885     0062  0271               	subwf	_COUNTER+1,w
   886     0063  3008               	movlw	8
   887     0064  1903               	skipnz
   888     0065  0270               	subwf	_COUNTER,w
   889     0066  1803               	skipnc
   890     0067  2869               	goto	u15_21
   891     0068  286A               	goto	u15_20
   892     0069                     u15_21:
   893     0069  28A0               	goto	i1l804
   894     006A                     u15_20:
   895     006A                     i1l788:
   896                           
   897                           ;Project_ATCS_Decorder_Main.c: 86:                 if(COUNT >= 0x00C0 && COUNT <= 0x0100
      +                           && !(COM_FLAG & 0x02) ){
   898     006A  0878               	movf	isr@COUNT+1,w
   899     006B  3A80               	xorlw	128
   900     006C  00F6               	movwf	??_isr
   901     006D  3080               	movlw	128
   902     006E  0276               	subwf	??_isr,w
   903     006F  1D03               	skipz
   904     0070  2873               	goto	u16_25
   905     0071  30C0               	movlw	192
   906     0072  0277               	subwf	isr@COUNT,w
   907     0073                     u16_25:
   908     0073  1C03               	skipc
   909     0074  2876               	goto	u16_21
   910     0075  2877               	goto	u16_20
   911     0076                     u16_21:
   912     0076  288B               	goto	i1l796
   913     0077                     u16_20:
   914     0077                     i1l790:
   915     0077  0878               	movf	isr@COUNT+1,w
   916     0078  3A80               	xorlw	128
   917     0079  00F6               	movwf	??_isr
   918     007A  3081               	movlw	129
   919     007B  0276               	subwf	??_isr,w
   920     007C  1D03               	skipz
   921     007D  2880               	goto	u17_25
   922     007E  3001               	movlw	1
   923     007F  0277               	subwf	isr@COUNT,w
   924     0080                     u17_25:
   925     0080  1803               	skipnc
   926     0081  2883               	goto	u17_21
   927     0082  2884               	goto	u17_20
   928     0083                     u17_21:
   929     0083  288B               	goto	i1l796
   930     0084                     u17_20:
   931     0084                     i1l792:
   932     0084  18F5               	btfsc	_COM_FLAG,1
   933     0085  2887               	goto	u18_21
   934     0086  2888               	goto	u18_20
   935     0087                     u18_21:
   936     0087  288B               	goto	i1l796
   937     0088                     u18_20:
   938     0088                     i1l794:
   939                           
   940                           ;Project_ATCS_Decorder_Main.c: 87:                     DATA = (UnCHR) (DATA << 1) | 0x01
      +                          ;
   941     0088  1403               	setc
   942     0089  0DF4               	rlf	_DATA,f
   943                           
   944                           ;Project_ATCS_Decorder_Main.c: 88:                 }else if(COUNT > 0x0080 || COM_FLAG &
      +                           0x02){
   945     008A  2835               	goto	i1l774
   946     008B                     i1l796:
   947     008B  0878               	movf	isr@COUNT+1,w
   948     008C  3A80               	xorlw	128
   949     008D  00F6               	movwf	??_isr
   950     008E  3080               	movlw	128
   951     008F  0276               	subwf	??_isr,w
   952     0090  1D03               	skipz
   953     0091  2894               	goto	u19_25
   954     0092  3081               	movlw	129
   955     0093  0277               	subwf	isr@COUNT,w
   956     0094                     u19_25:
   957     0094  1803               	skipnc
   958     0095  2897               	goto	u19_21
   959     0096  2898               	goto	u19_20
   960     0097                     u19_21:
   961     0097  289C               	goto	i1l800
   962     0098                     u19_20:
   963     0098                     i1l798:
   964     0098  1CF5               	btfss	_COM_FLAG,1
   965     0099  289B               	goto	u20_21
   966     009A  289C               	goto	u20_20
   967     009B                     u20_21:
   968     009B  2835               	goto	i1l774
   969     009C                     u20_20:
   970     009C                     i1l800:
   971                           
   972                           ;Project_ATCS_Decorder_Main.c: 89:                     DATA = (UnCHR) (DATA << 1) & 0xFE
      +                          ;
   973     009C  3574               	lslf	_DATA,w
   974     009D  39FE               	andlw	254
   975     009E  00F4               	movwf	_DATA
   976     009F  2835               	goto	i1l774
   977     00A0                     i1l804:
   978                           
   979                           ;Project_ATCS_Decorder_Main.c: 94:                 if(COUNT >= 0x00C0 && COUNT <= 0x0100
      +                           && !(COM_FLAG & 0x02)){
   980     00A0  0878               	movf	isr@COUNT+1,w
   981     00A1  3A80               	xorlw	128
   982     00A2  00F6               	movwf	??_isr
   983     00A3  3080               	movlw	128
   984     00A4  0276               	subwf	??_isr,w
   985     00A5  1D03               	skipz
   986     00A6  28A9               	goto	u21_25
   987     00A7  30C0               	movlw	192
   988     00A8  0277               	subwf	isr@COUNT,w
   989     00A9                     u21_25:
   990     00A9  1C03               	skipc
   991     00AA  28AC               	goto	u21_21
   992     00AB  28AD               	goto	u21_20
   993     00AC                     u21_21:
   994     00AC  28C5               	goto	i1l812
   995     00AD                     u21_20:
   996     00AD                     i1l806:
   997     00AD  0878               	movf	isr@COUNT+1,w
   998     00AE  3A80               	xorlw	128
   999     00AF  00F6               	movwf	??_isr
  1000     00B0  3081               	movlw	129
  1001     00B1  0276               	subwf	??_isr,w
  1002     00B2  1D03               	skipz
  1003     00B3  28B6               	goto	u22_25
  1004     00B4  3001               	movlw	1
  1005     00B5  0277               	subwf	isr@COUNT,w
  1006     00B6                     u22_25:
  1007     00B6  1803               	skipnc
  1008     00B7  28B9               	goto	u22_21
  1009     00B8  28BA               	goto	u22_20
  1010     00B9                     u22_21:
  1011     00B9  28C5               	goto	i1l812
  1012     00BA                     u22_20:
  1013     00BA                     i1l808:
  1014     00BA  18F5               	btfsc	_COM_FLAG,1
  1015     00BB  28BD               	goto	u23_21
  1016     00BC  28BE               	goto	u23_20
  1017     00BD                     u23_21:
  1018     00BD  28C5               	goto	i1l812
  1019     00BE                     u23_20:
  1020     00BE                     i1l810:
  1021                           
  1022                           ;Project_ATCS_Decorder_Main.c: 95:                     COM_FLAG = COM_FLAG | 0x04;
  1023     00BE  0875               	movf	_COM_FLAG,w
  1024     00BF  3804               	iorlw	4
  1025     00C0  00F5               	movwf	_COM_FLAG
  1026                           
  1027                           ;Project_ATCS_Decorder_Main.c: 96:                     COM_FLAG = COM_FLAG & 0xFE;
  1028     00C1  0875               	movf	_COM_FLAG,w
  1029     00C2  39FE               	andlw	254
  1030     00C3  00F5               	movwf	_COM_FLAG
  1031                           
  1032                           ;Project_ATCS_Decorder_Main.c: 97:                 }else{
  1033     00C4  285A               	goto	i1l784
  1034     00C5                     i1l812:
  1035                           
  1036                           ;Project_ATCS_Decorder_Main.c: 98:                     COM_FLAG = COM_FLAG & 0xFB;
  1037     00C5  0875               	movf	_COM_FLAG,w
  1038     00C6  39FB               	andlw	251
  1039     00C7  00F5               	movwf	_COM_FLAG
  1040     00C8  285A               	goto	i1l784
  1041     00C9                     i1l90:
  1042                           
  1043                           ;Project_ATCS_Decorder_Main.c: 103:     }else if(PIR1bits.TMR1IF){
  1044     00C9  28D2               	goto	i1l103
  1045     00CA                     i1l82:
  1046     00CA  1C11               	btfss	17,0	;volatile
  1047     00CB  28CD               	goto	u24_21
  1048     00CC  28CE               	goto	u24_20
  1049     00CD                     u24_21:
  1050     00CD  28D2               	goto	i1l103
  1051     00CE                     u24_20:
  1052     00CE                     i1l816:
  1053                           
  1054                           ;Project_ATCS_Decorder_Main.c: 104:         PIR1 = 0x00;
  1055     00CE  0191               	clrf	17	;volatile
  1056     00CF                     i1l818:
  1057                           
  1058                           ;Project_ATCS_Decorder_Main.c: 105:         COM_FLAG = COM_FLAG | 0x02;
  1059     00CF  0875               	movf	_COM_FLAG,w
  1060     00D0  3802               	iorlw	2
  1061     00D1  00F5               	movwf	_COM_FLAG
  1062     00D2                     i1l103:
  1063     00D2  107E               	bcf	int$flags,0	;clear compiler interrupt flag (level 1)
  1064     00D3  0009               	retfie
  1065     00D4                     __end_of_isr:
  1066     007E                     btemp	set	126	;btemp
  1067     007E                     int$flags	set	126
  1068     007E                     wtemp0	set	126
  1069                           
  1070                           	psect	idloc
  1071                           
  1072                           ;Config register IDLOC0 @ 0x8000
  1073                           ;	unspecified, using default values
  1074     8000                     	org	32768
  1075     8000  3FFF               	dw	16383
  1076                           
  1077                           ;Config register IDLOC1 @ 0x8001
  1078                           ;	unspecified, using default values
  1079     8001                     	org	32769
  1080     8001  3FFF               	dw	16383
  1081                           
  1082                           ;Config register IDLOC2 @ 0x8002
  1083                           ;	unspecified, using default values
  1084     8002                     	org	32770
  1085     8002  3FFF               	dw	16383
  1086                           
  1087                           ;Config register IDLOC3 @ 0x8003
  1088                           ;	unspecified, using default values
  1089     8003                     	org	32771
  1090     8003  3FFF               	dw	16383
  1091                           
  1092                           	psect	config
  1093                           
  1094                           ;Config register CONFIG1 @ 0x8007
  1095                           ;	Oscillator Selection
  1096                           ;	FOSC = INTOSC, INTOSC oscillator: I/O function on CLKIN pin
  1097                           ;	Watchdog Timer Enable
  1098                           ;	WDTE = OFF, WDT disabled
  1099                           ;	Power-up Timer Enable
  1100                           ;	PWRTE = ON, PWRT enabled
  1101                           ;	MCLR Pin Function Select
  1102                           ;	MCLRE = OFF, MCLR/VPP pin function is digital input
  1103                           ;	Flash Program Memory Code Protection
  1104                           ;	CP = OFF, Program memory code protection is disabled
  1105                           ;	Data Memory Code Protection
  1106                           ;	CPD = OFF, Data memory code protection is disabled
  1107                           ;	Brown-out Reset Enable
  1108                           ;	BOREN = ON, Brown-out Reset enabled
  1109                           ;	Clock Out Enable
  1110                           ;	CLKOUTEN = OFF, CLKOUT function is disabled. I/O or oscillator function on the CLKOUT 
      +                          pin
  1111                           ;	Internal/External Switchover
  1112                           ;	IESO = OFF, Internal/External Switchover mode is disabled
  1113                           ;	Fail-Safe Clock Monitor Enable
  1114                           ;	FCMEN = OFF, Fail-Safe Clock Monitor is disabled
  1115     8007                     	org	32775
  1116     8007  0F84               	dw	3972
  1117                           
  1118                           ;Config register CONFIG2 @ 0x8008
  1119                           ;	Flash Memory Self-Write Protection
  1120                           ;	WRT = OFF, Write protection off
  1121                           ;	PLL Enable
  1122                           ;	PLLEN = OFF, 4x PLL disabled
  1123                           ;	Stack Overflow/Underflow Reset Enable
  1124                           ;	STVREN = ON, Stack Overflow or Underflow will cause a Reset
  1125                           ;	Brown-out Reset Voltage Selection
  1126                           ;	BORV = HI, Brown-out Reset Voltage (Vbor), high trip point selected.
  1127                           ;	Low-Voltage Programming Enable
  1128                           ;	LVP = OFF, High-voltage on MCLR/VPP must be used for programming
  1129     8008                     	org	32776
  1130     8008  1AFF               	dw	6911

Data Sizes:
    Strings     0
    Constant    0
    Data        0
    BSS         6
    Persistent  32
    Stack       0

Auto Spaces:
    Space          Size  Autos    Used
    COMMON           14      4      10
    BANK0            80      0       0
    BANK1            32      0       0

Pointer List with Targets:

    None.

Critical Paths under _main in COMMON

    None.

Critical Paths under _isr in COMMON

    None.

Critical Paths under _main in BANK0

    None.

Critical Paths under _isr in BANK0

    None.

Critical Paths under _main in BANK1

    None.

Critical Paths under _isr in BANK1

    None.

Call Graph Tables:

 ---------------------------------------------------------------------------------
 (Depth) Function   	        Calls       Base Space   Used Autos Params    Refs
 ---------------------------------------------------------------------------------
 (0) _main                                                 1     1      0       0
                                              3 COMMON     1     1      0
 ---------------------------------------------------------------------------------
 Estimated maximum stack depth 0
 ---------------------------------------------------------------------------------
 (Depth) Function   	        Calls       Base Space   Used Autos Params    Refs
 ---------------------------------------------------------------------------------
 (1) _isr                                                  3     3      0     120
                                              0 COMMON     3     3      0
 ---------------------------------------------------------------------------------
 Estimated maximum stack depth 1
 ---------------------------------------------------------------------------------

 Call Graph Graphs:

 _main (ROOT)

 _isr (ROOT)

 Address spaces:
Name               Size   Autos  Total    Cost      Usage
BIGRAM              70      0       0       0        0.0%
EEDATA             100      0       0       0        0.0%
NULL                 0      0       0       0        0.0%
CODE                 0      0       0       0        0.0%
BITCOMMON            E      0       0       1        0.0%
BITSFR0              0      0       0       1        0.0%
SFR0                 0      0       0       1        0.0%
COMMON               E      4       A       2       71.4%
BITSFR1              0      0       0       2        0.0%
SFR1                 0      0       0       2        0.0%
BITSFR2              0      0       0       3        0.0%
SFR2                 0      0       0       3        0.0%
STACK                0      0       0       3        0.0%
BITSFR3              0      0       0       4        0.0%
SFR3                 0      0       0       4        0.0%
ABS                  0      0       A       4        0.0%
BITBANK0            50      0       0       5        0.0%
BITSFR4              0      0       0       5        0.0%
SFR4                 0      0       0       5        0.0%
BANK0               50      0       0       6        0.0%
BITSFR5              0      0       0       6        0.0%
SFR5                 0      0       0       6        0.0%
BITBANK1            20      0       0       7        0.0%
BITSFR6              0      0       0       7        0.0%
SFR6                 0      0       0       7        0.0%
BANK1               20      0       0       8        0.0%
BITSFR7              0      0       0       8        0.0%
SFR7                 0      0       0       8        0.0%
BITSFR8              0      0       0       9        0.0%
SFR8                 0      0       0       9        0.0%
DATA                 0      0       A       9        0.0%
BITSFR9              0      0       0      10        0.0%
SFR9                 0      0       0      10        0.0%
BITSFR10             0      0       0      11        0.0%
SFR10                0      0       0      11        0.0%
BITSFR11             0      0       0      12        0.0%
SFR11                0      0       0      12        0.0%
BITSFR12             0      0       0      13        0.0%
SFR12                0      0       0      13        0.0%
BITSFR13             0      0       0      14        0.0%
SFR13                0      0       0      14        0.0%
BITSFR14             0      0       0      15        0.0%
SFR14                0      0       0      15        0.0%
BITSFR15             0      0       0      16        0.0%
SFR15                0      0       0      16        0.0%
BITSFR16             0      0       0      17        0.0%
SFR16                0      0       0      17        0.0%
BITSFR17             0      0       0      18        0.0%
SFR17                0      0       0      18        0.0%
BITSFR18             0      0       0      19        0.0%
SFR18                0      0       0      19        0.0%
BITSFR19             0      0       0      20        0.0%
SFR19                0      0       0      20        0.0%
BITSFR20             0      0       0      21        0.0%
SFR20                0      0       0      21        0.0%
BITSFR21             0      0       0      22        0.0%
SFR21                0      0       0      22        0.0%
BITSFR22             0      0       0      23        0.0%
SFR22                0      0       0      23        0.0%
BITSFR23             0      0       0      24        0.0%
SFR23                0      0       0      24        0.0%
BITSFR24             0      0       0      25        0.0%
SFR24                0      0       0      25        0.0%
BITSFR25             0      0       0      26        0.0%
SFR25                0      0       0      26        0.0%
BITSFR26             0      0       0      27        0.0%
SFR26                0      0       0      27        0.0%
BITSFR27             0      0       0      28        0.0%
SFR27                0      0       0      28        0.0%
BITSFR28             0      0       0      29        0.0%
SFR28                0      0       0      29        0.0%
BITSFR29             0      0       0      30        0.0%
SFR29                0      0       0      30        0.0%
BITSFR30             0      0       0      31        0.0%
SFR30                0      0       0      31        0.0%
BITSFR31             0      0       0      32        0.0%
SFR31                0      0       0      32        0.0%


Microchip Technology PIC Macro Assembler V2.40 build 20220703182018 
Symbol Table                                                                                   Tue Dec 05 03:22:20 2023

                     l71 0117                       l64 00F2                       l66 0104  
                     l69 0111                       u10 00EE                       u11 00ED  
                     u20 0108                       u21 0107                       u30 0110  
                     u31 010F                       u40 011B                       u41 011A  
                     u50 0121                       u51 0120                      l730 00E8  
                    l740 0108                      l732 00EE                      l724 00DE  
                    l750 0115                      l742 010C                      l734 00FC  
                    l726 00E1                      l752 011B                      l736 0102  
                    l728 00E3                      l746 0112                      l738 0103  
                    l754 0121                      l756 012C                      l748 0114  
                    _isr 0004                     ?_isr 0076                     _DATA 0074  
                   _PIE1 0091                     _PIR1 0011                     i1l90 00C9  
                   i1l82 00CA                     i1l83 005D                     u6_20 000B  
                   u6_21 000A                     u7_20 0017                     u7_21 0016  
                   u8_20 0024                     u8_21 0023                     u8_25 0020  
                   u9_20 0031                     u9_21 0030                     u9_25 002D  
                   _main 00DE                     btemp 007E                     start 00D4  
                  ??_isr 0076                    ?_main 0076                    _EEADR 0191  
                  _EEDAT 0193                    _T1CON 0018                    i1l103 00D2  
                  i1l800 009C                    i1l810 00BE                    i1l812 00C5  
                  i1l804 00A0                    i1l806 00AD                    i1l816 00CE  
                  i1l808 00BA                    i1l760 0006                    i1l818 00CF  
                  i1l770 0024                    i1l762 000B                    i1l780 004B  
                  i1l772 0031                    i1l764 000E                    i1l790 0077  
                  i1l782 0054                    i1l774 0035                    i1l766 0013  
                  i1l758 0006                    i1l792 0084                    i1l784 005A  
                  i1l776 003A                    i1l768 0017                    i1l794 0088  
                  i1l786 0061                    i1l778 0047                    i1l796 008B  
                  i1l788 006A                    i1l798 0098                    u10_20 0035  
                  u10_21 0034                    u11_20 0047                    u11_21 0046  
                  u11_25 0043                    u20_20 009C                    u12_20 004B  
                  u20_21 009B                    u12_21 004A                    u21_20 00AD  
                  u13_20 0054                    u21_21 00AC                    u13_21 0053  
                  u21_25 00A9                    u22_20 00BA                    u14_20 0061  
                  u22_21 00B9                    u14_21 0060                    u22_25 00B6  
                  u23_20 00BE                    u15_20 006A                    u23_21 00BD  
                  u15_21 0069                    u24_20 00CE                    u16_20 0077  
                  u24_21 00CD                    u16_21 0076                    u16_25 0073  
                  u17_20 0084                    u17_21 0083                    _TMR1H 0017  
                  u17_25 0080                    _TMR1L 0016                    u18_20 0088  
                  u18_21 0087                    u19_20 0098                    u19_21 0097  
                  _PORTA 000C                    u19_25 0094                    _TRISA 008C  
                  status 0003                    wtemp0 007E          __initialization 00D5  
           __end_of_main 012F                   ??_main 0079                   _EEADRH 0192  
                 _EEADRL 0191                   _CCPR1H 0292                   _CCPR1L 0291  
                 _EEDATL 0193                   _EECON1 0195                   _EECON2 0196  
                 _ANSELA 018C                   _INTCON 000B                   _OSCCON 0099  
__end_of__initialization 00DB           __pcstackCOMMON 0076               __pmaintext 00DE  
             __pintentry 0004                  _CCP1CON 0293                  _COUNTER 0070  
   end_of_initialization 00DB      start_initialization 00D5              __end_of_isr 00D4  
            __pbssCOMMON 0070                ___latbits 0000                 _COM_FLAG 0075  
               _EE_STATE 0073                 _PIR1bits 0011                main@EECTR 0072  
             _EECON1bits 0195                 int$flags 007E                 isr@COUNT 0077  
             _INTCONbits 000B                 intlevel1 0000  
