

Microchip MPLAB XC8 Assembler V2.40 build 20220703182018 
                                                                                               Mon Dec 11 01:41:48 2023

Microchip MPLAB XC8 C Compiler v2.40 (Free license) build 20220703182018 Og1 
     1                           	processor	12F1822
     2                           	pagewidth 120
     3                           	opt	flic
     4                           	psect	idataBANK0,global,class=CODE,delta=2,noexec
     5                           	psect	stringtext1,global,class=STRCODE,delta=2,noexec
     6                           	psect	stringtext2,global,class=STRCODE,delta=2,noexec
     7                           	psect	cinit,global,class=CODE,merge=1,delta=2
     8                           	psect	bssCOMMON,global,class=COMMON,space=1,delta=1,noexec
     9                           	psect	dataBANK0,global,class=BANK0,space=1,delta=1,noexec
    10                           	psect	inittext,global,class=CODE,delta=2
    11                           	psect	cstackCOMMON,global,class=COMMON,space=1,delta=1,noexec
    12                           	psect	cstackBANK0,global,class=BANK0,space=1,delta=1,noexec
    13                           	psect	maintext,global,class=CODE,merge=1,split=1,delta=2
    14                           	psect	text1,local,class=CODE,merge=1,delta=2
    15                           	psect	intentry,global,class=CODE,delta=2
    16                           	psect	text3,local,class=CODE,merge=1,delta=2
    17                           	psect	idloc,global,abs,ovrld,class=IDLOC,space=5,delta=2,noexec
    18                           	psect	config,global,abs,ovrld,class=CONFIG,space=4,delta=2,noexec
    19                           	dabs	1,0xA0,32,_STACK
    20                           	dabs	1,0x7E,2
    21     0000                     
    22                           ; Version 2.40
    23                           ; Generated 17/11/2021 GMT
    24                           ; 
    25                           ; Copyright © 2021, Microchip Technology Inc. and its subsidiaries ("Microchip")
    26                           ; All rights reserved.
    27                           ; 
    28                           ; This software is developed by Microchip Technology Inc. and its subsidiaries ("Microch
      +                          ip").
    29                           ; 
    30                           ; Redistribution and use in source and binary forms, with or without modification, are
    31                           ; permitted provided that the following conditions are met:
    32                           ; 
    33                           ;     1. Redistributions of source code must retain the above copyright notice, this lis
      +                          t of
    34                           ;        conditions and the following disclaimer.
    35                           ; 
    36                           ;     2. Redistributions in binary form must reproduce the above copyright notice, this 
      +                          list
    37                           ;        of conditions and the following disclaimer in the documentation and/or other
    38                           ;        materials provided with the distribution. Publication is not required when
    39                           ;        this file is used in an embedded application.
    40                           ; 
    41                           ;     3. Microchip's name may not be used to endorse or promote products derived from th
      +                          is
    42                           ;        software without specific prior written permission.
    43                           ; 
    44                           ; THIS SOFTWARE IS PROVIDED BY MICROCHIP "AS IS" AND ANY EXPRESS OR IMPLIED WARRANTIES,
    45                           ; INCLUDING, BUT NOT LIMITED TO, THE IMPLIED WARRANTIES OF MERCHANTABILITY AND FITNESS F
      +                          OR
    46                           ; PURPOSE ARE DISCLAIMED.  IN NO EVENT SHALL MICROCHIP BE LIABLE FOR ANY DIRECT, INDIREC
      +                          T,
    47                           ; INCIDENTAL, SPECIAL, EXEMPLARY, OR CONSEQUENTIAL DAMAGES (INCLUDING BUT NOT LIMITED TO
    48                           ; PROCUREMENT OF SUBSTITUTE GOODS OR SERVICES; LOSS OF USE, DATA OR PROFITS; OR BUSINESS
    49                           ; INTERRUPTION) HOWSOEVER CAUSED AND ON ANY THEORY OF LIABILITY, WHETHER IN CONTRACT, ST
      +                          RICT
    50                           ; LIABILITY, OR TORT (INCLUDING NEGLIGENCE OR OTHERWISE) ARISING IN ANY WAY OUT OF THE U
      +                          SE OF
    51                           ; THIS SOFTWARE, EVEN IF ADVISED OF THE POSSIBILITY OF SUCH DAMAGE.
    52                           ; 
    53                           ; 
    54                           ; Code-generator required, PIC12F1822 Definitions
    55                           ; 
    56                           ; SFR Addresses
    57     0000                     	;# 
    58     0001                     	;# 
    59     0002                     	;# 
    60     0003                     	;# 
    61     0004                     	;# 
    62     0005                     	;# 
    63     0006                     	;# 
    64     0007                     	;# 
    65     0008                     	;# 
    66     0009                     	;# 
    67     000A                     	;# 
    68     000B                     	;# 
    69     000C                     	;# 
    70     0011                     	;# 
    71     0012                     	;# 
    72     0015                     	;# 
    73     0016                     	;# 
    74     0016                     	;# 
    75     0017                     	;# 
    76     0018                     	;# 
    77     0019                     	;# 
    78     001A                     	;# 
    79     001B                     	;# 
    80     001C                     	;# 
    81     001E                     	;# 
    82     001F                     	;# 
    83     008C                     	;# 
    84     0091                     	;# 
    85     0092                     	;# 
    86     0095                     	;# 
    87     0096                     	;# 
    88     0097                     	;# 
    89     0098                     	;# 
    90     0099                     	;# 
    91     009A                     	;# 
    92     009B                     	;# 
    93     009B                     	;# 
    94     009C                     	;# 
    95     009D                     	;# 
    96     009E                     	;# 
    97     010C                     	;# 
    98     0111                     	;# 
    99     0112                     	;# 
   100     0115                     	;# 
   101     0116                     	;# 
   102     0117                     	;# 
   103     0118                     	;# 
   104     0119                     	;# 
   105     011A                     	;# 
   106     011B                     	;# 
   107     011D                     	;# 
   108     011D                     	;# 
   109     018C                     	;# 
   110     0191                     	;# 
   111     0191                     	;# 
   112     0192                     	;# 
   113     0193                     	;# 
   114     0193                     	;# 
   115     0193                     	;# 
   116     0194                     	;# 
   117     0195                     	;# 
   118     0196                     	;# 
   119     0199                     	;# 
   120     019A                     	;# 
   121     019B                     	;# 
   122     019B                     	;# 
   123     019B                     	;# 
   124     019B                     	;# 
   125     019C                     	;# 
   126     019C                     	;# 
   127     019D                     	;# 
   128     019E                     	;# 
   129     019F                     	;# 
   130     020C                     	;# 
   131     0211                     	;# 
   132     0211                     	;# 
   133     0212                     	;# 
   134     0212                     	;# 
   135     0213                     	;# 
   136     0213                     	;# 
   137     0214                     	;# 
   138     0214                     	;# 
   139     0215                     	;# 
   140     0215                     	;# 
   141     0215                     	;# 
   142     0216                     	;# 
   143     0216                     	;# 
   144     0217                     	;# 
   145     0217                     	;# 
   146     0291                     	;# 
   147     0291                     	;# 
   148     0292                     	;# 
   149     0293                     	;# 
   150     0294                     	;# 
   151     0295                     	;# 
   152     0295                     	;# 
   153     0296                     	;# 
   154     0391                     	;# 
   155     0392                     	;# 
   156     0393                     	;# 
   157     039A                     	;# 
   158     039C                     	;# 
   159     039D                     	;# 
   160     039E                     	;# 
   161     039F                     	;# 
   162     0FE4                     	;# 
   163     0FE5                     	;# 
   164     0FE6                     	;# 
   165     0FE7                     	;# 
   166     0FE8                     	;# 
   167     0FE9                     	;# 
   168     0FEA                     	;# 
   169     0FEB                     	;# 
   170     0FED                     	;# 
   171     0FEE                     	;# 
   172     0FEF                     	;# 
   173     0000                     	;# 
   174     0001                     	;# 
   175     0002                     	;# 
   176     0003                     	;# 
   177     0004                     	;# 
   178     0005                     	;# 
   179     0006                     	;# 
   180     0007                     	;# 
   181     0008                     	;# 
   182     0009                     	;# 
   183     000A                     	;# 
   184     000B                     	;# 
   185     000C                     	;# 
   186     0011                     	;# 
   187     0012                     	;# 
   188     0015                     	;# 
   189     0016                     	;# 
   190     0016                     	;# 
   191     0017                     	;# 
   192     0018                     	;# 
   193     0019                     	;# 
   194     001A                     	;# 
   195     001B                     	;# 
   196     001C                     	;# 
   197     001E                     	;# 
   198     001F                     	;# 
   199     008C                     	;# 
   200     0091                     	;# 
   201     0092                     	;# 
   202     0095                     	;# 
   203     0096                     	;# 
   204     0097                     	;# 
   205     0098                     	;# 
   206     0099                     	;# 
   207     009A                     	;# 
   208     009B                     	;# 
   209     009B                     	;# 
   210     009C                     	;# 
   211     009D                     	;# 
   212     009E                     	;# 
   213     010C                     	;# 
   214     0111                     	;# 
   215     0112                     	;# 
   216     0115                     	;# 
   217     0116                     	;# 
   218     0117                     	;# 
   219     0118                     	;# 
   220     0119                     	;# 
   221     011A                     	;# 
   222     011B                     	;# 
   223     011D                     	;# 
   224     011D                     	;# 
   225     018C                     	;# 
   226     0191                     	;# 
   227     0191                     	;# 
   228     0192                     	;# 
   229     0193                     	;# 
   230     0193                     	;# 
   231     0193                     	;# 
   232     0194                     	;# 
   233     0195                     	;# 
   234     0196                     	;# 
   235     0199                     	;# 
   236     019A                     	;# 
   237     019B                     	;# 
   238     019B                     	;# 
   239     019B                     	;# 
   240     019B                     	;# 
   241     019C                     	;# 
   242     019C                     	;# 
   243     019D                     	;# 
   244     019E                     	;# 
   245     019F                     	;# 
   246     020C                     	;# 
   247     0211                     	;# 
   248     0211                     	;# 
   249     0212                     	;# 
   250     0212                     	;# 
   251     0213                     	;# 
   252     0213                     	;# 
   253     0214                     	;# 
   254     0214                     	;# 
   255     0215                     	;# 
   256     0215                     	;# 
   257     0215                     	;# 
   258     0216                     	;# 
   259     0216                     	;# 
   260     0217                     	;# 
   261     0217                     	;# 
   262     0291                     	;# 
   263     0291                     	;# 
   264     0292                     	;# 
   265     0293                     	;# 
   266     0294                     	;# 
   267     0295                     	;# 
   268     0295                     	;# 
   269     0296                     	;# 
   270     0391                     	;# 
   271     0392                     	;# 
   272     0393                     	;# 
   273     039A                     	;# 
   274     039C                     	;# 
   275     039D                     	;# 
   276     039E                     	;# 
   277     039F                     	;# 
   278     0FE4                     	;# 
   279     0FE5                     	;# 
   280     0FE6                     	;# 
   281     0FE7                     	;# 
   282     0FE8                     	;# 
   283     0FE9                     	;# 
   284     0FEA                     	;# 
   285     0FEB                     	;# 
   286     0FED                     	;# 
   287     0FEE                     	;# 
   288     0FEF                     	;# 
   289     0000                     	;# 
   290     0001                     	;# 
   291     0002                     	;# 
   292     0003                     	;# 
   293     0004                     	;# 
   294     0005                     	;# 
   295     0006                     	;# 
   296     0007                     	;# 
   297     0008                     	;# 
   298     0009                     	;# 
   299     000A                     	;# 
   300     000B                     	;# 
   301     000C                     	;# 
   302     0011                     	;# 
   303     0012                     	;# 
   304     0015                     	;# 
   305     0016                     	;# 
   306     0016                     	;# 
   307     0017                     	;# 
   308     0018                     	;# 
   309     0019                     	;# 
   310     001A                     	;# 
   311     001B                     	;# 
   312     001C                     	;# 
   313     001E                     	;# 
   314     001F                     	;# 
   315     008C                     	;# 
   316     0091                     	;# 
   317     0092                     	;# 
   318     0095                     	;# 
   319     0096                     	;# 
   320     0097                     	;# 
   321     0098                     	;# 
   322     0099                     	;# 
   323     009A                     	;# 
   324     009B                     	;# 
   325     009B                     	;# 
   326     009C                     	;# 
   327     009D                     	;# 
   328     009E                     	;# 
   329     010C                     	;# 
   330     0111                     	;# 
   331     0112                     	;# 
   332     0115                     	;# 
   333     0116                     	;# 
   334     0117                     	;# 
   335     0118                     	;# 
   336     0119                     	;# 
   337     011A                     	;# 
   338     011B                     	;# 
   339     011D                     	;# 
   340     011D                     	;# 
   341     018C                     	;# 
   342     0191                     	;# 
   343     0191                     	;# 
   344     0192                     	;# 
   345     0193                     	;# 
   346     0193                     	;# 
   347     0193                     	;# 
   348     0194                     	;# 
   349     0195                     	;# 
   350     0196                     	;# 
   351     0199                     	;# 
   352     019A                     	;# 
   353     019B                     	;# 
   354     019B                     	;# 
   355     019B                     	;# 
   356     019B                     	;# 
   357     019C                     	;# 
   358     019C                     	;# 
   359     019D                     	;# 
   360     019E                     	;# 
   361     019F                     	;# 
   362     020C                     	;# 
   363     0211                     	;# 
   364     0211                     	;# 
   365     0212                     	;# 
   366     0212                     	;# 
   367     0213                     	;# 
   368     0213                     	;# 
   369     0214                     	;# 
   370     0214                     	;# 
   371     0215                     	;# 
   372     0215                     	;# 
   373     0215                     	;# 
   374     0216                     	;# 
   375     0216                     	;# 
   376     0217                     	;# 
   377     0217                     	;# 
   378     0291                     	;# 
   379     0291                     	;# 
   380     0292                     	;# 
   381     0293                     	;# 
   382     0294                     	;# 
   383     0295                     	;# 
   384     0295                     	;# 
   385     0296                     	;# 
   386     0391                     	;# 
   387     0392                     	;# 
   388     0393                     	;# 
   389     039A                     	;# 
   390     039C                     	;# 
   391     039D                     	;# 
   392     039E                     	;# 
   393     039F                     	;# 
   394     0FE4                     	;# 
   395     0FE5                     	;# 
   396     0FE6                     	;# 
   397     0FE7                     	;# 
   398     0FE8                     	;# 
   399     0FE9                     	;# 
   400     0FEA                     	;# 
   401     0FEB                     	;# 
   402     0FED                     	;# 
   403     0FEE                     	;# 
   404     0FEF                     	;# 
   405     0000                     	;# 
   406     0001                     	;# 
   407     0002                     	;# 
   408     0003                     	;# 
   409     0004                     	;# 
   410     0005                     	;# 
   411     0006                     	;# 
   412     0007                     	;# 
   413     0008                     	;# 
   414     0009                     	;# 
   415     000A                     	;# 
   416     000B                     	;# 
   417     000C                     	;# 
   418     0011                     	;# 
   419     0012                     	;# 
   420     0015                     	;# 
   421     0016                     	;# 
   422     0016                     	;# 
   423     0017                     	;# 
   424     0018                     	;# 
   425     0019                     	;# 
   426     001A                     	;# 
   427     001B                     	;# 
   428     001C                     	;# 
   429     001E                     	;# 
   430     001F                     	;# 
   431     008C                     	;# 
   432     0091                     	;# 
   433     0092                     	;# 
   434     0095                     	;# 
   435     0096                     	;# 
   436     0097                     	;# 
   437     0098                     	;# 
   438     0099                     	;# 
   439     009A                     	;# 
   440     009B                     	;# 
   441     009B                     	;# 
   442     009C                     	;# 
   443     009D                     	;# 
   444     009E                     	;# 
   445     010C                     	;# 
   446     0111                     	;# 
   447     0112                     	;# 
   448     0115                     	;# 
   449     0116                     	;# 
   450     0117                     	;# 
   451     0118                     	;# 
   452     0119                     	;# 
   453     011A                     	;# 
   454     011B                     	;# 
   455     011D                     	;# 
   456     011D                     	;# 
   457     018C                     	;# 
   458     0191                     	;# 
   459     0191                     	;# 
   460     0192                     	;# 
   461     0193                     	;# 
   462     0193                     	;# 
   463     0193                     	;# 
   464     0194                     	;# 
   465     0195                     	;# 
   466     0196                     	;# 
   467     0199                     	;# 
   468     019A                     	;# 
   469     019B                     	;# 
   470     019B                     	;# 
   471     019B                     	;# 
   472     019B                     	;# 
   473     019C                     	;# 
   474     019C                     	;# 
   475     019D                     	;# 
   476     019E                     	;# 
   477     019F                     	;# 
   478     020C                     	;# 
   479     0211                     	;# 
   480     0211                     	;# 
   481     0212                     	;# 
   482     0212                     	;# 
   483     0213                     	;# 
   484     0213                     	;# 
   485     0214                     	;# 
   486     0214                     	;# 
   487     0215                     	;# 
   488     0215                     	;# 
   489     0215                     	;# 
   490     0216                     	;# 
   491     0216                     	;# 
   492     0217                     	;# 
   493     0217                     	;# 
   494     0291                     	;# 
   495     0291                     	;# 
   496     0292                     	;# 
   497     0293                     	;# 
   498     0294                     	;# 
   499     0295                     	;# 
   500     0295                     	;# 
   501     0296                     	;# 
   502     0391                     	;# 
   503     0392                     	;# 
   504     0393                     	;# 
   505     039A                     	;# 
   506     039C                     	;# 
   507     039D                     	;# 
   508     039E                     	;# 
   509     039F                     	;# 
   510     0FE4                     	;# 
   511     0FE5                     	;# 
   512     0FE6                     	;# 
   513     0FE7                     	;# 
   514     0FE8                     	;# 
   515     0FE9                     	;# 
   516     0FEA                     	;# 
   517     0FEB                     	;# 
   518     0FED                     	;# 
   519     0FEE                     	;# 
   520     0FEF                     	;# 
   521                           
   522                           	psect	idataBANK0
   523     047C                     __pidataBANK0:
   524                           
   525                           ;initializer for _EE_STORE
   526     047C  3406               	retlw	6
   527     047D  34FF               	retlw	255
   528     047E  3400               	retlw	0
   529     047F  3400               	retlw	0
   530     0480  34FF               	retlw	255
   531     0481  340F               	retlw	15
   532     0482  34FF               	retlw	255
   533     0483  340F               	retlw	15
   534     0484  34FF               	retlw	255
   535     0485  340F               	retlw	15
   536     0486  34FF               	retlw	255
   537     0487  340F               	retlw	15
   538     0488  34AA               	retlw	170
   539     0489  34AA               	retlw	170
   540     048A  34AA               	retlw	170
   541     048B  34AA               	retlw	170
   542                           
   543                           	psect	stringtext1
   544     048C                     __pstringtext1:
   545     048C                     _DCC_DATA:
   546     048C  3400               	retlw	0
   547     048D  3401               	retlw	1
   548     048E  347F               	retlw	127
   549     048F  3480               	retlw	128
   550     0490  34BF               	retlw	191
   551     0491  34C0               	retlw	192
   552     0492  34E7               	retlw	231
   553     0493  34E8               	retlw	232
   554     0494  34FC               	retlw	252
   555     0495  34FD               	retlw	253
   556     0496  34FE               	retlw	254
   557     0497  34FF               	retlw	255
   558     0498                     __end_of_DCC_DATA:
   559                           
   560                           	psect	stringtext2
   561     0498                     __pstringtext2:
   562     0498                     _DCC_ADRS:
   563     0498  3400               	retlw	0
   564     0499  3401               	retlw	1
   565     049A  347F               	retlw	127
   566     049B  3480               	retlw	128
   567     049C  34BF               	retlw	191
   568     049D  34C0               	retlw	192
   569     049E  34E7               	retlw	231
   570     049F  34E8               	retlw	232
   571     04A0  34FC               	retlw	252
   572     04A1  34FD               	retlw	253
   573     04A2  34FE               	retlw	254
   574     04A3  34FF               	retlw	255
   575     04A4                     __end_of_DCC_ADRS:
   576     000B                     _INTCONbits	set	11
   577     0012                     _PIR2bits	set	18
   578     0016                     _TMR1L	set	22
   579     0017                     _TMR1H	set	23
   580     0011                     _PIR1	set	17
   581     0011                     _PIR1bits	set	17
   582     0018                     _T1CON	set	24
   583     000B                     _INTCON	set	11
   584     000C                     _PORTA	set	12
   585     0092                     _PIE2	set	146
   586     0091                     _PIE1	set	145
   587     008C                     _TRISA	set	140
   588     0099                     _OSCCON	set	153
   589     0193                     _EEDAT	set	403
   590     0191                     _EEADR	set	401
   591     0196                     _EECON2	set	406
   592     0195                     _EECON1bits	set	405
   593     0195                     _EECON1	set	405
   594     018C                     _ANSELA	set	396
   595     0291                     _CCPR1L	set	657
   596     0292                     _CCPR1H	set	658
   597     0293                     _CCP1CON	set	659
   598                           
   599                           	psect	cinit
   600     0100                     start_initialization:	
   601                           ; #config settings
   602                           
   603     0100                     __initialization:
   604                           
   605                           ; Initialize objects allocated to BANK0
   606     0100  307C               	movlw	low __pidataBANK0
   607     0101  0084               	movwf	4
   608     0102  3084               	movlw	(high __pidataBANK0)| (0+128)
   609     0103  0085               	movwf	5
   610     0104  3020               	movlw	low __pdataBANK0
   611     0105  0086               	movwf	6
   612     0106  3000               	movlw	high __pdataBANK0
   613     0107  0087               	movwf	7
   614     0108  3010               	movlw	16
   615     0109  3184  24A4  3181   	fcall	init_ram
   616                           
   617                           ; Clear objects allocated to COMMON
   618     010C  01F8               	clrf	__pbssCOMMON& (0+127)
   619     010D  01F9               	clrf	(__pbssCOMMON+1)& (0+127)
   620     010E  01FA               	clrf	(__pbssCOMMON+2)& (0+127)
   621     010F  01FB               	clrf	(__pbssCOMMON+3)& (0+127)
   622     0110                     end_of_initialization:	
   623                           ;End of C runtime variable initialization code
   624                           
   625     0110                     __end_of__initialization:
   626     0110  107E               	bcf	int$flags,0	;clear compiler interrupt flag (level 1)
   627     0111  0020               	movlb	0
   628     0112  2C5E               	ljmp	_main	;jump to C main() function
   629                           
   630                           	psect	bssCOMMON
   631     0078                     __pbssCOMMON:
   632     0078                     _STCR:
   633     0078                     	ds	1
   634     0079                     _COUNTER:
   635     0079                     	ds	1
   636     007A                     _DATA:
   637     007A                     	ds	1
   638     007B                     _COM_FLAG:
   639     007B                     	ds	1
   640                           
   641                           	psect	dataBANK0
   642     0020                     __pdataBANK0:
   643     0020                     _EE_STORE:
   644     0020                     	ds	16
   645                           
   646                           	psect	inittext
   647     04A4                     init_ram:
   648     04A4  00FE               	movwf	btemp
   649     04A5                     initloop:
   650     04A5  0012               	moviw fsr0++
   651     04A6  001E               	movwi fsr1++
   652     04A7  0BFE               	decfsz	btemp,f
   653     04A8  2CA5               	goto	initloop
   654     04A9  3400               	retlw	0
   655                           
   656                           	psect	cstackCOMMON
   657     0070                     __pcstackCOMMON:
   658     0070                     ?_EEPROM_SELECT:
   659     0070                     ?_main:	
   660                           ; 1 bytes @ 0x0
   661                           
   662     0070                     ?_isr:	
   663                           ; 1 bytes @ 0x0
   664                           
   665     0070                     ?i1_EEPROM_SELECT:	
   666                           ; 1 bytes @ 0x0
   667                           
   668     0070                     ??i1_EEPROM_SELECT:	
   669                           ; 1 bytes @ 0x0
   670                           
   671                           
   672                           ; 1 bytes @ 0x0
   673     0070                     	ds	2
   674     0072                     i1EEPROM_SELECT@EE_SAVE:
   675                           
   676                           ; 2 bytes @ 0x2
   677     0072                     	ds	2
   678     0074                     i1EEPROM_SELECT@COUNT:
   679                           
   680                           ; 1 bytes @ 0x4
   681     0074                     	ds	1
   682     0075                     ??_isr:
   683                           
   684                           ; 1 bytes @ 0x5
   685     0075                     	ds	1
   686     0076                     isr@COUNT:
   687                           
   688                           ; 2 bytes @ 0x6
   689     0076                     	ds	2
   690                           
   691                           	psect	cstackBANK0
   692     0030                     __pcstackBANK0:
   693     0030                     ??_EEPROM_SELECT:
   694                           
   695                           ; 1 bytes @ 0x0
   696     0030                     	ds	2
   697     0032                     EEPROM_SELECT@EE_SAVE:
   698                           
   699                           ; 2 bytes @ 0x2
   700     0032                     	ds	2
   701     0034                     EEPROM_SELECT@COUNT:
   702                           
   703                           ; 1 bytes @ 0x4
   704     0034                     	ds	1
   705     0035                     ??_main:
   706                           
   707                           	psect	maintext
   708     045E                     __pmaintext:	
   709                           ; 1 bytes @ 0x5
   710 ;;
   711 ;;Main: autosize = 0, tempsize = 0, incstack = 0, save=0
   712 ;;
   713 ;; *************** function _main *****************
   714 ;; Defined at:
   715 ;;		line 19 in file "Project_ATCS_Decorder_Main.c"
   716 ;; Parameters:    Size  Location     Type
   717 ;;		None
   718 ;; Auto vars:     Size  Location     Type
   719 ;;		None
   720 ;; Return value:  Size  Location     Type
   721 ;;                  1    wreg      void 
   722 ;; Registers used:
   723 ;;		wreg, fsr0l, fsr0h, fsr1l, fsr1h, status,2, status,0, pclath, cstack
   724 ;; Tracked objects:
   725 ;;		On entry : B1F/0
   726 ;;		On exit  : 0/0
   727 ;;		Unchanged: 0/0
   728 ;; Data sizes:     COMMON   BANK0
   729 ;;      Params:         0       0
   730 ;;      Locals:         0       0
   731 ;;      Temps:          0       0
   732 ;;      Totals:         0       0
   733 ;;Total ram usage:        0 bytes
   734 ;; Hardware stack levels required when called: 3
   735 ;; This function calls:
   736 ;;		_EEPROM_SELECT
   737 ;; This function is called by:
   738 ;;		Startup code after reset
   739 ;; This function uses a non-reentrant model
   740 ;;
   741                           
   742     045E                     _main:	
   743                           ;psect for function _main
   744                           
   745     045E                     l1332:	
   746                           ;incstack = 0
   747                           ; Regs used in _main: [wreg-fsr1h+status,2+status,0+pclath+cstack]
   748                           
   749                           
   750                           ;Project_ATCS_Decorder_Main.c: 21:     OSCCON = 0x72;
   751     045E  3072               	movlw	114
   752     045F  0021               	movlb	1	; select bank1
   753     0460  0099               	movwf	25	;volatile
   754     0461                     l1334:
   755                           
   756                           ;Project_ATCS_Decorder_Main.c: 22:     ANSELA = 0x00;
   757     0461  0023               	movlb	3	; select bank3
   758     0462  018C               	clrf	12	;volatile
   759     0463                     l1336:
   760                           
   761                           ;Project_ATCS_Decorder_Main.c: 24:     TRISA = 0x04;
   762     0463  3004               	movlw	4
   763     0464  0021               	movlb	1	; select bank1
   764     0465  008C               	movwf	12	;volatile
   765                           
   766                           ;Project_ATCS_Decorder_Main.c: 25:     PORTA = 0x00;
   767     0466  0020               	movlb	0	; select bank0
   768     0467  018C               	clrf	12	;volatile
   769     0468                     l1338:
   770                           
   771                           ;Project_ATCS_Decorder_Main.c: 27:     INTCON = 0xC0;
   772     0468  30C0               	movlw	192
   773     0469  008B               	movwf	11	;volatile
   774     046A                     l1340:
   775                           
   776                           ;Project_ATCS_Decorder_Main.c: 28:     PIE1 = 0x85;
   777     046A  3085               	movlw	133
   778     046B  0021               	movlb	1	; select bank1
   779     046C  0091               	movwf	17	;volatile
   780     046D                     l1342:
   781                           
   782                           ;Project_ATCS_Decorder_Main.c: 29:     PIE2 = 0x10;
   783     046D  3010               	movlw	16
   784     046E  0092               	movwf	18	;volatile
   785     046F                     l1344:
   786                           
   787                           ;Project_ATCS_Decorder_Main.c: 30:     CCP1CON = 0x05;
   788     046F  3005               	movlw	5
   789     0470  0025               	movlb	5	; select bank5
   790     0471  0093               	movwf	19	;volatile
   791     0472                     l1346:
   792                           
   793                           ;Project_ATCS_Decorder_Main.c: 31:     T1CON = 0x01;
   794     0472  3001               	movlw	1
   795     0473  0020               	movlb	0	; select bank0
   796     0474  0098               	movwf	24	;volatile
   797     0475                     l1348:
   798                           
   799                           ;Project_ATCS_Decorder_Main.c: 33:     EE_STORE.EE_STATE = EE_WRITE_UID;
   800     0475  3002               	movlw	2
   801     0476  00A0               	movwf	_EE_STORE
   802     0477                     l1350:
   803                           
   804                           ;Project_ATCS_Decorder_Main.c: 34:     EEPROM_SELECT();
   805     0477  3181  2113  3184   	fcall	_EEPROM_SELECT
   806     047A                     l33:	
   807                           ;Project_ATCS_Decorder_Main.c: 36:     while(1){
   808                           
   809     047A                     l34:	
   810                           ;Project_ATCS_Decorder_Main.c: 38:     }
   811                           
   812     047A  2C7A               	goto	l33
   813     047B  28FF               	ljmp	start
   814     047C                     __end_of_main:
   815                           
   816                           	psect	text1
   817     0113                     __ptext1:	
   818 ;; *************** function _EEPROM_SELECT *****************
   819 ;; Defined at:
   820 ;;		line 12 in file "Project_ATCS_Decorder_Module.c"
   821 ;; Parameters:    Size  Location     Type
   822 ;;		None
   823 ;; Auto vars:     Size  Location     Type
   824 ;;  EE_SAVE         2    2[BANK0 ] unsigned int 
   825 ;;  COUNT           1    4[BANK0 ] unsigned char 
   826 ;; Return value:  Size  Location     Type
   827 ;;                  1    wreg      void 
   828 ;; Registers used:
   829 ;;		wreg, fsr0l, fsr0h, fsr1l, fsr1h, status,2, status,0
   830 ;; Tracked objects:
   831 ;;		On entry : 0/0
   832 ;;		On exit  : 0/0
   833 ;;		Unchanged: 0/0
   834 ;; Data sizes:     COMMON   BANK0
   835 ;;      Params:         0       0
   836 ;;      Locals:         0       3
   837 ;;      Temps:          0       2
   838 ;;      Totals:         0       5
   839 ;;Total ram usage:        5 bytes
   840 ;; Hardware stack levels used: 1
   841 ;; Hardware stack levels required when called: 2
   842 ;; This function calls:
   843 ;;		Nothing
   844 ;; This function is called by:
   845 ;;		_main
   846 ;; This function uses a non-reentrant model
   847 ;;
   848                           
   849     0113                     _EEPROM_SELECT:	
   850                           ;psect for function _EEPROM_SELECT
   851                           
   852     0113                     l1198:	
   853                           ;incstack = 0
   854                           ; Regs used in _EEPROM_SELECT: [wreg-fsr1h+status,2+status,0]
   855                           
   856                           
   857                           ;Project_ATCS_Decorder_Module.c: 13:     INTCONbits.GIE = 0;
   858     0113  138B               	bcf	11,7	;volatile
   859     0114                     l1200:
   860                           
   861                           ;Project_ATCS_Decorder_Module.c: 14:     UnCHR COUNT = 0x00 ;
   862     0114  0020               	movlb	0	; select bank0
   863     0115  01B4               	clrf	EEPROM_SELECT@COUNT
   864                           
   865                           ;Project_ATCS_Decorder_Module.c: 16:     switch (EE_STORE.EE_STATE) {
   866     0116  2AA5               	goto	l1324
   867     0117                     l1202:
   868                           
   869                           ;Project_ATCS_Decorder_Module.c: 19:                 if(EE_STORE.EE_REPORT[COUNT]){
   870     0117  0834               	movf	EEPROM_SELECT@COUNT,w
   871     0118  3E2C               	addlw	(low ((_EE_STORE| 0+12)))& (0+255)
   872     0119  0086               	movwf	6
   873     011A  0187               	clrf	7
   874     011B  0801               	movf	1,w
   875     011C  1903               	btfsc	3,2
   876     011D  291F               	goto	u601
   877     011E  2920               	goto	u600
   878     011F                     u601:
   879     011F  293B               	goto	l1212
   880     0120                     u600:
   881     0120                     l1204:
   882                           
   883                           ;Project_ATCS_Decorder_Module.c: 20:                     EEADR = EE_STORE.EE_ADRS;
   884     0120  0823               	movf	_EE_STORE+3,w
   885     0121  0023               	movlb	3	; select bank3
   886     0122  0092               	movwf	18	;volatile
   887     0123  0020               	movlb	0	; select bank0
   888     0124  0822               	movf	_EE_STORE+2,w
   889     0125  0023               	movlb	3	; select bank3
   890     0126  0091               	movwf	17	;volatile
   891                           
   892                           ;Project_ATCS_Decorder_Module.c: 21:                     EECON1 = EE_STORE.EE_CONFIG;
   893     0127  0020               	movlb	0	; select bank0
   894     0128  0821               	movf	_EE_STORE+1,w
   895     0129  0023               	movlb	3	; select bank3
   896     012A  0095               	movwf	21	;volsfr
   897     012B                     l117:	
   898                           ;Project_ATCS_Decorder_Module.c: 22:                     while (EECON1bits.RD);
   899                           
   900     012B  1815               	btfsc	21,0	;volsfr
   901     012C  292E               	goto	u611
   902     012D  292F               	goto	u610
   903     012E                     u611:
   904     012E  292B               	goto	l117
   905     012F                     u610:
   906     012F                     l1206:
   907                           
   908                           ;Project_ATCS_Decorder_Module.c: 23:                     EE_STORE.EE_DATA[COUNT] = EEDAT
      +                          ;
   909     012F  0020               	movlb	0	; select bank0
   910     0130  3534               	lslf	EEPROM_SELECT@COUNT,w
   911     0131  3E24               	addlw	(low ((_EE_STORE| 0+4)))& (0+255)
   912     0132  0086               	movwf	6
   913     0133  0187               	clrf	7
   914     0134  0023               	movlb	3	; select bank3
   915     0135  0813               	movf	19,w	;volatile
   916     0136  3FC0               	movwi [0]fsr1
   917     0137  0814               	movf	20,w	;volatile
   918     0138  3FC1               	movwi [1]fsr1
   919     0139                     l1208:
   920                           
   921                           ;Project_ATCS_Decorder_Module.c: 24:                     INTCONbits.GIE = 1;
   922     0139  178B               	bsf	11,7	;volatile
   923     013A  2AC1               	goto	l120
   924     013B                     l1212:
   925                           
   926                           ;Project_ATCS_Decorder_Module.c: 27:                 COUNT++;
   927     013B  3001               	movlw	1
   928     013C  00B0               	movwf	??_EEPROM_SELECT
   929     013D  0830               	movf	??_EEPROM_SELECT,w
   930     013E  07B4               	addwf	EEPROM_SELECT@COUNT,f
   931     013F                     l1214:
   932                           
   933                           ;Project_ATCS_Decorder_Module.c: 28:                 EEADR = EE_STORE.EE_ADRS++;
   934     013F  0823               	movf	_EE_STORE+3,w
   935     0140  0023               	movlb	3	; select bank3
   936     0141  0092               	movwf	18	;volatile
   937     0142  0020               	movlb	0	; select bank0
   938     0143  0822               	movf	_EE_STORE+2,w
   939     0144  0023               	movlb	3	; select bank3
   940     0145  0091               	movwf	17	;volatile
   941     0146                     l1216:
   942     0146  3001               	movlw	1
   943     0147  0020               	movlb	0	; select bank0
   944     0148  07A2               	addwf	_EE_STORE+2,f
   945     0149  3000               	movlw	0
   946     014A  3DA3               	addwfc	_EE_STORE+3,f
   947     014B                     l1218:
   948                           
   949                           ;Project_ATCS_Decorder_Module.c: 29:             }while(COUNT < 4);
   950     014B  3004               	movlw	4
   951     014C  0234               	subwf	EEPROM_SELECT@COUNT,w
   952     014D  1C03               	skipc
   953     014E  2950               	goto	u621
   954     014F  2951               	goto	u620
   955     0150                     u621:
   956     0150  2917               	goto	l1202
   957     0151                     u620:
   958     0151  2AC1               	goto	l120
   959     0152                     l1220:
   960                           
   961                           ;Project_ATCS_Decorder_Module.c: 34:                 if(EE_STORE.EE_REPORT[COUNT]){
   962     0152  0834               	movf	EEPROM_SELECT@COUNT,w
   963     0153  3E2C               	addlw	(low ((_EE_STORE| 0+12)))& (0+255)
   964     0154  0086               	movwf	6
   965     0155  0187               	clrf	7
   966     0156  0801               	movf	1,w
   967     0157  1903               	btfsc	3,2
   968     0158  295A               	goto	u631
   969     0159  295B               	goto	u630
   970     015A                     u631:
   971     015A  2974               	goto	l1226
   972     015B                     u630:
   973     015B                     l1222:
   974                           
   975                           ;Project_ATCS_Decorder_Module.c: 35:                     EEADR = EE_STORE.EE_ADRS;
   976     015B  0823               	movf	_EE_STORE+3,w
   977     015C  0023               	movlb	3	; select bank3
   978     015D  0092               	movwf	18	;volatile
   979     015E  0020               	movlb	0	; select bank0
   980     015F  0822               	movf	_EE_STORE+2,w
   981     0160  0023               	movlb	3	; select bank3
   982     0161  0091               	movwf	17	;volatile
   983                           
   984                           ;Project_ATCS_Decorder_Module.c: 36:                     EECON1 = EE_STORE.EE_CONFIG;
   985     0162  0020               	movlb	0	; select bank0
   986     0163  0821               	movf	_EE_STORE+1,w
   987     0164  0023               	movlb	3	; select bank3
   988     0165  0095               	movwf	21	;volsfr
   989     0166                     l125:	
   990                           ;Project_ATCS_Decorder_Module.c: 37:                     while (EECON1bits.RD);
   991                           
   992     0166  1815               	btfsc	21,0	;volsfr
   993     0167  2969               	goto	u641
   994     0168  296A               	goto	u640
   995     0169                     u641:
   996     0169  2966               	goto	l125
   997     016A                     u640:
   998     016A                     l1224:
   999                           
  1000                           ;Project_ATCS_Decorder_Module.c: 38:                     EE_STORE.EE_DATA[COUNT] = EEDAT
      +                          ;
  1001     016A  0020               	movlb	0	; select bank0
  1002     016B  3534               	lslf	EEPROM_SELECT@COUNT,w
  1003     016C  3E24               	addlw	(low ((_EE_STORE| 0+4)))& (0+255)
  1004     016D  0086               	movwf	6
  1005     016E  0187               	clrf	7
  1006     016F  0023               	movlb	3	; select bank3
  1007     0170  0813               	movf	19,w	;volatile
  1008     0171  3FC0               	movwi [0]fsr1
  1009     0172  0814               	movf	20,w	;volatile
  1010     0173  3FC1               	movwi [1]fsr1
  1011     0174                     l1226:
  1012                           
  1013                           ;Project_ATCS_Decorder_Module.c: 40:                 EE_STORE.EE_ADRS++;
  1014     0174  3001               	movlw	1
  1015     0175  0020               	movlb	0	; select bank0
  1016     0176  07A2               	addwf	_EE_STORE+2,f
  1017     0177  3000               	movlw	0
  1018     0178  3DA3               	addwfc	_EE_STORE+3,f
  1019     0179                     l1228:
  1020                           
  1021                           ;Project_ATCS_Decorder_Module.c: 41:             } while (COUNT < 4);
  1022     0179  3004               	movlw	4
  1023     017A  0234               	subwf	EEPROM_SELECT@COUNT,w
  1024     017B  1C03               	skipc
  1025     017C  297E               	goto	u651
  1026     017D  297F               	goto	u650
  1027     017E                     u651:
  1028     017E  2952               	goto	l1220
  1029     017F                     u650:
  1030     017F                     l128:
  1031                           
  1032                           ;Project_ATCS_Decorder_Module.c: 42:             INTCONbits.GIE = 1;
  1033     017F  178B               	bsf	11,7	;volatile
  1034                           
  1035                           ;Project_ATCS_Decorder_Module.c: 43:             return;
  1036     0180  2AC1               	goto	l120
  1037     0181                     l129:	
  1038                           ;Project_ATCS_Decorder_Module.c: 45:         case EE_WRITE_UID:
  1039                           
  1040                           
  1041                           ;Project_ATCS_Decorder_Module.c: 46:             INTCONbits.GIE = 0;
  1042     0181  138B               	bcf	11,7	;volatile
  1043     0182                     l1230:
  1044                           
  1045                           ;Project_ATCS_Decorder_Module.c: 47:             UnINT EE_SAVE = EE_STORE.EE_ADRS;
  1046     0182  0823               	movf	_EE_STORE+3,w
  1047     0183  00B3               	movwf	EEPROM_SELECT@EE_SAVE+1
  1048     0184  0822               	movf	_EE_STORE+2,w
  1049     0185  00B2               	movwf	EEPROM_SELECT@EE_SAVE
  1050     0186                     l1232:
  1051                           
  1052                           ;Project_ATCS_Decorder_Module.c: 49:                 if(EE_STORE.EE_REPORT[COUNT]){
  1053     0186  0834               	movf	EEPROM_SELECT@COUNT,w
  1054     0187  3E2C               	addlw	(low ((_EE_STORE| 0+12)))& (0+255)
  1055     0188  0086               	movwf	6
  1056     0189  0187               	clrf	7
  1057     018A  0801               	movf	1,w
  1058     018B  1903               	btfsc	3,2
  1059     018C  298E               	goto	u661
  1060     018D  298F               	goto	u660
  1061     018E                     u661:
  1062     018E  29A7               	goto	l1246
  1063     018F                     u660:
  1064     018F                     l1234:
  1065                           
  1066                           ;Project_ATCS_Decorder_Module.c: 50:                     EEADR = EE_STORE.EE_ADRS;
  1067     018F  0823               	movf	_EE_STORE+3,w
  1068     0190  0023               	movlb	3	; select bank3
  1069     0191  0092               	movwf	18	;volatile
  1070     0192  0020               	movlb	0	; select bank0
  1071     0193  0822               	movf	_EE_STORE+2,w
  1072     0194  0023               	movlb	3	; select bank3
  1073     0195  0091               	movwf	17	;volatile
  1074     0196                     l1236:
  1075                           
  1076                           ;Project_ATCS_Decorder_Module.c: 51:                     EEDAT = EE_STORE.EE_DATA[COUNT]
      +                          ;
  1077     0196  0020               	movlb	0	; select bank0
  1078     0197  3534               	lslf	EEPROM_SELECT@COUNT,w
  1079     0198  3E24               	addlw	(low ((_EE_STORE| 0+4)))& (0+255)
  1080     0199  0086               	movwf	6
  1081     019A  0187               	clrf	7
  1082     019B  3F40               	moviw [0]fsr1
  1083     019C  0023               	movlb	3	; select bank3
  1084     019D  0093               	movwf	19	;volatile
  1085     019E  3F41               	moviw [1]fsr1
  1086     019F  0094               	movwf	20	;volatile
  1087     01A0                     l1238:
  1088                           
  1089                           ;Project_ATCS_Decorder_Module.c: 52:                     EECON1 = 0x64;
  1090     01A0  3064               	movlw	100
  1091     01A1  0095               	movwf	21	;volsfr
  1092     01A2                     l1240:
  1093                           
  1094                           ;Project_ATCS_Decorder_Module.c: 53:                     EECON2 = 0x55;
  1095     01A2  3055               	movlw	85
  1096     01A3  0096               	movwf	22	;volsfr
  1097     01A4                     l1242:
  1098                           
  1099                           ;Project_ATCS_Decorder_Module.c: 54:                     EECON2 = 0xAA;
  1100     01A4  30AA               	movlw	170
  1101     01A5  0096               	movwf	22	;volsfr
  1102     01A6                     l1244:
  1103                           
  1104                           ;Project_ATCS_Decorder_Module.c: 55:                     EECON1bits.WR = 1;
  1105     01A6  1495               	bsf	21,1	;volsfr
  1106     01A7                     l1246:
  1107                           
  1108                           ;Project_ATCS_Decorder_Module.c: 57:                 COUNT++;
  1109     01A7  3001               	movlw	1
  1110     01A8  0020               	movlb	0	; select bank0
  1111     01A9  00B0               	movwf	??_EEPROM_SELECT
  1112     01AA  0830               	movf	??_EEPROM_SELECT,w
  1113     01AB  07B4               	addwf	EEPROM_SELECT@COUNT,f
  1114     01AC                     l1248:
  1115                           
  1116                           ;Project_ATCS_Decorder_Module.c: 58:                 EE_STORE.EE_ADRS++;
  1117     01AC  3001               	movlw	1
  1118     01AD  07A2               	addwf	_EE_STORE+2,f
  1119     01AE  3000               	movlw	0
  1120     01AF  3DA3               	addwfc	_EE_STORE+3,f
  1121     01B0                     l1250:
  1122                           
  1123                           ;Project_ATCS_Decorder_Module.c: 59:             } while (COUNT < 4);
  1124     01B0  3004               	movlw	4
  1125     01B1  0234               	subwf	EEPROM_SELECT@COUNT,w
  1126     01B2  1C03               	skipc
  1127     01B3  29B5               	goto	u671
  1128     01B4  29B6               	goto	u670
  1129     01B5                     u671:
  1130     01B5  2986               	goto	l1232
  1131     01B6                     u670:
  1132     01B6                     l1252:
  1133                           
  1134                           ;Project_ATCS_Decorder_Module.c: 60:             EE_STORE.EE_ADRS = EE_SAVE;
  1135     01B6  0833               	movf	EEPROM_SELECT@EE_SAVE+1,w
  1136     01B7  00A3               	movwf	_EE_STORE+3
  1137     01B8  0832               	movf	EEPROM_SELECT@EE_SAVE,w
  1138     01B9  00A2               	movwf	_EE_STORE+2
  1139                           
  1140                           ;Project_ATCS_Decorder_Module.c: 62:             EECON1 = 0x44;
  1141     01BA  3044               	movlw	68
  1142     01BB  0023               	movlb	3	; select bank3
  1143     01BC  0095               	movwf	21	;volsfr
  1144                           
  1145                           ;Project_ATCS_Decorder_Module.c: 63:             EECON2 = 0x55;
  1146     01BD  3055               	movlw	85
  1147     01BE  0096               	movwf	22	;volsfr
  1148                           
  1149                           ;Project_ATCS_Decorder_Module.c: 64:             EECON2 = 0xAA;
  1150     01BF  30AA               	movlw	170
  1151     01C0  0096               	movwf	22	;volsfr
  1152     01C1                     l1254:
  1153                           
  1154                           ;Project_ATCS_Decorder_Module.c: 66:             EECON1bits.WR = 1;
  1155     01C1  1495               	bsf	21,1	;volsfr
  1156     01C2                     l1256:
  1157                           
  1158                           ;Project_ATCS_Decorder_Module.c: 67:             INTCONbits.GIE = 1;
  1159     01C2  178B               	bsf	11,7	;volatile
  1160     01C3  2AC1               	goto	l120
  1161     01C4                     l133:	
  1162                           ;Project_ATCS_Decorder_Module.c: 70:         case EE_VERIFY_UID:
  1163                           
  1164                           
  1165                           ;Project_ATCS_Decorder_Module.c: 71:             INTCONbits.GIE = 0;
  1166     01C4  138B               	bcf	11,7	;volatile
  1167     01C5                     l1260:
  1168                           
  1169                           ;Project_ATCS_Decorder_Module.c: 73:                 if(EE_STORE.EE_REPORT[COUNT]){
  1170     01C5  0834               	movf	EEPROM_SELECT@COUNT,w
  1171     01C6  3E2C               	addlw	(low ((_EE_STORE| 0+12)))& (0+255)
  1172     01C7  0086               	movwf	6
  1173     01C8  0187               	clrf	7
  1174     01C9  0801               	movf	1,w
  1175     01CA  1903               	btfsc	3,2
  1176     01CB  29CD               	goto	u681
  1177     01CC  29CE               	goto	u680
  1178     01CD                     u681:
  1179     01CD  29FE               	goto	l1270
  1180     01CE                     u680:
  1181     01CE                     l1262:
  1182                           
  1183                           ;Project_ATCS_Decorder_Module.c: 74:                     EEADR = EE_STORE.EE_ADRS;
  1184     01CE  0823               	movf	_EE_STORE+3,w
  1185     01CF  0023               	movlb	3	; select bank3
  1186     01D0  0092               	movwf	18	;volatile
  1187     01D1  0020               	movlb	0	; select bank0
  1188     01D2  0822               	movf	_EE_STORE+2,w
  1189     01D3  0023               	movlb	3	; select bank3
  1190     01D4  0091               	movwf	17	;volatile
  1191                           
  1192                           ;Project_ATCS_Decorder_Module.c: 75:                     EECON1 = 0x41;
  1193     01D5  3041               	movlw	65
  1194     01D6  0095               	movwf	21	;volsfr
  1195     01D7                     l136:	
  1196                           ;Project_ATCS_Decorder_Module.c: 76:                     while (EECON1bits.RD);
  1197                           
  1198     01D7  1815               	btfsc	21,0	;volsfr
  1199     01D8  29DA               	goto	u691
  1200     01D9  29DB               	goto	u690
  1201     01DA                     u691:
  1202     01DA  29D7               	goto	l136
  1203     01DB                     u690:
  1204     01DB                     l1264:
  1205                           
  1206                           ;Project_ATCS_Decorder_Module.c: 77:                     if (EEDAT != EE_STORE.EE_DATA[C
      +                          OUNT]) {
  1207     01DB  0020               	movlb	0	; select bank0
  1208     01DC  3534               	lslf	EEPROM_SELECT@COUNT,w
  1209     01DD  3E24               	addlw	(low ((_EE_STORE| 0+4)))& (0+255)
  1210     01DE  0086               	movwf	6
  1211     01DF  0187               	clrf	7
  1212     01E0  3F40               	moviw [0]fsr1
  1213     01E1  00B0               	movwf	??_EEPROM_SELECT
  1214     01E2  3F41               	moviw [1]fsr1
  1215     01E3  00B1               	movwf	??_EEPROM_SELECT+1
  1216     01E4  0023               	movlb	3	; select bank3
  1217     01E5  0814               	movf	20,w	;volatile
  1218     01E6  0020               	movlb	0	; select bank0
  1219     01E7  0631               	xorwf	??_EEPROM_SELECT+1,w
  1220     01E8  1D03               	skipz
  1221     01E9  29EE               	goto	u705
  1222     01EA  0023               	movlb	3	; select bank3
  1223     01EB  0813               	movf	19,w	;volatile
  1224     01EC  0020               	movlb	0	; select bank0
  1225     01ED  0630               	xorwf	??_EEPROM_SELECT,w
  1226     01EE                     u705:
  1227     01EE  1903               	skipnz
  1228     01EF  29F1               	goto	u701
  1229     01F0  29F2               	goto	u700
  1230     01F1                     u701:
  1231     01F1  29F9               	goto	l1268
  1232     01F2                     u700:
  1233     01F2                     l1266:
  1234                           
  1235                           ;Project_ATCS_Decorder_Module.c: 78:                         EE_STORE.EE_REPORT[COUNT] =
      +                           0xFF;
  1236     01F2  0834               	movf	EEPROM_SELECT@COUNT,w
  1237     01F3  3E2C               	addlw	(low ((_EE_STORE| 0+12)))& (0+255)
  1238     01F4  0086               	movwf	6
  1239     01F5  0187               	clrf	7
  1240     01F6  30FF               	movlw	255
  1241     01F7  0081               	movwf	1
  1242                           
  1243                           ;Project_ATCS_Decorder_Module.c: 79:                     } else {
  1244     01F8  29FE               	goto	l1270
  1245     01F9                     l1268:
  1246                           
  1247                           ;Project_ATCS_Decorder_Module.c: 80:                         EE_STORE.EE_REPORT[COUNT] =
      +                           0x00;
  1248     01F9  0834               	movf	EEPROM_SELECT@COUNT,w
  1249     01FA  3E2C               	addlw	(low ((_EE_STORE| 0+12)))& (0+255)
  1250     01FB  0086               	movwf	6
  1251     01FC  0187               	clrf	7
  1252     01FD  0181               	clrf	1
  1253     01FE                     l1270:
  1254                           
  1255                           ;Project_ATCS_Decorder_Module.c: 83:                 COUNT++;
  1256     01FE  3001               	movlw	1
  1257     01FF  00B0               	movwf	??_EEPROM_SELECT
  1258     0200  0830               	movf	??_EEPROM_SELECT,w
  1259     0201  07B4               	addwf	EEPROM_SELECT@COUNT,f
  1260     0202                     l1272:
  1261                           
  1262                           ;Project_ATCS_Decorder_Module.c: 84:                 EE_STORE.EE_ADRS++;
  1263     0202  3001               	movlw	1
  1264     0203  07A2               	addwf	_EE_STORE+2,f
  1265     0204  3000               	movlw	0
  1266     0205  3DA3               	addwfc	_EE_STORE+3,f
  1267     0206                     l1274:
  1268                           
  1269                           ;Project_ATCS_Decorder_Module.c: 85:             } while (COUNT < 4);
  1270     0206  3004               	movlw	4
  1271     0207  0234               	subwf	EEPROM_SELECT@COUNT,w
  1272     0208  1C03               	skipc
  1273     0209  2A0B               	goto	u711
  1274     020A  2A0C               	goto	u710
  1275     020B                     u711:
  1276     020B  29C5               	goto	l1260
  1277     020C                     u710:
  1278     020C                     l141:
  1279                           
  1280                           ;Project_ATCS_Decorder_Module.c: 86:             INTCONbits.GIE = 1;
  1281     020C  178B               	bsf	11,7	;volatile
  1282                           
  1283                           ;Project_ATCS_Decorder_Module.c: 87:             return;
  1284     020D  2AC1               	goto	l120
  1285     020E                     l1276:
  1286                           
  1287                           ;Project_ATCS_Decorder_Module.c: 91:                 if(EE_STORE.EE_REPORT[COUNT]){
  1288     020E  0834               	movf	EEPROM_SELECT@COUNT,w
  1289     020F  3E2C               	addlw	(low ((_EE_STORE| 0+12)))& (0+255)
  1290     0210  0086               	movwf	6
  1291     0211  0187               	clrf	7
  1292     0212  0801               	movf	1,w
  1293     0213  1903               	btfsc	3,2
  1294     0214  2A16               	goto	u721
  1295     0215  2A17               	goto	u720
  1296     0216                     u721:
  1297     0216  2A31               	goto	l1294
  1298     0217                     u720:
  1299     0217                     l1278:
  1300                           
  1301                           ;Project_ATCS_Decorder_Module.c: 92:                     EEADR = EE_STORE.EE_ADRS;
  1302     0217  0823               	movf	_EE_STORE+3,w
  1303     0218  0023               	movlb	3	; select bank3
  1304     0219  0092               	movwf	18	;volatile
  1305     021A  0020               	movlb	0	; select bank0
  1306     021B  0822               	movf	_EE_STORE+2,w
  1307     021C  0023               	movlb	3	; select bank3
  1308     021D  0091               	movwf	17	;volatile
  1309     021E                     l1280:
  1310                           
  1311                           ;Project_ATCS_Decorder_Module.c: 93:                     EEDAT = EE_STORE.EE_DATA[COUNT]
      +                          ;
  1312     021E  0020               	movlb	0	; select bank0
  1313     021F  3534               	lslf	EEPROM_SELECT@COUNT,w
  1314     0220  3E24               	addlw	(low ((_EE_STORE| 0+4)))& (0+255)
  1315     0221  0086               	movwf	6
  1316     0222  0187               	clrf	7
  1317     0223  3F40               	moviw [0]fsr1
  1318     0224  0023               	movlb	3	; select bank3
  1319     0225  0093               	movwf	19	;volatile
  1320     0226  3F41               	moviw [1]fsr1
  1321     0227  0094               	movwf	20	;volatile
  1322     0228                     l1282:
  1323                           
  1324                           ;Project_ATCS_Decorder_Module.c: 94:                     EECON1 = 0x44;
  1325     0228  3044               	movlw	68
  1326     0229  0095               	movwf	21	;volsfr
  1327     022A                     l1284:
  1328                           
  1329                           ;Project_ATCS_Decorder_Module.c: 95:                     EECON2 = 0x55;
  1330     022A  3055               	movlw	85
  1331     022B  0096               	movwf	22	;volsfr
  1332     022C                     l1286:
  1333                           
  1334                           ;Project_ATCS_Decorder_Module.c: 96:                     EECON2 = 0xAA;
  1335     022C  30AA               	movlw	170
  1336     022D  0096               	movwf	22	;volsfr
  1337     022E                     l1288:
  1338                           
  1339                           ;Project_ATCS_Decorder_Module.c: 97:                     EECON1bits.WR = 1;
  1340     022E  1495               	bsf	21,1	;volsfr
  1341     022F                     l1290:
  1342                           
  1343                           ;Project_ATCS_Decorder_Module.c: 98:                     INTCONbits.GIE = 1;
  1344     022F  178B               	bsf	11,7	;volatile
  1345     0230  2AC1               	goto	l120
  1346     0231                     l1294:
  1347                           
  1348                           ;Project_ATCS_Decorder_Module.c: 101:                 COUNT++;
  1349     0231  3001               	movlw	1
  1350     0232  00B0               	movwf	??_EEPROM_SELECT
  1351     0233  0830               	movf	??_EEPROM_SELECT,w
  1352     0234  07B4               	addwf	EEPROM_SELECT@COUNT,f
  1353     0235                     l1296:
  1354                           
  1355                           ;Project_ATCS_Decorder_Module.c: 102:                 EEADR = EE_STORE.EE_ADRS++;
  1356     0235  0823               	movf	_EE_STORE+3,w
  1357     0236  0023               	movlb	3	; select bank3
  1358     0237  0092               	movwf	18	;volatile
  1359     0238  0020               	movlb	0	; select bank0
  1360     0239  0822               	movf	_EE_STORE+2,w
  1361     023A  0023               	movlb	3	; select bank3
  1362     023B  0091               	movwf	17	;volatile
  1363     023C                     l1298:
  1364     023C  3001               	movlw	1
  1365     023D  0020               	movlb	0	; select bank0
  1366     023E  07A2               	addwf	_EE_STORE+2,f
  1367     023F  3000               	movlw	0
  1368     0240  3DA3               	addwfc	_EE_STORE+3,f
  1369     0241                     l1300:
  1370                           
  1371                           ;Project_ATCS_Decorder_Module.c: 103:             }while(COUNT < 4);
  1372     0241  3004               	movlw	4
  1373     0242  0234               	subwf	EEPROM_SELECT@COUNT,w
  1374     0243  1C03               	skipc
  1375     0244  2A46               	goto	u731
  1376     0245  2A47               	goto	u730
  1377     0246                     u731:
  1378     0246  2A0E               	goto	l1276
  1379     0247                     u730:
  1380     0247                     l145:
  1381                           
  1382                           ;Project_ATCS_Decorder_Module.c: 104:             INTCONbits.GIE = 1;
  1383     0247  178B               	bsf	11,7	;volatile
  1384                           
  1385                           ;Project_ATCS_Decorder_Module.c: 105:             return;
  1386     0248  2AC1               	goto	l120
  1387     0249                     l1302:
  1388                           
  1389                           ;Project_ATCS_Decorder_Module.c: 109:                 if(EE_STORE.EE_REPORT[COUNT]){
  1390     0249  0834               	movf	EEPROM_SELECT@COUNT,w
  1391     024A  3E2C               	addlw	(low ((_EE_STORE| 0+12)))& (0+255)
  1392     024B  0086               	movwf	6
  1393     024C  0187               	clrf	7
  1394     024D  0801               	movf	1,w
  1395     024E  1903               	btfsc	3,2
  1396     024F  2A51               	goto	u741
  1397     0250  2A52               	goto	u740
  1398     0251                     u741:
  1399     0251  2A8D               	goto	l1314
  1400     0252                     u740:
  1401     0252                     l1304:
  1402                           
  1403                           ;Project_ATCS_Decorder_Module.c: 110:                     EEADR = EE_STORE.EE_ADRS;
  1404     0252  0823               	movf	_EE_STORE+3,w
  1405     0253  0023               	movlb	3	; select bank3
  1406     0254  0092               	movwf	18	;volatile
  1407     0255  0020               	movlb	0	; select bank0
  1408     0256  0822               	movf	_EE_STORE+2,w
  1409     0257  0023               	movlb	3	; select bank3
  1410     0258  0091               	movwf	17	;volatile
  1411                           
  1412                           ;Project_ATCS_Decorder_Module.c: 111:                     EECON1 = 0x01;
  1413     0259  3001               	movlw	1
  1414     025A  0095               	movwf	21	;volsfr
  1415     025B                     l149:	
  1416                           ;Project_ATCS_Decorder_Module.c: 112:                     while (EECON1bits.RD);
  1417                           
  1418     025B  1815               	btfsc	21,0	;volsfr
  1419     025C  2A5E               	goto	u751
  1420     025D  2A5F               	goto	u750
  1421     025E                     u751:
  1422     025E  2A5B               	goto	l149
  1423     025F                     u750:
  1424     025F                     l1306:
  1425                           
  1426                           ;Project_ATCS_Decorder_Module.c: 113:                     EE_STORE.EE_DATA[COUNT] = EEDA
      +                          T;
  1427     025F  0020               	movlb	0	; select bank0
  1428     0260  3534               	lslf	EEPROM_SELECT@COUNT,w
  1429     0261  3E24               	addlw	(low ((_EE_STORE| 0+4)))& (0+255)
  1430     0262  0086               	movwf	6
  1431     0263  0187               	clrf	7
  1432     0264  0023               	movlb	3	; select bank3
  1433     0265  0813               	movf	19,w	;volatile
  1434     0266  3FC0               	movwi [0]fsr1
  1435     0267  0814               	movf	20,w	;volatile
  1436     0268  3FC1               	movwi [1]fsr1
  1437                           
  1438                           ;Project_ATCS_Decorder_Module.c: 114:                     if (EEDAT != EE_STORE.EE_DATA[
      +                          COUNT]) {
  1439     0269  0020               	movlb	0	; select bank0
  1440     026A  3534               	lslf	EEPROM_SELECT@COUNT,w
  1441     026B  3E24               	addlw	(low ((_EE_STORE| 0+4)))& (0+255)
  1442     026C  0086               	movwf	6
  1443     026D  0187               	clrf	7
  1444     026E  3F40               	moviw [0]fsr1
  1445     026F  00B0               	movwf	??_EEPROM_SELECT
  1446     0270  3F41               	moviw [1]fsr1
  1447     0271  00B1               	movwf	??_EEPROM_SELECT+1
  1448     0272  0023               	movlb	3	; select bank3
  1449     0273  0814               	movf	20,w	;volatile
  1450     0274  0020               	movlb	0	; select bank0
  1451     0275  0631               	xorwf	??_EEPROM_SELECT+1,w
  1452     0276  1D03               	skipz
  1453     0277  2A7C               	goto	u765
  1454     0278  0023               	movlb	3	; select bank3
  1455     0279  0813               	movf	19,w	;volatile
  1456     027A  0020               	movlb	0	; select bank0
  1457     027B  0630               	xorwf	??_EEPROM_SELECT,w
  1458     027C                     u765:
  1459     027C  1903               	skipnz
  1460     027D  2A7F               	goto	u761
  1461     027E  2A80               	goto	u760
  1462     027F                     u761:
  1463     027F  2A87               	goto	l1310
  1464     0280                     u760:
  1465     0280                     l1308:
  1466                           
  1467                           ;Project_ATCS_Decorder_Module.c: 115:                         EE_STORE.EE_REPORT[COUNT] 
      +                          = 0xFF;
  1468     0280  0834               	movf	EEPROM_SELECT@COUNT,w
  1469     0281  3E2C               	addlw	(low ((_EE_STORE| 0+12)))& (0+255)
  1470     0282  0086               	movwf	6
  1471     0283  0187               	clrf	7
  1472     0284  30FF               	movlw	255
  1473     0285  0081               	movwf	1
  1474                           
  1475                           ;Project_ATCS_Decorder_Module.c: 116:                     } else {
  1476     0286  2AC1               	goto	l120
  1477     0287                     l1310:
  1478                           
  1479                           ;Project_ATCS_Decorder_Module.c: 117:                         EE_STORE.EE_REPORT[COUNT] 
      +                          = 0x00;
  1480     0287  0834               	movf	EEPROM_SELECT@COUNT,w
  1481     0288  3E2C               	addlw	(low ((_EE_STORE| 0+12)))& (0+255)
  1482     0289  0086               	movwf	6
  1483     028A  0187               	clrf	7
  1484     028B  0181               	clrf	1
  1485     028C  2AC1               	goto	l120
  1486     028D                     l1314:
  1487                           
  1488                           ;Project_ATCS_Decorder_Module.c: 121:                 COUNT++;
  1489     028D  3001               	movlw	1
  1490     028E  00B0               	movwf	??_EEPROM_SELECT
  1491     028F  0830               	movf	??_EEPROM_SELECT,w
  1492     0290  07B4               	addwf	EEPROM_SELECT@COUNT,f
  1493     0291                     l1316:
  1494                           
  1495                           ;Project_ATCS_Decorder_Module.c: 122:                 EEADR = EE_STORE.EE_ADRS++;
  1496     0291  0823               	movf	_EE_STORE+3,w
  1497     0292  0023               	movlb	3	; select bank3
  1498     0293  0092               	movwf	18	;volatile
  1499     0294  0020               	movlb	0	; select bank0
  1500     0295  0822               	movf	_EE_STORE+2,w
  1501     0296  0023               	movlb	3	; select bank3
  1502     0297  0091               	movwf	17	;volatile
  1503     0298                     l1318:
  1504     0298  3001               	movlw	1
  1505     0299  0020               	movlb	0	; select bank0
  1506     029A  07A2               	addwf	_EE_STORE+2,f
  1507     029B  3000               	movlw	0
  1508     029C  3DA3               	addwfc	_EE_STORE+3,f
  1509     029D                     l1320:
  1510                           
  1511                           ;Project_ATCS_Decorder_Module.c: 123:             }while(COUNT < 4);
  1512     029D  3004               	movlw	4
  1513     029E  0234               	subwf	EEPROM_SELECT@COUNT,w
  1514     029F  1C03               	skipc
  1515     02A0  2AA2               	goto	u771
  1516     02A1  2AA3               	goto	u770
  1517     02A2                     u771:
  1518     02A2  2A49               	goto	l1302
  1519     02A3                     u770:
  1520     02A3                     l154:
  1521                           
  1522                           ;Project_ATCS_Decorder_Module.c: 124:             INTCONbits.GIE = 1;
  1523     02A3  178B               	bsf	11,7	;volatile
  1524                           
  1525                           ;Project_ATCS_Decorder_Module.c: 125:             return;
  1526     02A4  2AC1               	goto	l120
  1527     02A5                     l1324:
  1528     02A5  0820               	movf	_EE_STORE,w
  1529     02A6  00B0               	movwf	??_EEPROM_SELECT
  1530     02A7  01B1               	clrf	??_EEPROM_SELECT+1
  1531                           
  1532                           ; Switch on 2 bytes has been partitioned into a top level switch of size 1, and 1 sub-sw
      +                          itches
  1533                           ; Switch size 1, requested type "simple"
  1534                           ; Number of cases is 1, Range of values is 0 to 0
  1535                           ; switch strategies available:
  1536                           ; Name         Instructions Cycles
  1537                           ; simple_byte            4     3 (average)
  1538                           ; direct_byte            8     6 (fixed)
  1539                           ; jumptable            260     6 (fixed)
  1540                           ;	Chosen strategy is simple_byte
  1541     02A8  0831               	movf	??_EEPROM_SELECT+1,w
  1542     02A9  3A00               	xorlw	0	; case 0
  1543     02AA  1903               	skipnz
  1544     02AB  2AAD               	goto	l1412
  1545     02AC  2AC1               	goto	l120
  1546     02AD                     l1412:
  1547                           
  1548                           ; Switch size 1, requested type "simple"
  1549                           ; Number of cases is 6, Range of values is 0 to 5
  1550                           ; switch strategies available:
  1551                           ; Name         Instructions Cycles
  1552                           ; direct_byte           18     6 (fixed)
  1553                           ; simple_byte           19    10 (average)
  1554                           ; jumptable            260     6 (fixed)
  1555                           ;	Chosen strategy is simple_byte
  1556     02AD  0830               	movf	??_EEPROM_SELECT,w
  1557     02AE  3A00               	xorlw	0	; case 0
  1558     02AF  1903               	skipnz
  1559     02B0  2917               	goto	l1202
  1560     02B1  3A01               	xorlw	1	; case 1
  1561     02B2  1903               	skipnz
  1562     02B3  2952               	goto	l1220
  1563     02B4  3A03               	xorlw	3	; case 2
  1564     02B5  1903               	skipnz
  1565     02B6  2981               	goto	l129
  1566     02B7  3A01               	xorlw	1	; case 3
  1567     02B8  1903               	skipnz
  1568     02B9  29C4               	goto	l133
  1569     02BA  3A07               	xorlw	7	; case 4
  1570     02BB  1903               	skipnz
  1571     02BC  2A0E               	goto	l1276
  1572     02BD  3A01               	xorlw	1	; case 5
  1573     02BE  1903               	skipnz
  1574     02BF  2A49               	goto	l1302
  1575     02C0  2AC1               	goto	l120
  1576     02C1                     l120:
  1577     02C1  0008               	return
  1578     02C2                     __end_of_EEPROM_SELECT:
  1579                           
  1580                           	psect	intentry
  1581     0004                     __pintentry:	
  1582 ;; *************** function _isr *****************
  1583 ;; Defined at:
  1584 ;;		line 15 in file "Project_ATCS_Decorder_INTERRUPT.c"
  1585 ;; Parameters:    Size  Location     Type
  1586 ;;		None
  1587 ;; Auto vars:     Size  Location     Type
  1588 ;;  COUNT           2    6[COMMON] int 
  1589 ;; Return value:  Size  Location     Type
  1590 ;;                  1    wreg      void 
  1591 ;; Registers used:
  1592 ;;		wreg, fsr0l, fsr0h, fsr1l, fsr1h, status,2, status,0, pclath, cstack
  1593 ;; Tracked objects:
  1594 ;;		On entry : 0/0
  1595 ;;		On exit  : 0/0
  1596 ;;		Unchanged: 0/0
  1597 ;; Data sizes:     COMMON   BANK0
  1598 ;;      Params:         0       0
  1599 ;;      Locals:         2       0
  1600 ;;      Temps:          1       0
  1601 ;;      Totals:         3       0
  1602 ;;Total ram usage:        3 bytes
  1603 ;; Hardware stack levels used: 1
  1604 ;; Hardware stack levels required when called: 1
  1605 ;; This function calls:
  1606 ;;		i1_EEPROM_SELECT
  1607 ;; This function is called by:
  1608 ;;		Interrupt level 1
  1609 ;; This function uses a non-reentrant model
  1610 ;;
  1611                           
  1612     0004                     _isr:
  1613                           
  1614                           ;incstack = 0
  1615     0004  147E               	bsf	int$flags,0	;set compiler interrupt flag (level 1)
  1616                           
  1617                           ; Regs used in _isr: [wreg-fsr1h+status,2+status,0+pclath+cstack]
  1618     0005  3180               	pagesel	$
  1619     0006                     i1l1052:
  1620     0006                     i1l1054:
  1621                           
  1622                           ;Project_ATCS_Decorder_INTERRUPT.c: 18:     if(PIR1bits.CCP1IF){
  1623     0006  0020               	movlb	0	; select bank0
  1624     0007  1D11               	btfss	17,2	;volatile
  1625     0008  280A               	goto	u37_21
  1626     0009  280B               	goto	u37_20
  1627     000A                     u37_21:
  1628     000A  28DB               	goto	i1l69
  1629     000B                     u37_20:
  1630     000B                     i1l1056:
  1631                           
  1632                           ;Project_ATCS_Decorder_INTERRUPT.c: 19:         PIR1 = 0x00;
  1633     000B  0191               	clrf	17	;volatile
  1634                           
  1635                           ;Project_ATCS_Decorder_INTERRUPT.c: 20:         TMR1H = 0x00;
  1636     000C  0197               	clrf	23	;volatile
  1637                           
  1638                           ;Project_ATCS_Decorder_INTERRUPT.c: 21:         TMR1L = 0x00;
  1639     000D  0196               	clrf	22	;volatile
  1640     000E                     i1l1058:
  1641                           
  1642                           ;Project_ATCS_Decorder_INTERRUPT.c: 22:         COUNT = CCPR1H << 8 | CCPR1L;
  1643     000E  0025               	movlb	5	; select bank5
  1644     000F  0812               	movf	18,w	;volatile
  1645     0010  00F7               	movwf	isr@COUNT+1
  1646     0011  0811               	movf	17,w	;volatile
  1647     0012  00F6               	movwf	isr@COUNT
  1648     0013                     i1l1060:
  1649                           
  1650                           ;Project_ATCS_Decorder_INTERRUPT.c: 23:         if(!(COM_FLAG & 0x01)){
  1651     0013  187B               	btfsc	_COM_FLAG,0
  1652     0014  2816               	goto	u38_21
  1653     0015  2817               	goto	u38_20
  1654     0016                     u38_21:
  1655     0016  2859               	goto	i1l70
  1656     0017                     u38_20:
  1657     0017                     i1l1062:
  1658                           
  1659                           ;Project_ATCS_Decorder_INTERRUPT.c: 24:             if(COUNT >= 0x00C0 && COUNT <= 0x010
      +                          0 && !(COM_FLAG & 0x02) ){
  1660     0017  0877               	movf	isr@COUNT+1,w
  1661     0018  3A80               	xorlw	128
  1662     0019  00F5               	movwf	??_isr
  1663     001A  3080               	movlw	128
  1664     001B  0275               	subwf	??_isr,w
  1665     001C  1D03               	skipz
  1666     001D  2820               	goto	u39_25
  1667     001E  30C0               	movlw	192
  1668     001F  0276               	subwf	isr@COUNT,w
  1669     0020                     u39_25:
  1670     0020  1C03               	skipc
  1671     0021  2823               	goto	u39_21
  1672     0022  2824               	goto	u39_20
  1673     0023                     u39_21:
  1674     0023  283A               	goto	i1l1070
  1675     0024                     u39_20:
  1676     0024                     i1l1064:
  1677     0024  0877               	movf	isr@COUNT+1,w
  1678     0025  3A80               	xorlw	128
  1679     0026  00F5               	movwf	??_isr
  1680     0027  3081               	movlw	129
  1681     0028  0275               	subwf	??_isr,w
  1682     0029  1D03               	skipz
  1683     002A  282D               	goto	u40_25
  1684     002B  3001               	movlw	1
  1685     002C  0276               	subwf	isr@COUNT,w
  1686     002D                     u40_25:
  1687     002D  1803               	skipnc
  1688     002E  2830               	goto	u40_21
  1689     002F  2831               	goto	u40_20
  1690     0030                     u40_21:
  1691     0030  283A               	goto	i1l1070
  1692     0031                     u40_20:
  1693     0031                     i1l1066:
  1694     0031  18FB               	btfsc	_COM_FLAG,1
  1695     0032  2834               	goto	u41_21
  1696     0033  2835               	goto	u41_20
  1697     0034                     u41_21:
  1698     0034  283A               	goto	i1l1070
  1699     0035                     u41_20:
  1700     0035                     i1l1068:
  1701                           
  1702                           ;Project_ATCS_Decorder_INTERRUPT.c: 25:                 COUNTER++;
  1703     0035  3001               	movlw	1
  1704     0036  00F5               	movwf	??_isr
  1705     0037  0875               	movf	??_isr,w
  1706     0038  07F9               	addwf	_COUNTER,f
  1707                           
  1708                           ;Project_ATCS_Decorder_INTERRUPT.c: 26:             }
  1709     0039  28FD               	goto	i1l96
  1710     003A                     i1l1070:
  1711     003A  0877               	movf	isr@COUNT+1,w
  1712     003B  3A80               	xorlw	128
  1713     003C  00F5               	movwf	??_isr
  1714     003D  3080               	movlw	128
  1715     003E  0275               	subwf	??_isr,w
  1716     003F  1D03               	skipz
  1717     0040  2843               	goto	u42_25
  1718     0041  3081               	movlw	129
  1719     0042  0276               	subwf	isr@COUNT,w
  1720     0043                     u42_25:
  1721     0043  1803               	skipnc
  1722     0044  2846               	goto	u42_21
  1723     0045  2847               	goto	u42_20
  1724     0046                     u42_21:
  1725     0046  284B               	goto	i1l1074
  1726     0047                     u42_20:
  1727     0047                     i1l1072:
  1728     0047  1CFB               	btfss	_COM_FLAG,1
  1729     0048  284A               	goto	u43_21
  1730     0049  284B               	goto	u43_20
  1731     004A                     u43_21:
  1732     004A  28FD               	goto	i1l96
  1733     004B                     u43_20:
  1734     004B                     i1l1074:
  1735                           
  1736                           ;Project_ATCS_Decorder_INTERRUPT.c: 29:                 if(COUNTER > 11){
  1737     004B  300C               	movlw	12
  1738     004C  0279               	subwf	_COUNTER,w
  1739     004D  1C03               	skipc
  1740     004E  2850               	goto	u44_21
  1741     004F  2851               	goto	u44_20
  1742     0050                     u44_21:
  1743     0050  28DA               	goto	i1l77
  1744     0051                     u44_20:
  1745     0051                     i1l1076:
  1746                           
  1747                           ;Project_ATCS_Decorder_INTERRUPT.c: 30:                     COM_FLAG = COM_FLAG | 0x01;
  1748     0051  087B               	movf	_COM_FLAG,w
  1749     0052  3801               	iorlw	1
  1750     0053  00FB               	movwf	_COM_FLAG
  1751                           
  1752                           ;Project_ATCS_Decorder_INTERRUPT.c: 31:                     COM_FLAG = COM_FLAG & 0xFD;
  1753     0054  087B               	movf	_COM_FLAG,w
  1754     0055  39FD               	andlw	253
  1755     0056  00FB               	movwf	_COM_FLAG
  1756     0057                     i1l1078:
  1757                           
  1758                           ;Project_ATCS_Decorder_INTERRUPT.c: 32:                     COUNTER = 0x00;
  1759     0057  01F9               	clrf	_COUNTER
  1760     0058  28FD               	goto	i1l96
  1761     0059                     i1l70:
  1762     0059  1C7B               	btfss	_COM_FLAG,0
  1763     005A  285C               	goto	u45_21
  1764     005B  285D               	goto	u45_20
  1765     005C                     u45_21:
  1766     005C  28FD               	goto	i1l96
  1767     005D                     u45_20:
  1768     005D                     i1l1080:
  1769                           
  1770                           ;Project_ATCS_Decorder_INTERRUPT.c: 37:             if(COUNTER < 8 ){
  1771     005D  3008               	movlw	8
  1772     005E  0279               	subwf	_COUNTER,w
  1773     005F  1803               	skipnc
  1774     0060  2862               	goto	u46_21
  1775     0061  2863               	goto	u46_20
  1776     0062                     u46_21:
  1777     0062  2899               	goto	i1l1096
  1778     0063                     u46_20:
  1779     0063                     i1l1082:
  1780                           
  1781                           ;Project_ATCS_Decorder_INTERRUPT.c: 38:                 if(COUNT >= 0x00C0 && COUNT <= 0
      +                          x0100 && !(COM_FLAG & 0x02)){
  1782     0063  0877               	movf	isr@COUNT+1,w
  1783     0064  3A80               	xorlw	128
  1784     0065  00F5               	movwf	??_isr
  1785     0066  3080               	movlw	128
  1786     0067  0275               	subwf	??_isr,w
  1787     0068  1D03               	skipz
  1788     0069  286C               	goto	u47_25
  1789     006A  30C0               	movlw	192
  1790     006B  0276               	subwf	isr@COUNT,w
  1791     006C                     u47_25:
  1792     006C  1C03               	skipc
  1793     006D  286F               	goto	u47_21
  1794     006E  2870               	goto	u47_20
  1795     006F                     u47_21:
  1796     006F  2884               	goto	i1l1090
  1797     0070                     u47_20:
  1798     0070                     i1l1084:
  1799     0070  0877               	movf	isr@COUNT+1,w
  1800     0071  3A80               	xorlw	128
  1801     0072  00F5               	movwf	??_isr
  1802     0073  3081               	movlw	129
  1803     0074  0275               	subwf	??_isr,w
  1804     0075  1D03               	skipz
  1805     0076  2879               	goto	u48_25
  1806     0077  3001               	movlw	1
  1807     0078  0276               	subwf	isr@COUNT,w
  1808     0079                     u48_25:
  1809     0079  1803               	skipnc
  1810     007A  287C               	goto	u48_21
  1811     007B  287D               	goto	u48_20
  1812     007C                     u48_21:
  1813     007C  2884               	goto	i1l1090
  1814     007D                     u48_20:
  1815     007D                     i1l1086:
  1816     007D  18FB               	btfsc	_COM_FLAG,1
  1817     007E  2880               	goto	u49_21
  1818     007F  2881               	goto	u49_20
  1819     0080                     u49_21:
  1820     0080  2884               	goto	i1l1090
  1821     0081                     u49_20:
  1822     0081                     i1l1088:
  1823                           
  1824                           ;Project_ATCS_Decorder_INTERRUPT.c: 39:                     DATA = (UnCHR) (DATA << 1) |
      +                           0x01;
  1825     0081  1403               	setc
  1826     0082  0DFA               	rlf	_DATA,f
  1827                           
  1828                           ;Project_ATCS_Decorder_INTERRUPT.c: 40:                 }else if(COUNT > 0x0080 || COM_F
      +                          LAG & 0x02){
  1829     0083  2835               	goto	i1l1068
  1830     0084                     i1l1090:
  1831     0084  0877               	movf	isr@COUNT+1,w
  1832     0085  3A80               	xorlw	128
  1833     0086  00F5               	movwf	??_isr
  1834     0087  3080               	movlw	128
  1835     0088  0275               	subwf	??_isr,w
  1836     0089  1D03               	skipz
  1837     008A  288D               	goto	u50_25
  1838     008B  3081               	movlw	129
  1839     008C  0276               	subwf	isr@COUNT,w
  1840     008D                     u50_25:
  1841     008D  1803               	skipnc
  1842     008E  2890               	goto	u50_21
  1843     008F  2891               	goto	u50_20
  1844     0090                     u50_21:
  1845     0090  2895               	goto	i1l1094
  1846     0091                     u50_20:
  1847     0091                     i1l1092:
  1848     0091  1CFB               	btfss	_COM_FLAG,1
  1849     0092  2894               	goto	u51_21
  1850     0093  2895               	goto	u51_20
  1851     0094                     u51_21:
  1852     0094  2835               	goto	i1l1068
  1853     0095                     u51_20:
  1854     0095                     i1l1094:
  1855                           
  1856                           ;Project_ATCS_Decorder_INTERRUPT.c: 41:                     DATA = (UnCHR) (DATA << 1) &
      +                           0xFE;
  1857     0095  357A               	lslf	_DATA,w
  1858     0096  39FE               	andlw	254
  1859     0097  00FA               	movwf	_DATA
  1860     0098  2835               	goto	i1l1068
  1861     0099                     i1l1096:
  1862                           
  1863                           ;Project_ATCS_Decorder_INTERRUPT.c: 46:                 if(COUNT >= 0x00C0 && COUNT <= 0
      +                          x0100 && !(COM_FLAG & 0x02)){
  1864     0099  0877               	movf	isr@COUNT+1,w
  1865     009A  3A80               	xorlw	128
  1866     009B  00F5               	movwf	??_isr
  1867     009C  3080               	movlw	128
  1868     009D  0275               	subwf	??_isr,w
  1869     009E  1D03               	skipz
  1870     009F  28A2               	goto	u52_25
  1871     00A0  30C0               	movlw	192
  1872     00A1  0276               	subwf	isr@COUNT,w
  1873     00A2                     u52_25:
  1874     00A2  1C03               	skipc
  1875     00A3  28A5               	goto	u52_21
  1876     00A4  28A6               	goto	u52_20
  1877     00A5                     u52_21:
  1878     00A5  28C5               	goto	i1l1110
  1879     00A6                     u52_20:
  1880     00A6                     i1l1098:
  1881     00A6  0877               	movf	isr@COUNT+1,w
  1882     00A7  3A80               	xorlw	128
  1883     00A8  00F5               	movwf	??_isr
  1884     00A9  3081               	movlw	129
  1885     00AA  0275               	subwf	??_isr,w
  1886     00AB  1D03               	skipz
  1887     00AC  28AF               	goto	u53_25
  1888     00AD  3001               	movlw	1
  1889     00AE  0276               	subwf	isr@COUNT,w
  1890     00AF                     u53_25:
  1891     00AF  1803               	skipnc
  1892     00B0  28B2               	goto	u53_21
  1893     00B1  28B3               	goto	u53_20
  1894     00B2                     u53_21:
  1895     00B2  28C5               	goto	i1l1110
  1896     00B3                     u53_20:
  1897     00B3                     i1l1100:
  1898     00B3  18FB               	btfsc	_COM_FLAG,1
  1899     00B4  28B6               	goto	u54_21
  1900     00B5  28B7               	goto	u54_20
  1901     00B6                     u54_21:
  1902     00B6  28C5               	goto	i1l1110
  1903     00B7                     u54_20:
  1904     00B7                     i1l1102:
  1905                           
  1906                           ;Project_ATCS_Decorder_INTERRUPT.c: 47:                     STACK[STCR] = DATA;
  1907     00B7  0878               	movf	_STCR,w
  1908     00B8  3EA0               	addlw	160
  1909     00B9  0086               	movwf	6
  1910     00BA  0187               	clrf	7
  1911     00BB  087A               	movf	_DATA,w
  1912     00BC  0081               	movwf	1
  1913     00BD                     i1l1104:
  1914                           
  1915                           ;Project_ATCS_Decorder_INTERRUPT.c: 48:                     COM_FLAG = COM_FLAG | 0x04;
  1916     00BD  087B               	movf	_COM_FLAG,w
  1917     00BE  3804               	iorlw	4
  1918     00BF  00FB               	movwf	_COM_FLAG
  1919     00C0                     i1l1106:
  1920                           
  1921                           ;Project_ATCS_Decorder_INTERRUPT.c: 49:                     COM_FLAG = COM_FLAG & 0xFE;
  1922     00C0  087B               	movf	_COM_FLAG,w
  1923     00C1  39FE               	andlw	254
  1924     00C2  00FB               	movwf	_COM_FLAG
  1925     00C3                     i1l1108:
  1926                           
  1927                           ;Project_ATCS_Decorder_INTERRUPT.c: 50:                     STCR = 0x00;
  1928     00C3  01F8               	clrf	_STCR
  1929                           
  1930                           ;Project_ATCS_Decorder_INTERRUPT.c: 51:                 }else{
  1931     00C4  2857               	goto	i1l1078
  1932     00C5                     i1l1110:
  1933                           
  1934                           ;Project_ATCS_Decorder_INTERRUPT.c: 52:                     if(STCR == 32){
  1935     00C5  3020               	movlw	32
  1936     00C6  0678               	xorwf	_STCR,w
  1937     00C7  1D03               	btfss	3,2
  1938     00C8  28CA               	goto	u55_21
  1939     00C9  28CB               	goto	u55_20
  1940     00CA                     u55_21:
  1941     00CA  28CC               	goto	i1l1114
  1942     00CB                     u55_20:
  1943     00CB                     i1l1112:
  1944                           
  1945                           ;Project_ATCS_Decorder_INTERRUPT.c: 53:                         STCR = 0;
  1946     00CB  01F8               	clrf	_STCR
  1947     00CC                     i1l1114:
  1948                           
  1949                           ;Project_ATCS_Decorder_INTERRUPT.c: 55:                     STACK[STCR] = DATA;
  1950     00CC  0878               	movf	_STCR,w
  1951     00CD  3EA0               	addlw	160
  1952     00CE  0086               	movwf	6
  1953     00CF  0187               	clrf	7
  1954     00D0  087A               	movf	_DATA,w
  1955     00D1  0081               	movwf	1
  1956     00D2                     i1l1116:
  1957                           
  1958                           ;Project_ATCS_Decorder_INTERRUPT.c: 56:                     COM_FLAG = COM_FLAG & 0xFB;
  1959     00D2  087B               	movf	_COM_FLAG,w
  1960     00D3  39FB               	andlw	251
  1961     00D4  00FB               	movwf	_COM_FLAG
  1962     00D5                     i1l1118:
  1963                           
  1964                           ;Project_ATCS_Decorder_INTERRUPT.c: 57:                     STCR++;
  1965     00D5  3001               	movlw	1
  1966     00D6  00F5               	movwf	??_isr
  1967     00D7  0875               	movf	??_isr,w
  1968     00D8  07F8               	addwf	_STCR,f
  1969     00D9  2857               	goto	i1l1078
  1970     00DA                     i1l77:
  1971                           
  1972                           ;Project_ATCS_Decorder_INTERRUPT.c: 62:     }else if(PIR1bits.TMR1IF){
  1973     00DA  28FD               	goto	i1l96
  1974     00DB                     i1l69:
  1975     00DB  1C11               	btfss	17,0	;volatile
  1976     00DC  28DE               	goto	u56_21
  1977     00DD  28DF               	goto	u56_20
  1978     00DE                     u56_21:
  1979     00DE  28E4               	goto	i1l90
  1980     00DF                     u56_20:
  1981     00DF                     i1l1122:
  1982                           
  1983                           ;Project_ATCS_Decorder_INTERRUPT.c: 64:         PIR1 = 0x00;
  1984     00DF  0191               	clrf	17	;volatile
  1985     00E0                     i1l1124:
  1986                           
  1987                           ;Project_ATCS_Decorder_INTERRUPT.c: 65:         COM_FLAG = COM_FLAG | 0x02;
  1988     00E0  087B               	movf	_COM_FLAG,w
  1989     00E1  3802               	iorlw	2
  1990     00E2  00FB               	movwf	_COM_FLAG
  1991                           
  1992                           ;Project_ATCS_Decorder_INTERRUPT.c: 67:     }else if(PIR2bits.EEIF){
  1993     00E3  28FD               	goto	i1l96
  1994     00E4                     i1l90:
  1995     00E4  1E12               	btfss	18,4	;volatile
  1996     00E5  28E7               	goto	u57_21
  1997     00E6  28E8               	goto	u57_20
  1998     00E7                     u57_21:
  1999     00E7  28FD               	goto	i1l96
  2000     00E8                     u57_20:
  2001     00E8                     i1l1126:
  2002                           
  2003                           ;Project_ATCS_Decorder_INTERRUPT.c: 68:         PIR2bits.EEIF = 0;
  2004     00E8  1212               	bcf	18,4	;volatile
  2005     00E9                     i1l1128:
  2006                           
  2007                           ;Project_ATCS_Decorder_INTERRUPT.c: 69:         if(EE_STORE.EE_STATE == EE_WRITE_UID){
  2008     00E9  3002               	movlw	2
  2009     00EA  0620               	xorwf	_EE_STORE,w
  2010     00EB  1D03               	btfss	3,2
  2011     00EC  28EE               	goto	u58_21
  2012     00ED  28EF               	goto	u58_20
  2013     00EE                     u58_21:
  2014     00EE  28F2               	goto	i1l1132
  2015     00EF                     u58_20:
  2016     00EF                     i1l1130:
  2017                           
  2018                           ;Project_ATCS_Decorder_INTERRUPT.c: 70:             EE_STORE.EE_STATE = EE_VERIFY_UID;
  2019     00EF  3003               	movlw	3
  2020     00F0  00A0               	movwf	_EE_STORE
  2021                           
  2022                           ;Project_ATCS_Decorder_INTERRUPT.c: 71:         }else if(EE_STORE.EE_STATE == EE_WRITE_R
      +                          OM){
  2023     00F1  28FA               	goto	i1l1136
  2024     00F2                     i1l1132:
  2025     00F2  3004               	movlw	4
  2026     00F3  0620               	xorwf	_EE_STORE,w
  2027     00F4  1D03               	btfss	3,2
  2028     00F5  28F7               	goto	u59_21
  2029     00F6  28F8               	goto	u59_20
  2030     00F7                     u59_21:
  2031     00F7  28FA               	goto	i1l1136
  2032     00F8                     u59_20:
  2033     00F8                     i1l1134:
  2034                           
  2035                           ;Project_ATCS_Decorder_INTERRUPT.c: 72:             EE_STORE.EE_STATE = EE_VERIFY_ROM;
  2036     00F8  3005               	movlw	5
  2037     00F9  00A0               	movwf	_EE_STORE
  2038     00FA                     i1l1136:
  2039                           
  2040                           ;Project_ATCS_Decorder_INTERRUPT.c: 74:         EEPROM_SELECT();
  2041     00FA  3182  22C2  3180   	fcall	i1_EEPROM_SELECT
  2042     00FD                     i1l96:
  2043     00FD  107E               	bcf	int$flags,0	;clear compiler interrupt flag (level 1)
  2044     00FE  0009               	retfie
  2045     00FF                     __end_of_isr:
  2046                           
  2047                           	psect	text3
  2048     02C2                     __ptext3:	
  2049 ;; *************** function i1_EEPROM_SELECT *****************
  2050 ;; Defined at:
  2051 ;;		line 12 in file "Project_ATCS_Decorder_Module.c"
  2052 ;; Parameters:    Size  Location     Type
  2053 ;;		None
  2054 ;; Auto vars:     Size  Location     Type
  2055 ;;  EE_SAVE         2    2[COMMON] unsigned int 
  2056 ;;  COUNT           1    4[COMMON] unsigned char 
  2057 ;; Return value:  Size  Location     Type
  2058 ;;                  1    wreg      void 
  2059 ;; Registers used:
  2060 ;;		wreg, fsr0l, fsr0h, fsr1l, fsr1h, status,2, status,0
  2061 ;; Tracked objects:
  2062 ;;		On entry : 0/0
  2063 ;;		On exit  : 0/0
  2064 ;;		Unchanged: 0/0
  2065 ;; Data sizes:     COMMON   BANK0
  2066 ;;      Params:         0       0
  2067 ;;      Locals:         3       0
  2068 ;;      Temps:          2       0
  2069 ;;      Totals:         5       0
  2070 ;;Total ram usage:        5 bytes
  2071 ;; Hardware stack levels used: 1
  2072 ;; This function calls:
  2073 ;;		Nothing
  2074 ;; This function is called by:
  2075 ;;		_isr
  2076 ;; This function uses a non-reentrant model
  2077 ;;
  2078                           
  2079     02C2                     i1_EEPROM_SELECT:	
  2080                           ;psect for function i1_EEPROM_SELECT
  2081                           
  2082     02C2                     i1l898:	
  2083                           ;incstack = 0
  2084                           ; Regs used in i1_EEPROM_SELECT: [wreg-fsr1h+status,2+status,0]
  2085                           
  2086                           
  2087                           ;Project_ATCS_Decorder_Module.c: 13:     INTCONbits.GIE = 0;
  2088     02C2  138B               	bcf	11,7	;volatile
  2089     02C3                     i1l900:
  2090                           
  2091                           ;Project_ATCS_Decorder_Module.c: 14:     UnCHR COUNT = 0x00 ;
  2092     02C3  01F4               	clrf	i1EEPROM_SELECT@COUNT
  2093                           
  2094                           ;Project_ATCS_Decorder_Module.c: 16:     switch (EE_STORE.EE_STATE) {
  2095     02C4  2C40               	goto	i1l1024
  2096     02C5                     i1l902:
  2097                           
  2098                           ;Project_ATCS_Decorder_Module.c: 19:                 if(EE_STORE.EE_REPORT[COUNT]){
  2099     02C5  0874               	movf	i1EEPROM_SELECT@COUNT,w
  2100     02C6  3E2C               	addlw	(low ((_EE_STORE| 0+12)))& (0+255)
  2101     02C7  0086               	movwf	6
  2102     02C8  0187               	clrf	7
  2103     02C9  0801               	movf	1,w
  2104     02CA  1903               	btfsc	3,2
  2105     02CB  2ACD               	goto	u19_21
  2106     02CC  2ACE               	goto	u19_20
  2107     02CD                     u19_21:
  2108     02CD  2AE7               	goto	i1l912
  2109     02CE                     u19_20:
  2110     02CE                     i1l904:
  2111                           
  2112                           ;Project_ATCS_Decorder_Module.c: 20:                     EEADR = EE_STORE.EE_ADRS;
  2113     02CE  0823               	movf	_EE_STORE+3,w
  2114     02CF  0023               	movlb	3	; select bank3
  2115     02D0  0092               	movwf	18	;volatile
  2116     02D1  0020               	movlb	0	; select bank0
  2117     02D2  0822               	movf	_EE_STORE+2,w
  2118     02D3  0023               	movlb	3	; select bank3
  2119     02D4  0091               	movwf	17	;volatile
  2120                           
  2121                           ;Project_ATCS_Decorder_Module.c: 21:                     EECON1 = EE_STORE.EE_CONFIG;
  2122     02D5  0020               	movlb	0	; select bank0
  2123     02D6  0821               	movf	_EE_STORE+1,w
  2124     02D7  0023               	movlb	3	; select bank3
  2125     02D8  0095               	movwf	21	;volsfr
  2126     02D9                     i1l117:	
  2127                           ;Project_ATCS_Decorder_Module.c: 22:                     while (EECON1bits.RD);
  2128                           
  2129     02D9  1815               	btfsc	21,0	;volsfr
  2130     02DA  2ADC               	goto	u20_21
  2131     02DB  2ADD               	goto	u20_20
  2132     02DC                     u20_21:
  2133     02DC  2AD9               	goto	i1l117
  2134     02DD                     u20_20:
  2135     02DD                     i1l906:
  2136                           
  2137                           ;Project_ATCS_Decorder_Module.c: 23:                     EE_STORE.EE_DATA[COUNT] = EEDAT
      +                          ;
  2138     02DD  3574               	lslf	i1EEPROM_SELECT@COUNT,w
  2139     02DE  3E24               	addlw	(low ((_EE_STORE| 0+4)))& (0+255)
  2140     02DF  0086               	movwf	6
  2141     02E0  0187               	clrf	7
  2142     02E1  0813               	movf	19,w	;volatile
  2143     02E2  3FC0               	movwi [0]fsr1
  2144     02E3  0814               	movf	20,w	;volatile
  2145     02E4  3FC1               	movwi [1]fsr1
  2146     02E5                     i1l908:
  2147                           
  2148                           ;Project_ATCS_Decorder_Module.c: 24:                     INTCONbits.GIE = 1;
  2149     02E5  178B               	bsf	11,7	;volatile
  2150     02E6  2C5D               	goto	i1l120
  2151     02E7                     i1l912:
  2152                           
  2153                           ;Project_ATCS_Decorder_Module.c: 27:                 COUNT++;
  2154     02E7  3001               	movlw	1
  2155     02E8  00F0               	movwf	??i1_EEPROM_SELECT
  2156     02E9  0870               	movf	??i1_EEPROM_SELECT,w
  2157     02EA  07F4               	addwf	i1EEPROM_SELECT@COUNT,f
  2158     02EB                     i1l914:
  2159                           
  2160                           ;Project_ATCS_Decorder_Module.c: 28:                 EEADR = EE_STORE.EE_ADRS++;
  2161     02EB  0823               	movf	_EE_STORE+3,w
  2162     02EC  0023               	movlb	3	; select bank3
  2163     02ED  0092               	movwf	18	;volatile
  2164     02EE  0020               	movlb	0	; select bank0
  2165     02EF  0822               	movf	_EE_STORE+2,w
  2166     02F0  0023               	movlb	3	; select bank3
  2167     02F1  0091               	movwf	17	;volatile
  2168     02F2                     i1l916:
  2169     02F2  3001               	movlw	1
  2170     02F3  0020               	movlb	0	; select bank0
  2171     02F4  07A2               	addwf	_EE_STORE+2,f
  2172     02F5  3000               	movlw	0
  2173     02F6  3DA3               	addwfc	_EE_STORE+3,f
  2174     02F7                     i1l918:
  2175                           
  2176                           ;Project_ATCS_Decorder_Module.c: 29:             }while(COUNT < 4);
  2177     02F7  3004               	movlw	4
  2178     02F8  0274               	subwf	i1EEPROM_SELECT@COUNT,w
  2179     02F9  1C03               	skipc
  2180     02FA  2AFC               	goto	u21_21
  2181     02FB  2AFD               	goto	u21_20
  2182     02FC                     u21_21:
  2183     02FC  2AC5               	goto	i1l902
  2184     02FD                     u21_20:
  2185     02FD  2C5D               	goto	i1l120
  2186     02FE                     i1l920:
  2187                           
  2188                           ;Project_ATCS_Decorder_Module.c: 34:                 if(EE_STORE.EE_REPORT[COUNT]){
  2189     02FE  0874               	movf	i1EEPROM_SELECT@COUNT,w
  2190     02FF  3E2C               	addlw	(low ((_EE_STORE| 0+12)))& (0+255)
  2191     0300  0086               	movwf	6
  2192     0301  0187               	clrf	7
  2193     0302  0801               	movf	1,w
  2194     0303  1903               	btfsc	3,2
  2195     0304  2B06               	goto	u22_21
  2196     0305  2B07               	goto	u22_20
  2197     0306                     u22_21:
  2198     0306  2B1E               	goto	i1l926
  2199     0307                     u22_20:
  2200     0307                     i1l922:
  2201                           
  2202                           ;Project_ATCS_Decorder_Module.c: 35:                     EEADR = EE_STORE.EE_ADRS;
  2203     0307  0823               	movf	_EE_STORE+3,w
  2204     0308  0023               	movlb	3	; select bank3
  2205     0309  0092               	movwf	18	;volatile
  2206     030A  0020               	movlb	0	; select bank0
  2207     030B  0822               	movf	_EE_STORE+2,w
  2208     030C  0023               	movlb	3	; select bank3
  2209     030D  0091               	movwf	17	;volatile
  2210                           
  2211                           ;Project_ATCS_Decorder_Module.c: 36:                     EECON1 = EE_STORE.EE_CONFIG;
  2212     030E  0020               	movlb	0	; select bank0
  2213     030F  0821               	movf	_EE_STORE+1,w
  2214     0310  0023               	movlb	3	; select bank3
  2215     0311  0095               	movwf	21	;volsfr
  2216     0312                     i1l125:	
  2217                           ;Project_ATCS_Decorder_Module.c: 37:                     while (EECON1bits.RD);
  2218                           
  2219     0312  1815               	btfsc	21,0	;volsfr
  2220     0313  2B15               	goto	u23_21
  2221     0314  2B16               	goto	u23_20
  2222     0315                     u23_21:
  2223     0315  2B12               	goto	i1l125
  2224     0316                     u23_20:
  2225     0316                     i1l924:
  2226                           
  2227                           ;Project_ATCS_Decorder_Module.c: 38:                     EE_STORE.EE_DATA[COUNT] = EEDAT
      +                          ;
  2228     0316  3574               	lslf	i1EEPROM_SELECT@COUNT,w
  2229     0317  3E24               	addlw	(low ((_EE_STORE| 0+4)))& (0+255)
  2230     0318  0086               	movwf	6
  2231     0319  0187               	clrf	7
  2232     031A  0813               	movf	19,w	;volatile
  2233     031B  3FC0               	movwi [0]fsr1
  2234     031C  0814               	movf	20,w	;volatile
  2235     031D  3FC1               	movwi [1]fsr1
  2236     031E                     i1l926:
  2237                           
  2238                           ;Project_ATCS_Decorder_Module.c: 40:                 EE_STORE.EE_ADRS++;
  2239     031E  3001               	movlw	1
  2240     031F  0020               	movlb	0	; select bank0
  2241     0320  07A2               	addwf	_EE_STORE+2,f
  2242     0321  3000               	movlw	0
  2243     0322  3DA3               	addwfc	_EE_STORE+3,f
  2244     0323                     i1l928:
  2245                           
  2246                           ;Project_ATCS_Decorder_Module.c: 41:             } while (COUNT < 4);
  2247     0323  3004               	movlw	4
  2248     0324  0274               	subwf	i1EEPROM_SELECT@COUNT,w
  2249     0325  1C03               	skipc
  2250     0326  2B28               	goto	u24_21
  2251     0327  2B29               	goto	u24_20
  2252     0328                     u24_21:
  2253     0328  2AFE               	goto	i1l920
  2254     0329                     u24_20:
  2255     0329                     i1l128:
  2256                           
  2257                           ;Project_ATCS_Decorder_Module.c: 42:             INTCONbits.GIE = 1;
  2258     0329  178B               	bsf	11,7	;volatile
  2259                           
  2260                           ;Project_ATCS_Decorder_Module.c: 43:             return;
  2261     032A  2C5D               	goto	i1l120
  2262     032B                     i1l129:	
  2263                           ;Project_ATCS_Decorder_Module.c: 45:         case EE_WRITE_UID:
  2264                           
  2265                           
  2266                           ;Project_ATCS_Decorder_Module.c: 46:             INTCONbits.GIE = 0;
  2267     032B  138B               	bcf	11,7	;volatile
  2268     032C                     i1l930:
  2269                           
  2270                           ;Project_ATCS_Decorder_Module.c: 47:             UnINT EE_SAVE = EE_STORE.EE_ADRS;
  2271     032C  0823               	movf	_EE_STORE+3,w
  2272     032D  00F3               	movwf	i1EEPROM_SELECT@EE_SAVE+1
  2273     032E  0822               	movf	_EE_STORE+2,w
  2274     032F  00F2               	movwf	i1EEPROM_SELECT@EE_SAVE
  2275     0330                     i1l932:
  2276                           
  2277                           ;Project_ATCS_Decorder_Module.c: 49:                 if(EE_STORE.EE_REPORT[COUNT]){
  2278     0330  0874               	movf	i1EEPROM_SELECT@COUNT,w
  2279     0331  3E2C               	addlw	(low ((_EE_STORE| 0+12)))& (0+255)
  2280     0332  0086               	movwf	6
  2281     0333  0187               	clrf	7
  2282     0334  0801               	movf	1,w
  2283     0335  1903               	btfsc	3,2
  2284     0336  2B38               	goto	u25_21
  2285     0337  2B39               	goto	u25_20
  2286     0338                     u25_21:
  2287     0338  2B4F               	goto	i1l946
  2288     0339                     u25_20:
  2289     0339                     i1l934:
  2290                           
  2291                           ;Project_ATCS_Decorder_Module.c: 50:                     EEADR = EE_STORE.EE_ADRS;
  2292     0339  0823               	movf	_EE_STORE+3,w
  2293     033A  0023               	movlb	3	; select bank3
  2294     033B  0092               	movwf	18	;volatile
  2295     033C  0020               	movlb	0	; select bank0
  2296     033D  0822               	movf	_EE_STORE+2,w
  2297     033E  0023               	movlb	3	; select bank3
  2298     033F  0091               	movwf	17	;volatile
  2299     0340                     i1l936:
  2300                           
  2301                           ;Project_ATCS_Decorder_Module.c: 51:                     EEDAT = EE_STORE.EE_DATA[COUNT]
      +                          ;
  2302     0340  3574               	lslf	i1EEPROM_SELECT@COUNT,w
  2303     0341  3E24               	addlw	(low ((_EE_STORE| 0+4)))& (0+255)
  2304     0342  0086               	movwf	6
  2305     0343  0187               	clrf	7
  2306     0344  3F40               	moviw [0]fsr1
  2307     0345  0093               	movwf	19	;volatile
  2308     0346  3F41               	moviw [1]fsr1
  2309     0347  0094               	movwf	20	;volatile
  2310     0348                     i1l938:
  2311                           
  2312                           ;Project_ATCS_Decorder_Module.c: 52:                     EECON1 = 0x64;
  2313     0348  3064               	movlw	100
  2314     0349  0095               	movwf	21	;volsfr
  2315     034A                     i1l940:
  2316                           
  2317                           ;Project_ATCS_Decorder_Module.c: 53:                     EECON2 = 0x55;
  2318     034A  3055               	movlw	85
  2319     034B  0096               	movwf	22	;volsfr
  2320     034C                     i1l942:
  2321                           
  2322                           ;Project_ATCS_Decorder_Module.c: 54:                     EECON2 = 0xAA;
  2323     034C  30AA               	movlw	170
  2324     034D  0096               	movwf	22	;volsfr
  2325     034E                     i1l944:
  2326                           
  2327                           ;Project_ATCS_Decorder_Module.c: 55:                     EECON1bits.WR = 1;
  2328     034E  1495               	bsf	21,1	;volsfr
  2329     034F                     i1l946:
  2330                           
  2331                           ;Project_ATCS_Decorder_Module.c: 57:                 COUNT++;
  2332     034F  3001               	movlw	1
  2333     0350  00F0               	movwf	??i1_EEPROM_SELECT
  2334     0351  0870               	movf	??i1_EEPROM_SELECT,w
  2335     0352  07F4               	addwf	i1EEPROM_SELECT@COUNT,f
  2336     0353                     i1l948:
  2337                           
  2338                           ;Project_ATCS_Decorder_Module.c: 58:                 EE_STORE.EE_ADRS++;
  2339     0353  3001               	movlw	1
  2340     0354  0020               	movlb	0	; select bank0
  2341     0355  07A2               	addwf	_EE_STORE+2,f
  2342     0356  3000               	movlw	0
  2343     0357  3DA3               	addwfc	_EE_STORE+3,f
  2344     0358                     i1l950:
  2345                           
  2346                           ;Project_ATCS_Decorder_Module.c: 59:             } while (COUNT < 4);
  2347     0358  3004               	movlw	4
  2348     0359  0274               	subwf	i1EEPROM_SELECT@COUNT,w
  2349     035A  1C03               	skipc
  2350     035B  2B5D               	goto	u26_21
  2351     035C  2B5E               	goto	u26_20
  2352     035D                     u26_21:
  2353     035D  2B30               	goto	i1l932
  2354     035E                     u26_20:
  2355     035E                     i1l952:
  2356                           
  2357                           ;Project_ATCS_Decorder_Module.c: 60:             EE_STORE.EE_ADRS = EE_SAVE;
  2358     035E  0873               	movf	i1EEPROM_SELECT@EE_SAVE+1,w
  2359     035F  00A3               	movwf	_EE_STORE+3
  2360     0360  0872               	movf	i1EEPROM_SELECT@EE_SAVE,w
  2361     0361  00A2               	movwf	_EE_STORE+2
  2362                           
  2363                           ;Project_ATCS_Decorder_Module.c: 62:             EECON1 = 0x44;
  2364     0362  3044               	movlw	68
  2365     0363  0023               	movlb	3	; select bank3
  2366     0364  0095               	movwf	21	;volsfr
  2367                           
  2368                           ;Project_ATCS_Decorder_Module.c: 63:             EECON2 = 0x55;
  2369     0365  3055               	movlw	85
  2370     0366  0096               	movwf	22	;volsfr
  2371                           
  2372                           ;Project_ATCS_Decorder_Module.c: 64:             EECON2 = 0xAA;
  2373     0367  30AA               	movlw	170
  2374     0368  0096               	movwf	22	;volsfr
  2375     0369                     i1l954:
  2376                           
  2377                           ;Project_ATCS_Decorder_Module.c: 66:             EECON1bits.WR = 1;
  2378     0369  1495               	bsf	21,1	;volsfr
  2379     036A                     i1l956:
  2380                           
  2381                           ;Project_ATCS_Decorder_Module.c: 67:             INTCONbits.GIE = 1;
  2382     036A  178B               	bsf	11,7	;volatile
  2383     036B  2C5D               	goto	i1l120
  2384     036C                     i1l133:	
  2385                           ;Project_ATCS_Decorder_Module.c: 70:         case EE_VERIFY_UID:
  2386                           
  2387                           
  2388                           ;Project_ATCS_Decorder_Module.c: 71:             INTCONbits.GIE = 0;
  2389     036C  138B               	bcf	11,7	;volatile
  2390     036D                     i1l960:
  2391                           
  2392                           ;Project_ATCS_Decorder_Module.c: 73:                 if(EE_STORE.EE_REPORT[COUNT]){
  2393     036D  0874               	movf	i1EEPROM_SELECT@COUNT,w
  2394     036E  3E2C               	addlw	(low ((_EE_STORE| 0+12)))& (0+255)
  2395     036F  0086               	movwf	6
  2396     0370  0187               	clrf	7
  2397     0371  0801               	movf	1,w
  2398     0372  1903               	btfsc	3,2
  2399     0373  2B75               	goto	u27_21
  2400     0374  2B76               	goto	u27_20
  2401     0375                     u27_21:
  2402     0375  2BA1               	goto	i1l970
  2403     0376                     u27_20:
  2404     0376                     i1l962:
  2405                           
  2406                           ;Project_ATCS_Decorder_Module.c: 74:                     EEADR = EE_STORE.EE_ADRS;
  2407     0376  0823               	movf	_EE_STORE+3,w
  2408     0377  0023               	movlb	3	; select bank3
  2409     0378  0092               	movwf	18	;volatile
  2410     0379  0020               	movlb	0	; select bank0
  2411     037A  0822               	movf	_EE_STORE+2,w
  2412     037B  0023               	movlb	3	; select bank3
  2413     037C  0091               	movwf	17	;volatile
  2414                           
  2415                           ;Project_ATCS_Decorder_Module.c: 75:                     EECON1 = 0x41;
  2416     037D  3041               	movlw	65
  2417     037E  0095               	movwf	21	;volsfr
  2418     037F                     i1l136:	
  2419                           ;Project_ATCS_Decorder_Module.c: 76:                     while (EECON1bits.RD);
  2420                           
  2421     037F  1815               	btfsc	21,0	;volsfr
  2422     0380  2B82               	goto	u28_21
  2423     0381  2B83               	goto	u28_20
  2424     0382                     u28_21:
  2425     0382  2B7F               	goto	i1l136
  2426     0383                     u28_20:
  2427     0383                     i1l964:
  2428                           
  2429                           ;Project_ATCS_Decorder_Module.c: 77:                     if (EEDAT != EE_STORE.EE_DATA[C
      +                          OUNT]) {
  2430     0383  3574               	lslf	i1EEPROM_SELECT@COUNT,w
  2431     0384  3E24               	addlw	(low ((_EE_STORE| 0+4)))& (0+255)
  2432     0385  0086               	movwf	6
  2433     0386  0187               	clrf	7
  2434     0387  3F40               	moviw [0]fsr1
  2435     0388  00F0               	movwf	??i1_EEPROM_SELECT
  2436     0389  3F41               	moviw [1]fsr1
  2437     038A  00F1               	movwf	??i1_EEPROM_SELECT+1
  2438     038B  0814               	movf	20,w	;volatile
  2439     038C  0671               	xorwf	??i1_EEPROM_SELECT+1,w
  2440     038D  1D03               	skipz
  2441     038E  2B91               	goto	u29_25
  2442     038F  0813               	movf	19,w	;volatile
  2443     0390  0670               	xorwf	??i1_EEPROM_SELECT,w
  2444     0391                     u29_25:
  2445     0391  1903               	skipnz
  2446     0392  2B94               	goto	u29_21
  2447     0393  2B95               	goto	u29_20
  2448     0394                     u29_21:
  2449     0394  2B9C               	goto	i1l968
  2450     0395                     u29_20:
  2451     0395                     i1l966:
  2452                           
  2453                           ;Project_ATCS_Decorder_Module.c: 78:                         EE_STORE.EE_REPORT[COUNT] =
      +                           0xFF;
  2454     0395  0874               	movf	i1EEPROM_SELECT@COUNT,w
  2455     0396  3E2C               	addlw	(low ((_EE_STORE| 0+12)))& (0+255)
  2456     0397  0086               	movwf	6
  2457     0398  0187               	clrf	7
  2458     0399  30FF               	movlw	255
  2459     039A  0081               	movwf	1
  2460                           
  2461                           ;Project_ATCS_Decorder_Module.c: 79:                     } else {
  2462     039B  2BA1               	goto	i1l970
  2463     039C                     i1l968:
  2464                           
  2465                           ;Project_ATCS_Decorder_Module.c: 80:                         EE_STORE.EE_REPORT[COUNT] =
      +                           0x00;
  2466     039C  0874               	movf	i1EEPROM_SELECT@COUNT,w
  2467     039D  3E2C               	addlw	(low ((_EE_STORE| 0+12)))& (0+255)
  2468     039E  0086               	movwf	6
  2469     039F  0187               	clrf	7
  2470     03A0  0181               	clrf	1
  2471     03A1                     i1l970:
  2472                           
  2473                           ;Project_ATCS_Decorder_Module.c: 83:                 COUNT++;
  2474     03A1  3001               	movlw	1
  2475     03A2  00F0               	movwf	??i1_EEPROM_SELECT
  2476     03A3  0870               	movf	??i1_EEPROM_SELECT,w
  2477     03A4  07F4               	addwf	i1EEPROM_SELECT@COUNT,f
  2478     03A5                     i1l972:
  2479                           
  2480                           ;Project_ATCS_Decorder_Module.c: 84:                 EE_STORE.EE_ADRS++;
  2481     03A5  3001               	movlw	1
  2482     03A6  0020               	movlb	0	; select bank0
  2483     03A7  07A2               	addwf	_EE_STORE+2,f
  2484     03A8  3000               	movlw	0
  2485     03A9  3DA3               	addwfc	_EE_STORE+3,f
  2486     03AA                     i1l974:
  2487                           
  2488                           ;Project_ATCS_Decorder_Module.c: 85:             } while (COUNT < 4);
  2489     03AA  3004               	movlw	4
  2490     03AB  0274               	subwf	i1EEPROM_SELECT@COUNT,w
  2491     03AC  1C03               	skipc
  2492     03AD  2BAF               	goto	u30_21
  2493     03AE  2BB0               	goto	u30_20
  2494     03AF                     u30_21:
  2495     03AF  2B6D               	goto	i1l960
  2496     03B0                     u30_20:
  2497     03B0                     i1l141:
  2498                           
  2499                           ;Project_ATCS_Decorder_Module.c: 86:             INTCONbits.GIE = 1;
  2500     03B0  178B               	bsf	11,7	;volatile
  2501                           
  2502                           ;Project_ATCS_Decorder_Module.c: 87:             return;
  2503     03B1  2C5D               	goto	i1l120
  2504     03B2                     i1l976:
  2505                           
  2506                           ;Project_ATCS_Decorder_Module.c: 91:                 if(EE_STORE.EE_REPORT[COUNT]){
  2507     03B2  0874               	movf	i1EEPROM_SELECT@COUNT,w
  2508     03B3  3E2C               	addlw	(low ((_EE_STORE| 0+12)))& (0+255)
  2509     03B4  0086               	movwf	6
  2510     03B5  0187               	clrf	7
  2511     03B6  0801               	movf	1,w
  2512     03B7  1903               	btfsc	3,2
  2513     03B8  2BBA               	goto	u31_21
  2514     03B9  2BBB               	goto	u31_20
  2515     03BA                     u31_21:
  2516     03BA  2BD3               	goto	i1l994
  2517     03BB                     u31_20:
  2518     03BB                     i1l978:
  2519                           
  2520                           ;Project_ATCS_Decorder_Module.c: 92:                     EEADR = EE_STORE.EE_ADRS;
  2521     03BB  0823               	movf	_EE_STORE+3,w
  2522     03BC  0023               	movlb	3	; select bank3
  2523     03BD  0092               	movwf	18	;volatile
  2524     03BE  0020               	movlb	0	; select bank0
  2525     03BF  0822               	movf	_EE_STORE+2,w
  2526     03C0  0023               	movlb	3	; select bank3
  2527     03C1  0091               	movwf	17	;volatile
  2528     03C2                     i1l980:
  2529                           
  2530                           ;Project_ATCS_Decorder_Module.c: 93:                     EEDAT = EE_STORE.EE_DATA[COUNT]
      +                          ;
  2531     03C2  3574               	lslf	i1EEPROM_SELECT@COUNT,w
  2532     03C3  3E24               	addlw	(low ((_EE_STORE| 0+4)))& (0+255)
  2533     03C4  0086               	movwf	6
  2534     03C5  0187               	clrf	7
  2535     03C6  3F40               	moviw [0]fsr1
  2536     03C7  0093               	movwf	19	;volatile
  2537     03C8  3F41               	moviw [1]fsr1
  2538     03C9  0094               	movwf	20	;volatile
  2539     03CA                     i1l982:
  2540                           
  2541                           ;Project_ATCS_Decorder_Module.c: 94:                     EECON1 = 0x44;
  2542     03CA  3044               	movlw	68
  2543     03CB  0095               	movwf	21	;volsfr
  2544     03CC                     i1l984:
  2545                           
  2546                           ;Project_ATCS_Decorder_Module.c: 95:                     EECON2 = 0x55;
  2547     03CC  3055               	movlw	85
  2548     03CD  0096               	movwf	22	;volsfr
  2549     03CE                     i1l986:
  2550                           
  2551                           ;Project_ATCS_Decorder_Module.c: 96:                     EECON2 = 0xAA;
  2552     03CE  30AA               	movlw	170
  2553     03CF  0096               	movwf	22	;volsfr
  2554     03D0                     i1l988:
  2555                           
  2556                           ;Project_ATCS_Decorder_Module.c: 97:                     EECON1bits.WR = 1;
  2557     03D0  1495               	bsf	21,1	;volsfr
  2558     03D1                     i1l990:
  2559                           
  2560                           ;Project_ATCS_Decorder_Module.c: 98:                     INTCONbits.GIE = 1;
  2561     03D1  178B               	bsf	11,7	;volatile
  2562     03D2  2C5D               	goto	i1l120
  2563     03D3                     i1l994:
  2564                           
  2565                           ;Project_ATCS_Decorder_Module.c: 101:                 COUNT++;
  2566     03D3  3001               	movlw	1
  2567     03D4  00F0               	movwf	??i1_EEPROM_SELECT
  2568     03D5  0870               	movf	??i1_EEPROM_SELECT,w
  2569     03D6  07F4               	addwf	i1EEPROM_SELECT@COUNT,f
  2570     03D7                     i1l996:
  2571                           
  2572                           ;Project_ATCS_Decorder_Module.c: 102:                 EEADR = EE_STORE.EE_ADRS++;
  2573     03D7  0823               	movf	_EE_STORE+3,w
  2574     03D8  0023               	movlb	3	; select bank3
  2575     03D9  0092               	movwf	18	;volatile
  2576     03DA  0020               	movlb	0	; select bank0
  2577     03DB  0822               	movf	_EE_STORE+2,w
  2578     03DC  0023               	movlb	3	; select bank3
  2579     03DD  0091               	movwf	17	;volatile
  2580     03DE                     i1l998:
  2581     03DE  3001               	movlw	1
  2582     03DF  0020               	movlb	0	; select bank0
  2583     03E0  07A2               	addwf	_EE_STORE+2,f
  2584     03E1  3000               	movlw	0
  2585     03E2  3DA3               	addwfc	_EE_STORE+3,f
  2586     03E3                     i1l1000:
  2587                           
  2588                           ;Project_ATCS_Decorder_Module.c: 103:             }while(COUNT < 4);
  2589     03E3  3004               	movlw	4
  2590     03E4  0274               	subwf	i1EEPROM_SELECT@COUNT,w
  2591     03E5  1C03               	skipc
  2592     03E6  2BE8               	goto	u32_21
  2593     03E7  2BE9               	goto	u32_20
  2594     03E8                     u32_21:
  2595     03E8  2BB2               	goto	i1l976
  2596     03E9                     u32_20:
  2597     03E9                     i1l145:
  2598                           
  2599                           ;Project_ATCS_Decorder_Module.c: 104:             INTCONbits.GIE = 1;
  2600     03E9  178B               	bsf	11,7	;volatile
  2601                           
  2602                           ;Project_ATCS_Decorder_Module.c: 105:             return;
  2603     03EA  2C5D               	goto	i1l120
  2604     03EB                     i1l1002:
  2605                           
  2606                           ;Project_ATCS_Decorder_Module.c: 109:                 if(EE_STORE.EE_REPORT[COUNT]){
  2607     03EB  0874               	movf	i1EEPROM_SELECT@COUNT,w
  2608     03EC  3E2C               	addlw	(low ((_EE_STORE| 0+12)))& (0+255)
  2609     03ED  0086               	movwf	6
  2610     03EE  0187               	clrf	7
  2611     03EF  0801               	movf	1,w
  2612     03F0  1903               	btfsc	3,2
  2613     03F1  2BF3               	goto	u33_21
  2614     03F2  2BF4               	goto	u33_20
  2615     03F3                     u33_21:
  2616     03F3  2C28               	goto	i1l1014
  2617     03F4                     u33_20:
  2618     03F4                     i1l1004:
  2619                           
  2620                           ;Project_ATCS_Decorder_Module.c: 110:                     EEADR = EE_STORE.EE_ADRS;
  2621     03F4  0823               	movf	_EE_STORE+3,w
  2622     03F5  0023               	movlb	3	; select bank3
  2623     03F6  0092               	movwf	18	;volatile
  2624     03F7  0020               	movlb	0	; select bank0
  2625     03F8  0822               	movf	_EE_STORE+2,w
  2626     03F9  0023               	movlb	3	; select bank3
  2627     03FA  0091               	movwf	17	;volatile
  2628                           
  2629                           ;Project_ATCS_Decorder_Module.c: 111:                     EECON1 = 0x01;
  2630     03FB  3001               	movlw	1
  2631     03FC  0095               	movwf	21	;volsfr
  2632     03FD                     i1l149:	
  2633                           ;Project_ATCS_Decorder_Module.c: 112:                     while (EECON1bits.RD);
  2634                           
  2635     03FD  1815               	btfsc	21,0	;volsfr
  2636     03FE  2C00               	goto	u34_21
  2637     03FF  2C01               	goto	u34_20
  2638     0400                     u34_21:
  2639     0400  2BFD               	goto	i1l149
  2640     0401                     u34_20:
  2641     0401                     i1l1006:
  2642                           
  2643                           ;Project_ATCS_Decorder_Module.c: 113:                     EE_STORE.EE_DATA[COUNT] = EEDA
      +                          T;
  2644     0401  3574               	lslf	i1EEPROM_SELECT@COUNT,w
  2645     0402  3E24               	addlw	(low ((_EE_STORE| 0+4)))& (0+255)
  2646     0403  0086               	movwf	6
  2647     0404  0187               	clrf	7
  2648     0405  0813               	movf	19,w	;volatile
  2649     0406  3FC0               	movwi [0]fsr1
  2650     0407  0814               	movf	20,w	;volatile
  2651     0408  3FC1               	movwi [1]fsr1
  2652                           
  2653                           ;Project_ATCS_Decorder_Module.c: 114:                     if (EEDAT != EE_STORE.EE_DATA[
      +                          COUNT]) {
  2654     0409  3574               	lslf	i1EEPROM_SELECT@COUNT,w
  2655     040A  3E24               	addlw	(low ((_EE_STORE| 0+4)))& (0+255)
  2656     040B  0086               	movwf	6
  2657     040C  0187               	clrf	7
  2658     040D  3F40               	moviw [0]fsr1
  2659     040E  00F0               	movwf	??i1_EEPROM_SELECT
  2660     040F  3F41               	moviw [1]fsr1
  2661     0410  00F1               	movwf	??i1_EEPROM_SELECT+1
  2662     0411  0814               	movf	20,w	;volatile
  2663     0412  0671               	xorwf	??i1_EEPROM_SELECT+1,w
  2664     0413  1D03               	skipz
  2665     0414  2C17               	goto	u35_25
  2666     0415  0813               	movf	19,w	;volatile
  2667     0416  0670               	xorwf	??i1_EEPROM_SELECT,w
  2668     0417                     u35_25:
  2669     0417  1903               	skipnz
  2670     0418  2C1A               	goto	u35_21
  2671     0419  2C1B               	goto	u35_20
  2672     041A                     u35_21:
  2673     041A  2C22               	goto	i1l1010
  2674     041B                     u35_20:
  2675     041B                     i1l1008:
  2676                           
  2677                           ;Project_ATCS_Decorder_Module.c: 115:                         EE_STORE.EE_REPORT[COUNT] 
      +                          = 0xFF;
  2678     041B  0874               	movf	i1EEPROM_SELECT@COUNT,w
  2679     041C  3E2C               	addlw	(low ((_EE_STORE| 0+12)))& (0+255)
  2680     041D  0086               	movwf	6
  2681     041E  0187               	clrf	7
  2682     041F  30FF               	movlw	255
  2683     0420  0081               	movwf	1
  2684                           
  2685                           ;Project_ATCS_Decorder_Module.c: 116:                     } else {
  2686     0421  2C5D               	goto	i1l120
  2687     0422                     i1l1010:
  2688                           
  2689                           ;Project_ATCS_Decorder_Module.c: 117:                         EE_STORE.EE_REPORT[COUNT] 
      +                          = 0x00;
  2690     0422  0874               	movf	i1EEPROM_SELECT@COUNT,w
  2691     0423  3E2C               	addlw	(low ((_EE_STORE| 0+12)))& (0+255)
  2692     0424  0086               	movwf	6
  2693     0425  0187               	clrf	7
  2694     0426  0181               	clrf	1
  2695     0427  2C5D               	goto	i1l120
  2696     0428                     i1l1014:
  2697                           
  2698                           ;Project_ATCS_Decorder_Module.c: 121:                 COUNT++;
  2699     0428  3001               	movlw	1
  2700     0429  00F0               	movwf	??i1_EEPROM_SELECT
  2701     042A  0870               	movf	??i1_EEPROM_SELECT,w
  2702     042B  07F4               	addwf	i1EEPROM_SELECT@COUNT,f
  2703     042C                     i1l1016:
  2704                           
  2705                           ;Project_ATCS_Decorder_Module.c: 122:                 EEADR = EE_STORE.EE_ADRS++;
  2706     042C  0823               	movf	_EE_STORE+3,w
  2707     042D  0023               	movlb	3	; select bank3
  2708     042E  0092               	movwf	18	;volatile
  2709     042F  0020               	movlb	0	; select bank0
  2710     0430  0822               	movf	_EE_STORE+2,w
  2711     0431  0023               	movlb	3	; select bank3
  2712     0432  0091               	movwf	17	;volatile
  2713     0433                     i1l1018:
  2714     0433  3001               	movlw	1
  2715     0434  0020               	movlb	0	; select bank0
  2716     0435  07A2               	addwf	_EE_STORE+2,f
  2717     0436  3000               	movlw	0
  2718     0437  3DA3               	addwfc	_EE_STORE+3,f
  2719     0438                     i1l1020:
  2720                           
  2721                           ;Project_ATCS_Decorder_Module.c: 123:             }while(COUNT < 4);
  2722     0438  3004               	movlw	4
  2723     0439  0274               	subwf	i1EEPROM_SELECT@COUNT,w
  2724     043A  1C03               	skipc
  2725     043B  2C3D               	goto	u36_21
  2726     043C  2C3E               	goto	u36_20
  2727     043D                     u36_21:
  2728     043D  2BEB               	goto	i1l1002
  2729     043E                     u36_20:
  2730     043E                     i1l154:
  2731                           
  2732                           ;Project_ATCS_Decorder_Module.c: 124:             INTCONbits.GIE = 1;
  2733     043E  178B               	bsf	11,7	;volatile
  2734                           
  2735                           ;Project_ATCS_Decorder_Module.c: 125:             return;
  2736     043F  2C5D               	goto	i1l120
  2737     0440                     i1l1024:
  2738     0440  0020               	movlb	0	; select bank0
  2739     0441  0820               	movf	_EE_STORE,w
  2740     0442  00F0               	movwf	??i1_EEPROM_SELECT
  2741     0443  01F1               	clrf	??i1_EEPROM_SELECT+1
  2742                           
  2743                           ; Switch on 2 bytes has been partitioned into a top level switch of size 1, and 1 sub-sw
      +                          itches
  2744                           ; Switch size 1, requested type "simple"
  2745                           ; Number of cases is 1, Range of values is 0 to 0
  2746                           ; switch strategies available:
  2747                           ; Name         Instructions Cycles
  2748                           ; simple_byte            4     3 (average)
  2749                           ; direct_byte            8     6 (fixed)
  2750                           ; jumptable            260     6 (fixed)
  2751                           ;	Chosen strategy is simple_byte
  2752     0444  0871               	movf	??i1_EEPROM_SELECT+1,w
  2753     0445  3A00               	xorlw	0	; case 0
  2754     0446  1903               	skipnz
  2755     0447  2C49               	goto	i1l1414
  2756     0448  2C5D               	goto	i1l120
  2757     0449                     i1l1414:
  2758                           
  2759                           ; Switch size 1, requested type "simple"
  2760                           ; Number of cases is 6, Range of values is 0 to 5
  2761                           ; switch strategies available:
  2762                           ; Name         Instructions Cycles
  2763                           ; direct_byte           18     6 (fixed)
  2764                           ; simple_byte           19    10 (average)
  2765                           ; jumptable            260     6 (fixed)
  2766                           ;	Chosen strategy is simple_byte
  2767     0449  0870               	movf	??i1_EEPROM_SELECT,w
  2768     044A  3A00               	xorlw	0	; case 0
  2769     044B  1903               	skipnz
  2770     044C  2AC5               	goto	i1l902
  2771     044D  3A01               	xorlw	1	; case 1
  2772     044E  1903               	skipnz
  2773     044F  2AFE               	goto	i1l920
  2774     0450  3A03               	xorlw	3	; case 2
  2775     0451  1903               	skipnz
  2776     0452  2B2B               	goto	i1l129
  2777     0453  3A01               	xorlw	1	; case 3
  2778     0454  1903               	skipnz
  2779     0455  2B6C               	goto	i1l133
  2780     0456  3A07               	xorlw	7	; case 4
  2781     0457  1903               	skipnz
  2782     0458  2BB2               	goto	i1l976
  2783     0459  3A01               	xorlw	1	; case 5
  2784     045A  1903               	skipnz
  2785     045B  2BEB               	goto	i1l1002
  2786     045C  2C5D               	goto	i1l120
  2787     045D                     i1l120:
  2788     045D  0008               	return
  2789     045E                     __end_ofi1_EEPROM_SELECT:
  2790     007E                     btemp	set	126	;btemp
  2791     007E                     int$flags	set	126
  2792     007E                     wtemp0	set	126
  2793                           
  2794                           	psect	idloc
  2795                           
  2796                           ;Config register IDLOC0 @ 0x8000
  2797                           ;	unspecified, using default values
  2798     8000                     	org	32768
  2799     8000  3FFF               	dw	16383
  2800                           
  2801                           ;Config register IDLOC1 @ 0x8001
  2802                           ;	unspecified, using default values
  2803     8001                     	org	32769
  2804     8001  3FFF               	dw	16383
  2805                           
  2806                           ;Config register IDLOC2 @ 0x8002
  2807                           ;	unspecified, using default values
  2808     8002                     	org	32770
  2809     8002  3FFF               	dw	16383
  2810                           
  2811                           ;Config register IDLOC3 @ 0x8003
  2812                           ;	unspecified, using default values
  2813     8003                     	org	32771
  2814     8003  3FFF               	dw	16383
  2815                           
  2816                           	psect	config
  2817                           
  2818                           ;Config register CONFIG1 @ 0x8007
  2819                           ;	Oscillator Selection
  2820                           ;	FOSC = INTOSC, INTOSC oscillator: I/O function on CLKIN pin
  2821                           ;	Watchdog Timer Enable
  2822                           ;	WDTE = OFF, WDT disabled
  2823                           ;	Power-up Timer Enable
  2824                           ;	PWRTE = ON, PWRT enabled
  2825                           ;	MCLR Pin Function Select
  2826                           ;	MCLRE = OFF, MCLR/VPP pin function is digital input
  2827                           ;	Flash Program Memory Code Protection
  2828                           ;	CP = OFF, Program memory code protection is disabled
  2829                           ;	Data Memory Code Protection
  2830                           ;	CPD = OFF, Data memory code protection is disabled
  2831                           ;	Brown-out Reset Enable
  2832                           ;	BOREN = ON, Brown-out Reset enabled
  2833                           ;	Clock Out Enable
  2834                           ;	CLKOUTEN = OFF, CLKOUT function is disabled. I/O or oscillator function on the CLKOUT 
      +                          pin
  2835                           ;	Internal/External Switchover
  2836                           ;	IESO = OFF, Internal/External Switchover mode is disabled
  2837                           ;	Fail-Safe Clock Monitor Enable
  2838                           ;	FCMEN = OFF, Fail-Safe Clock Monitor is disabled
  2839     8007                     	org	32775
  2840     8007  0F84               	dw	3972
  2841                           
  2842                           ;Config register CONFIG2 @ 0x8008
  2843                           ;	Flash Memory Self-Write Protection
  2844                           ;	WRT = OFF, Write protection off
  2845                           ;	PLL Enable
  2846                           ;	PLLEN = OFF, 4x PLL disabled
  2847                           ;	Stack Overflow/Underflow Reset Enable
  2848                           ;	STVREN = ON, Stack Overflow or Underflow will cause a Reset
  2849                           ;	Brown-out Reset Voltage Selection
  2850                           ;	BORV = HI, Brown-out Reset Voltage (Vbor), high trip point selected.
  2851                           ;	Low-Voltage Programming Enable
  2852                           ;	LVP = OFF, High-voltage on MCLR/VPP must be used for programming
  2853     8008                     	org	32776
  2854     8008  1AFF               	dw	6911

Data Sizes:
    Strings     0
    Constant    24
    Data        16
    BSS         4
    Persistent  32
    Stack       0

Auto Spaces:
    Space          Size  Autos    Used
    COMMON           14      8      12
    BANK0            80      5      21

Pointer List with Targets:

    None.

Critical Paths under _main in COMMON

    None.

Critical Paths under _isr in COMMON

    _isr->i1_EEPROM_SELECT

Critical Paths under _main in BANK0

    _main->_EEPROM_SELECT

Critical Paths under _isr in BANK0

    None.

Call Graph Tables:

 ---------------------------------------------------------------------------------
 (Depth) Function   	        Calls       Base Space   Used Autos Params    Refs
 ---------------------------------------------------------------------------------
 (0) _main                                                 0     0      0     535
                      _EEPROM_SELECT
 ---------------------------------------------------------------------------------
 (1) _EEPROM_SELECT                                        5     5      0     535
                                              0 BANK0      5     5      0
 ---------------------------------------------------------------------------------
 Estimated maximum stack depth 1
 ---------------------------------------------------------------------------------
 (Depth) Function   	        Calls       Base Space   Used Autos Params    Refs
 ---------------------------------------------------------------------------------
 (2) _isr                                                  3     3      0     480
                                              5 COMMON     3     3      0
                    i1_EEPROM_SELECT
 ---------------------------------------------------------------------------------
 (3) i1_EEPROM_SELECT                                      5     5      0     360
                                              0 COMMON     5     5      0
 ---------------------------------------------------------------------------------
 Estimated maximum stack depth 3
 ---------------------------------------------------------------------------------

 Call Graph Graphs:

 _main (ROOT)
   _EEPROM_SELECT

 _isr (ROOT)
   i1_EEPROM_SELECT

 Address spaces:
Name               Size   Autos  Total    Cost      Usage
BIGRAM              70      0       0       0        0.0%
EEDATA             100      0       0       0        0.0%
NULL                 0      0       0       0        0.0%
CODE                 0      0       0       0        0.0%
BITCOMMON            E      0       0       1        0.0%
BITSFR0              0      0       0       1        0.0%
SFR0                 0      0       0       1        0.0%
COMMON               E      8       C       2       85.7%
BITSFR1              0      0       0       2        0.0%
SFR1                 0      0       0       2        0.0%
BITSFR2              0      0       0       3        0.0%
SFR2                 0      0       0       3        0.0%
STACK                0      0       0       3        0.0%
BITSFR3              0      0       0       4        0.0%
SFR3                 0      0       0       4        0.0%
ABS                  0      0      21       4        0.0%
BITBANK0            50      0       0       5        0.0%
BITSFR4              0      0       0       5        0.0%
SFR4                 0      0       0       5        0.0%
BANK0               50      5      15       6       26.2%
BITSFR5              0      0       0       6        0.0%
SFR5                 0      0       0       6        0.0%
BITSFR6              0      0       0       7        0.0%
SFR6                 0      0       0       7        0.0%
DATA                 0      0      21       7        0.0%
BITSFR7              0      0       0       8        0.0%
SFR7                 0      0       0       8        0.0%
BITSFR8              0      0       0       9        0.0%
SFR8                 0      0       0       9        0.0%
BITSFR9              0      0       0      10        0.0%
SFR9                 0      0       0      10        0.0%
BITSFR10             0      0       0      11        0.0%
SFR10                0      0       0      11        0.0%
BITSFR11             0      0       0      12        0.0%
SFR11                0      0       0      12        0.0%
BITSFR12             0      0       0      13        0.0%
SFR12                0      0       0      13        0.0%
BITSFR13             0      0       0      14        0.0%
SFR13                0      0       0      14        0.0%
BITSFR14             0      0       0      15        0.0%
SFR14                0      0       0      15        0.0%
BITSFR15             0      0       0      16        0.0%
SFR15                0      0       0      16        0.0%
BITSFR16             0      0       0      17        0.0%
SFR16                0      0       0      17        0.0%
BITSFR17             0      0       0      18        0.0%
SFR17                0      0       0      18        0.0%
BITSFR18             0      0       0      19        0.0%
SFR18                0      0       0      19        0.0%
BITSFR19             0      0       0      20        0.0%
SFR19                0      0       0      20        0.0%
BITSFR20             0      0       0      21        0.0%
SFR20                0      0       0      21        0.0%
BITSFR21             0      0       0      22        0.0%
SFR21                0      0       0      22        0.0%
BITSFR22             0      0       0      23        0.0%
SFR22                0      0       0      23        0.0%
BITSFR23             0      0       0      24        0.0%
SFR23                0      0       0      24        0.0%
BITSFR24             0      0       0      25        0.0%
SFR24                0      0       0      25        0.0%
BITSFR25             0      0       0      26        0.0%
SFR25                0      0       0      26        0.0%
BITSFR26             0      0       0      27        0.0%
SFR26                0      0       0      27        0.0%
BITSFR27             0      0       0      28        0.0%
SFR27                0      0       0      28        0.0%
BITSFR28             0      0       0      29        0.0%
SFR28                0      0       0      29        0.0%
BITSFR29             0      0       0      30        0.0%
SFR29                0      0       0      30        0.0%
BITSFR30             0      0       0      31        0.0%
SFR30                0      0       0      31        0.0%
BITSFR31             0      0       0      32        0.0%
SFR31                0      0       0      32        0.0%


Microchip Technology PIC Macro Assembler V2.40 build 20220703182018 
Symbol Table                                                                                   Mon Dec 11 01:41:48 2023

                     l33 047A                       l34 047A                      l120 02C1  
                    l141 020C                      l133 01C4                      l125 0166  
                    l117 012B                      l136 01D7                      l128 017F  
                    l145 0247                      l129 0181                      l154 02A3  
                    l149 025B                      u600 0120                      u601 011F  
                    u610 012F                      u611 012E                      u700 01F2  
                    u620 0151                      u701 01F1                      u621 0150  
                    u710 020C                      u630 015B                      u711 020B  
                    u631 015A                      u720 0217                      u640 016A  
                    u721 0216                      u705 01EE                      u641 0169  
                    u730 0247                      u650 017F                      u731 0246  
                    u651 017E                      u740 0252                      u660 018F  
                    u741 0251                      u661 018E                      u750 025F  
                    u670 01B6                      u751 025E                      u671 01B5  
                    u760 0280                      u680 01CE                      u761 027F  
                    u681 01CD                      u770 02A3                      u690 01DB  
                    u771 02A2                      u691 01DA                      u765 027C  
                    _isr 0004                     l1200 0114                     l1202 0117  
                   l1300 0241                     l1220 0152                     l1204 0120  
                   l1212 013B                     l1310 0287                     l1302 0249  
                   l1230 0182                     l1222 015B                     l1214 013F  
                   l1206 012F                     l1320 029D                     l1304 0252  
                   l1240 01A2                     l1232 0186                     l1224 016A  
                   l1216 0146                     l1208 0139                     l1306 025F  
                   l1314 028D                     l1250 01B0                     l1242 01A4  
                   l1234 018F                     l1226 0174                     l1218 014B  
                   l1412 02AD                     l1316 0291                     l1308 0280  
                   l1260 01C5                     l1252 01B6                     l1244 01A6  
                   l1236 0196                     l1228 0179                     l1324 02A5  
                   l1340 046A                     l1332 045E                     l1318 0298  
                   l1262 01CE                     l1270 01FE                     l1254 01C1  
                   l1238 01A0                     l1246 01A7                     l1350 0477  
                   l1342 046D                     l1334 0461                     l1280 021E  
                   l1272 0202                     l1264 01DB                     l1256 01C2  
                   l1248 01AC                     l1344 046F                     l1336 0463  
                   l1290 022F                     l1282 0228                     l1274 0206  
                   l1266 01F2                     l1346 0472                     l1338 0468  
                   l1284 022A                     l1276 020E                     l1268 01F9  
                   l1348 0475                     l1286 022C                     l1278 0217  
                   l1294 0231                     l1198 0113                     l1296 0235  
                   l1288 022E                     l1298 023C                     ?_isr 0070  
                   _DATA 007A                     _PIE1 0091                     _PIE2 0092  
                   i1l70 0059                     _PIR1 0011                     i1l90 00E4  
                   i1l77 00DA                     i1l69 00DB                     i1l96 00FD  
                   _STCR 0078                     _main 045E                     fsr0h 0005  
                   fsr1h 0007                     fsr0l 0004                     indf1 0001  
                   fsr1l 0006                     btemp 007E         __end_of_DCC_DATA 0498  
       __end_of_DCC_ADRS 04A4                     start 00FF       EEPROM_SELECT@COUNT 0034  
                  ??_isr 0075                    ?_main 0070                    _EEADR 0191  
                  _EEDAT 0193                    _T1CON 0018                    i1l120 045D  
                  i1l141 03B0                    i1l133 036C                    i1l125 0312  
                  i1l117 02D9                    i1l136 037F                    i1l128 0329  
                  i1l145 03E9                    i1l129 032B                    i1l154 043E  
                  i1l149 03FD                    i1l900 02C3                    i1l902 02C5  
                  i1l920 02FE                    i1l904 02CE                    i1l912 02E7  
                  i1l930 032C                    i1l922 0307                    i1l914 02EB  
                  i1l906 02DD                    i1l940 034A                    i1l932 0330  
                  i1l924 0316                    i1l916 02F2                    i1l908 02E5  
                  i1l950 0358                    i1l942 034C                    i1l934 0339  
                  i1l926 031E                    i1l918 02F7                    i1l960 036D  
                  i1l952 035E                    i1l944 034E                    i1l936 0340  
                  i1l928 0323                    i1l962 0376                    i1l970 03A1  
                  i1l954 0369                    i1l938 0348                    i1l946 034F  
                  i1l980 03C2                    i1l972 03A5                    i1l964 0383  
                  i1l956 036A                    i1l948 0353                    i1l990 03D1  
                  i1l982 03CA                    i1l974 03AA                    i1l966 0395  
                  i1l984 03CC                    i1l976 03B2                    i1l968 039C  
                  i1l986 03CE                    i1l978 03BB                    i1l994 03D3  
                  i1l898 02C2                    i1l996 03D7                    i1l988 03D0  
                  i1l998 03DE                    u20_20 02DD                    u20_21 02DC  
                  u21_20 02FD                    u21_21 02FC                    u30_20 03B0  
                  u22_20 0307                    u30_21 03AF                    u22_21 0306  
                  u31_20 03BB                    u23_20 0316                    u31_21 03BA  
                  u23_21 0315                    u32_20 03E9                    u24_20 0329  
                  u40_20 0031                    u32_21 03E8                    u24_21 0328  
                  u40_21 0030                    u40_25 002D                    u33_20 03F4  
                  u25_20 0339                    u41_20 0035                    u33_21 03F3  
                  u25_21 0338                    u41_21 0034                    _TMR1H 0017  
                  _TMR1L 0016                    u34_20 0401                    u26_20 035E  
                  u50_20 0091                    u42_20 0047                    u34_21 0400  
                  u26_21 035D                    u50_21 0090                    u42_21 0046  
                  u50_25 008D                    u42_25 0043                    _STACK 00A0  
                  u35_20 041B                    u27_20 0376                    u19_20 02CE  
                  u51_20 0095                    u43_20 004B                    u35_21 041A  
                  u27_21 0375                    u19_21 02CD                    u51_21 0094  
                  u43_21 004A                    _PORTA 000C                    u35_25 0417  
                  u36_20 043E                    u28_20 0383                    u52_20 00A6  
                  u44_20 0051                    u36_21 043D                    u28_21 0382  
                  u52_21 00A5                    u44_21 0050                    u52_25 00A2  
                  u29_20 0395                    u53_20 00B3                    u45_20 005D  
                  u37_20 000B                    u29_21 0394                    u53_21 00B2  
                  u45_21 005C                    u37_21 000A                    u29_25 0391  
                  u53_25 00AF                    u54_20 00B7                    u46_20 0063  
                  u38_20 0017                    u54_21 00B6                    u46_21 0062  
                  u38_21 0016                    u55_20 00CB                    u47_20 0070  
                  u39_20 0024                    u55_21 00CA                    u47_21 006F  
                  u39_21 0023                    u47_25 006C                    u39_25 0020  
                  u56_20 00DF                    u48_20 007D                    u56_21 00DE  
                  u48_21 007C                    u48_25 0079                    u57_20 00E8  
                  u49_20 0081                    u57_21 00E7                    u49_21 0080  
                  _TRISA 008C                    u58_20 00EF                    u58_21 00EE  
                  u59_20 00F8                    u59_21 00F7                    status 0003  
                  wtemp0 007E    __end_of_EEPROM_SELECT 02C2          __initialization 0100  
           __end_of_main 047C                   ??_main 0035                   _CCPR1H 0292  
                 _CCPR1L 0291                   _EECON1 0195                   _EECON2 0196  
                 _ANSELA 018C                   i1l1000 03E3                   i1l1010 0422  
                 i1l1002 03EB                   i1l1020 0438                   i1l1004 03F4  
                 i1l1100 00B3                   i1l1006 0401                   i1l1014 0428  
                 i1l1102 00B7                   i1l1110 00C5                   i1l1016 042C  
                 i1l1008 041B                   i1l1024 0440                   i1l1112 00CB  
                 i1l1104 00BD                   i1l1018 0433                   i1l1130 00EF  
                 i1l1122 00DF                   i1l1114 00CC                   i1l1106 00C0  
                 i1l1132 00F2                   i1l1124 00E0                   i1l1116 00D2  
                 i1l1108 00C3                   i1l1060 0013                   i1l1052 0006  
                 i1l1134 00F8                   i1l1126 00E8                   i1l1118 00D5  
                 i1l1070 003A                   i1l1062 0017                   i1l1054 0006  
                 i1l1136 00FA                   i1l1128 00E9                   i1l1080 005D  
                 i1l1072 0047                   i1l1064 0024                   i1l1056 000B  
                 i1l1090 0084                   i1l1082 0063                   i1l1074 004B  
                 i1l1066 0031                   i1l1058 000E                   i1l1092 0091  
                 i1l1084 0070                   i1l1076 0051                   i1l1068 0035  
                 i1l1414 0449                   i1l1094 0095                   i1l1086 007D  
                 i1l1078 0057                   i1l1088 0081                   i1l1096 0099  
                 i1l1098 00A6                   _INTCON 000B                   _OSCCON 0099  
 i1EEPROM_SELECT@EE_SAVE 0072  __end_of__initialization 0110           __pcstackCOMMON 0070  
           __pidataBANK0 047C     EEPROM_SELECT@EE_SAVE 0032               __pmaintext 045E  
             __pintentry 0004                  _CCP1CON 0293                  _COUNTER 0079  
                __ptext1 0113                  __ptext3 02C2     end_of_initialization 0110  
                init_ram 04A4                  initloop 04A5        ??i1_EEPROM_SELECT 0070  
    start_initialization 0100              __end_of_isr 00FF            _EEPROM_SELECT 0113  
            __pdataBANK0 0020              __pbssCOMMON 0078                ___latbits 0000  
          __pcstackBANK0 0030           ?_EEPROM_SELECT 0070                 _DCC_DATA 048C  
               _DCC_ADRS 0498                 _COM_FLAG 007B                 _EE_STORE 0020  
               _PIR1bits 0011                 _PIR2bits 0012          i1_EEPROM_SELECT 02C2  
        ??_EEPROM_SELECT 0030               _EECON1bits 0195     i1EEPROM_SELECT@COUNT 0074  
__end_ofi1_EEPROM_SELECT 045E                 int$flags 007E                 isr@COUNT 0076  
             _INTCONbits 000B                 intlevel1 0000            __pstringtext1 048C  
          __pstringtext2 0498         ?i1_EEPROM_SELECT 0070  
