

Microchip MPLAB XC8 Assembler V2.36 build 20220127204148 
                                                                                               Fri Dec 15 11:58:42 2023

Microchip MPLAB XC8 C Compiler v2.36 (Free license) build 20220127204148 Og1 
     1                           	processor	12F1822
     2                           	pagewidth 120
     3                           	opt	flic
     4                           	psect	idataBANK0,global,class=CODE,delta=2,noexec
     5                           	psect	stringtext1,global,class=STRCODE,delta=2,noexec
     6                           	psect	cinit,global,class=CODE,merge=1,delta=2
     7                           	psect	bssCOMMON,global,class=COMMON,space=1,delta=1,noexec
     8                           	psect	bssBANK0,global,class=BANK0,space=1,delta=1,noexec
     9                           	psect	dataBANK0,global,class=BANK0,space=1,delta=1,noexec
    10                           	psect	inittext,global,class=CODE,delta=2
    11                           	psect	cstackCOMMON,global,class=COMMON,space=1,delta=1,noexec
    12                           	psect	cstackBANK0,global,class=BANK0,space=1,delta=1,noexec
    13                           	psect	maintext,global,class=CODE,merge=1,split=1,delta=2
    14                           	psect	text1,local,class=CODE,merge=1,delta=2
    15                           	psect	text2,local,class=CODE,merge=1,delta=2
    16                           	psect	text3,local,class=CODE,merge=1,delta=2
    17                           	psect	text4,local,class=CODE,merge=1,delta=2
    18                           	psect	text5,local,class=CODE,merge=1,delta=2
    19                           	psect	text6,local,class=CODE,merge=1,delta=2
    20                           	psect	intentry,global,class=CODE,delta=2
    21                           	psect	text8,local,class=CODE,merge=1,delta=2
    22                           	psect	idloc,global,abs,ovrld,class=IDLOC,space=5,delta=2,noexec
    23                           	psect	config,global,abs,ovrld,class=CONFIG,space=4,delta=2,noexec
    24                           	dabs	1,0xA0,32,_STACK
    25                           	dabs	1,0x7E,2
    26  0000                     
    27                           ; Version 2.40
    28                           ; Generated 17/11/2021 GMT
    29                           ; 
    30                           ; Copyright © 2021, Microchip Technology Inc. and its subsidiaries ("Microchip")
    31                           ; All rights reserved.
    32                           ; 
    33                           ; This software is developed by Microchip Technology Inc. and its subsidiaries ("Microch
      +                          ip").
    34                           ; 
    35                           ; Redistribution and use in source and binary forms, with or without modification, are
    36                           ; permitted provided that the following conditions are met:
    37                           ; 
    38                           ;     1. Redistributions of source code must retain the above copyright notice, this lis
      +                          t of
    39                           ;        conditions and the following disclaimer.
    40                           ; 
    41                           ;     2. Redistributions in binary form must reproduce the above copyright notice, this 
      +                          list
    42                           ;        of conditions and the following disclaimer in the documentation and/or other
    43                           ;        materials provided with the distribution. Publication is not required when
    44                           ;        this file is used in an embedded application.
    45                           ; 
    46                           ;     3. Microchip's name may not be used to endorse or promote products derived from th
      +                          is
    47                           ;        software without specific prior written permission.
    48                           ; 
    49                           ; THIS SOFTWARE IS PROVIDED BY MICROCHIP "AS IS" AND ANY EXPRESS OR IMPLIED WARRANTIES,
    50                           ; INCLUDING, BUT NOT LIMITED TO, THE IMPLIED WARRANTIES OF MERCHANTABILITY AND FITNESS F
      +                          OR
    51                           ; PURPOSE ARE DISCLAIMED.  IN NO EVENT SHALL MICROCHIP BE LIABLE FOR ANY DIRECT, INDIREC
      +                          T,
    52                           ; INCIDENTAL, SPECIAL, EXEMPLARY, OR CONSEQUENTIAL DAMAGES (INCLUDING BUT NOT LIMITED TO
    53                           ; PROCUREMENT OF SUBSTITUTE GOODS OR SERVICES; LOSS OF USE, DATA OR PROFITS; OR BUSINESS
    54                           ; INTERRUPTION) HOWSOEVER CAUSED AND ON ANY THEORY OF LIABILITY, WHETHER IN CONTRACT, ST
      +                          RICT
    55                           ; LIABILITY, OR TORT (INCLUDING NEGLIGENCE OR OTHERWISE) ARISING IN ANY WAY OUT OF THE U
      +                          SE OF
    56                           ; THIS SOFTWARE, EVEN IF ADVISED OF THE POSSIBILITY OF SUCH DAMAGE.
    57                           ; 
    58                           ; 
    59                           ; Code-generator required, PIC12F1822 Definitions
    60                           ; 
    61                           ; SFR Addresses
    62  0000                     	;# 
    63  0001                     	;# 
    64  0002                     	;# 
    65  0003                     	;# 
    66  0004                     	;# 
    67  0005                     	;# 
    68  0006                     	;# 
    69  0007                     	;# 
    70  0008                     	;# 
    71  0009                     	;# 
    72  000A                     	;# 
    73  000B                     	;# 
    74  000C                     	;# 
    75  0011                     	;# 
    76  0012                     	;# 
    77  0015                     	;# 
    78  0016                     	;# 
    79  0016                     	;# 
    80  0017                     	;# 
    81  0018                     	;# 
    82  0019                     	;# 
    83  001A                     	;# 
    84  001B                     	;# 
    85  001C                     	;# 
    86  001E                     	;# 
    87  001F                     	;# 
    88  008C                     	;# 
    89  0091                     	;# 
    90  0092                     	;# 
    91  0095                     	;# 
    92  0096                     	;# 
    93  0097                     	;# 
    94  0098                     	;# 
    95  0099                     	;# 
    96  009A                     	;# 
    97  009B                     	;# 
    98  009B                     	;# 
    99  009C                     	;# 
   100  009D                     	;# 
   101  009E                     	;# 
   102  010C                     	;# 
   103  0111                     	;# 
   104  0112                     	;# 
   105  0115                     	;# 
   106  0116                     	;# 
   107  0117                     	;# 
   108  0118                     	;# 
   109  0119                     	;# 
   110  011A                     	;# 
   111  011B                     	;# 
   112  011D                     	;# 
   113  011D                     	;# 
   114  018C                     	;# 
   115  0191                     	;# 
   116  0191                     	;# 
   117  0192                     	;# 
   118  0193                     	;# 
   119  0193                     	;# 
   120  0193                     	;# 
   121  0194                     	;# 
   122  0195                     	;# 
   123  0196                     	;# 
   124  0199                     	;# 
   125  019A                     	;# 
   126  019B                     	;# 
   127  019B                     	;# 
   128  019B                     	;# 
   129  019B                     	;# 
   130  019C                     	;# 
   131  019C                     	;# 
   132  019D                     	;# 
   133  019E                     	;# 
   134  019F                     	;# 
   135  020C                     	;# 
   136  0211                     	;# 
   137  0211                     	;# 
   138  0212                     	;# 
   139  0212                     	;# 
   140  0213                     	;# 
   141  0213                     	;# 
   142  0214                     	;# 
   143  0214                     	;# 
   144  0215                     	;# 
   145  0215                     	;# 
   146  0215                     	;# 
   147  0216                     	;# 
   148  0216                     	;# 
   149  0217                     	;# 
   150  0217                     	;# 
   151  0291                     	;# 
   152  0291                     	;# 
   153  0292                     	;# 
   154  0293                     	;# 
   155  0294                     	;# 
   156  0295                     	;# 
   157  0295                     	;# 
   158  0296                     	;# 
   159  0391                     	;# 
   160  0392                     	;# 
   161  0393                     	;# 
   162  039A                     	;# 
   163  039C                     	;# 
   164  039D                     	;# 
   165  039E                     	;# 
   166  039F                     	;# 
   167  0FE4                     	;# 
   168  0FE5                     	;# 
   169  0FE6                     	;# 
   170  0FE7                     	;# 
   171  0FE8                     	;# 
   172  0FE9                     	;# 
   173  0FEA                     	;# 
   174  0FEB                     	;# 
   175  0FED                     	;# 
   176  0FEE                     	;# 
   177  0FEF                     	;# 
   178  0000                     	;# 
   179  0001                     	;# 
   180  0002                     	;# 
   181  0003                     	;# 
   182  0004                     	;# 
   183  0005                     	;# 
   184  0006                     	;# 
   185  0007                     	;# 
   186  0008                     	;# 
   187  0009                     	;# 
   188  000A                     	;# 
   189  000B                     	;# 
   190  000C                     	;# 
   191  0011                     	;# 
   192  0012                     	;# 
   193  0015                     	;# 
   194  0016                     	;# 
   195  0016                     	;# 
   196  0017                     	;# 
   197  0018                     	;# 
   198  0019                     	;# 
   199  001A                     	;# 
   200  001B                     	;# 
   201  001C                     	;# 
   202  001E                     	;# 
   203  001F                     	;# 
   204  008C                     	;# 
   205  0091                     	;# 
   206  0092                     	;# 
   207  0095                     	;# 
   208  0096                     	;# 
   209  0097                     	;# 
   210  0098                     	;# 
   211  0099                     	;# 
   212  009A                     	;# 
   213  009B                     	;# 
   214  009B                     	;# 
   215  009C                     	;# 
   216  009D                     	;# 
   217  009E                     	;# 
   218  010C                     	;# 
   219  0111                     	;# 
   220  0112                     	;# 
   221  0115                     	;# 
   222  0116                     	;# 
   223  0117                     	;# 
   224  0118                     	;# 
   225  0119                     	;# 
   226  011A                     	;# 
   227  011B                     	;# 
   228  011D                     	;# 
   229  011D                     	;# 
   230  018C                     	;# 
   231  0191                     	;# 
   232  0191                     	;# 
   233  0192                     	;# 
   234  0193                     	;# 
   235  0193                     	;# 
   236  0193                     	;# 
   237  0194                     	;# 
   238  0195                     	;# 
   239  0196                     	;# 
   240  0199                     	;# 
   241  019A                     	;# 
   242  019B                     	;# 
   243  019B                     	;# 
   244  019B                     	;# 
   245  019B                     	;# 
   246  019C                     	;# 
   247  019C                     	;# 
   248  019D                     	;# 
   249  019E                     	;# 
   250  019F                     	;# 
   251  020C                     	;# 
   252  0211                     	;# 
   253  0211                     	;# 
   254  0212                     	;# 
   255  0212                     	;# 
   256  0213                     	;# 
   257  0213                     	;# 
   258  0214                     	;# 
   259  0214                     	;# 
   260  0215                     	;# 
   261  0215                     	;# 
   262  0215                     	;# 
   263  0216                     	;# 
   264  0216                     	;# 
   265  0217                     	;# 
   266  0217                     	;# 
   267  0291                     	;# 
   268  0291                     	;# 
   269  0292                     	;# 
   270  0293                     	;# 
   271  0294                     	;# 
   272  0295                     	;# 
   273  0295                     	;# 
   274  0296                     	;# 
   275  0391                     	;# 
   276  0392                     	;# 
   277  0393                     	;# 
   278  039A                     	;# 
   279  039C                     	;# 
   280  039D                     	;# 
   281  039E                     	;# 
   282  039F                     	;# 
   283  0FE4                     	;# 
   284  0FE5                     	;# 
   285  0FE6                     	;# 
   286  0FE7                     	;# 
   287  0FE8                     	;# 
   288  0FE9                     	;# 
   289  0FEA                     	;# 
   290  0FEB                     	;# 
   291  0FED                     	;# 
   292  0FEE                     	;# 
   293  0FEF                     	;# 
   294  0000                     	;# 
   295  0001                     	;# 
   296  0002                     	;# 
   297  0003                     	;# 
   298  0004                     	;# 
   299  0005                     	;# 
   300  0006                     	;# 
   301  0007                     	;# 
   302  0008                     	;# 
   303  0009                     	;# 
   304  000A                     	;# 
   305  000B                     	;# 
   306  000C                     	;# 
   307  0011                     	;# 
   308  0012                     	;# 
   309  0015                     	;# 
   310  0016                     	;# 
   311  0016                     	;# 
   312  0017                     	;# 
   313  0018                     	;# 
   314  0019                     	;# 
   315  001A                     	;# 
   316  001B                     	;# 
   317  001C                     	;# 
   318  001E                     	;# 
   319  001F                     	;# 
   320  008C                     	;# 
   321  0091                     	;# 
   322  0092                     	;# 
   323  0095                     	;# 
   324  0096                     	;# 
   325  0097                     	;# 
   326  0098                     	;# 
   327  0099                     	;# 
   328  009A                     	;# 
   329  009B                     	;# 
   330  009B                     	;# 
   331  009C                     	;# 
   332  009D                     	;# 
   333  009E                     	;# 
   334  010C                     	;# 
   335  0111                     	;# 
   336  0112                     	;# 
   337  0115                     	;# 
   338  0116                     	;# 
   339  0117                     	;# 
   340  0118                     	;# 
   341  0119                     	;# 
   342  011A                     	;# 
   343  011B                     	;# 
   344  011D                     	;# 
   345  011D                     	;# 
   346  018C                     	;# 
   347  0191                     	;# 
   348  0191                     	;# 
   349  0192                     	;# 
   350  0193                     	;# 
   351  0193                     	;# 
   352  0193                     	;# 
   353  0194                     	;# 
   354  0195                     	;# 
   355  0196                     	;# 
   356  0199                     	;# 
   357  019A                     	;# 
   358  019B                     	;# 
   359  019B                     	;# 
   360  019B                     	;# 
   361  019B                     	;# 
   362  019C                     	;# 
   363  019C                     	;# 
   364  019D                     	;# 
   365  019E                     	;# 
   366  019F                     	;# 
   367  020C                     	;# 
   368  0211                     	;# 
   369  0211                     	;# 
   370  0212                     	;# 
   371  0212                     	;# 
   372  0213                     	;# 
   373  0213                     	;# 
   374  0214                     	;# 
   375  0214                     	;# 
   376  0215                     	;# 
   377  0215                     	;# 
   378  0215                     	;# 
   379  0216                     	;# 
   380  0216                     	;# 
   381  0217                     	;# 
   382  0217                     	;# 
   383  0291                     	;# 
   384  0291                     	;# 
   385  0292                     	;# 
   386  0293                     	;# 
   387  0294                     	;# 
   388  0295                     	;# 
   389  0295                     	;# 
   390  0296                     	;# 
   391  0391                     	;# 
   392  0392                     	;# 
   393  0393                     	;# 
   394  039A                     	;# 
   395  039C                     	;# 
   396  039D                     	;# 
   397  039E                     	;# 
   398  039F                     	;# 
   399  0FE4                     	;# 
   400  0FE5                     	;# 
   401  0FE6                     	;# 
   402  0FE7                     	;# 
   403  0FE8                     	;# 
   404  0FE9                     	;# 
   405  0FEA                     	;# 
   406  0FEB                     	;# 
   407  0FED                     	;# 
   408  0FEE                     	;# 
   409  0FEF                     	;# 
   410  0000                     	;# 
   411  0001                     	;# 
   412  0002                     	;# 
   413  0003                     	;# 
   414  0004                     	;# 
   415  0005                     	;# 
   416  0006                     	;# 
   417  0007                     	;# 
   418  0008                     	;# 
   419  0009                     	;# 
   420  000A                     	;# 
   421  000B                     	;# 
   422  000C                     	;# 
   423  0011                     	;# 
   424  0012                     	;# 
   425  0015                     	;# 
   426  0016                     	;# 
   427  0016                     	;# 
   428  0017                     	;# 
   429  0018                     	;# 
   430  0019                     	;# 
   431  001A                     	;# 
   432  001B                     	;# 
   433  001C                     	;# 
   434  001E                     	;# 
   435  001F                     	;# 
   436  008C                     	;# 
   437  0091                     	;# 
   438  0092                     	;# 
   439  0095                     	;# 
   440  0096                     	;# 
   441  0097                     	;# 
   442  0098                     	;# 
   443  0099                     	;# 
   444  009A                     	;# 
   445  009B                     	;# 
   446  009B                     	;# 
   447  009C                     	;# 
   448  009D                     	;# 
   449  009E                     	;# 
   450  010C                     	;# 
   451  0111                     	;# 
   452  0112                     	;# 
   453  0115                     	;# 
   454  0116                     	;# 
   455  0117                     	;# 
   456  0118                     	;# 
   457  0119                     	;# 
   458  011A                     	;# 
   459  011B                     	;# 
   460  011D                     	;# 
   461  011D                     	;# 
   462  018C                     	;# 
   463  0191                     	;# 
   464  0191                     	;# 
   465  0192                     	;# 
   466  0193                     	;# 
   467  0193                     	;# 
   468  0193                     	;# 
   469  0194                     	;# 
   470  0195                     	;# 
   471  0196                     	;# 
   472  0199                     	;# 
   473  019A                     	;# 
   474  019B                     	;# 
   475  019B                     	;# 
   476  019B                     	;# 
   477  019B                     	;# 
   478  019C                     	;# 
   479  019C                     	;# 
   480  019D                     	;# 
   481  019E                     	;# 
   482  019F                     	;# 
   483  020C                     	;# 
   484  0211                     	;# 
   485  0211                     	;# 
   486  0212                     	;# 
   487  0212                     	;# 
   488  0213                     	;# 
   489  0213                     	;# 
   490  0214                     	;# 
   491  0214                     	;# 
   492  0215                     	;# 
   493  0215                     	;# 
   494  0215                     	;# 
   495  0216                     	;# 
   496  0216                     	;# 
   497  0217                     	;# 
   498  0217                     	;# 
   499  0291                     	;# 
   500  0291                     	;# 
   501  0292                     	;# 
   502  0293                     	;# 
   503  0294                     	;# 
   504  0295                     	;# 
   505  0295                     	;# 
   506  0296                     	;# 
   507  0391                     	;# 
   508  0392                     	;# 
   509  0393                     	;# 
   510  039A                     	;# 
   511  039C                     	;# 
   512  039D                     	;# 
   513  039E                     	;# 
   514  039F                     	;# 
   515  0FE4                     	;# 
   516  0FE5                     	;# 
   517  0FE6                     	;# 
   518  0FE7                     	;# 
   519  0FE8                     	;# 
   520  0FE9                     	;# 
   521  0FEA                     	;# 
   522  0FEB                     	;# 
   523  0FED                     	;# 
   524  0FEE                     	;# 
   525  0FEF                     	;# 
   526                           
   527                           	psect	idataBANK0
   528  0564                     __pidataBANK0:
   529                           
   530                           ;initializer for _PKT_FUNC
   531  0564  3491               	retlw	low _DEC_SET
   532  0565  3405               	retlw	high _DEC_SET
   533  0566  3491               	retlw	low _DEC_SET
   534  0567  3405               	retlw	high _DEC_SET
   535  0568  348F               	retlw	low _PWM_SET
   536  0569  3405               	retlw	high _PWM_SET
   537  056A  348F               	retlw	low _PWM_SET
   538  056B  3405               	retlw	high _PWM_SET
   539  056C  3490               	retlw	low _FUNC_SET
   540  056D  3405               	retlw	high _FUNC_SET
   541  056E  3490               	retlw	low _FUNC_SET
   542  056F  3405               	retlw	high _FUNC_SET
   543  0570  3400               	retlw	0
   544  0571  3400               	retlw	0
   545  0572  3492               	retlw	low _CONFIG_SET
   546  0573  3405               	retlw	high _CONFIG_SET
   547                           
   548                           ;initializer for _EE_STORE
   549  0574  3406               	retlw	6
   550  0575  34FF               	retlw	255
   551  0576  3400               	retlw	0
   552  0577  3400               	retlw	0
   553  0578  3455               	retlw	85
   554  0579  3400               	retlw	0
   555  057A  34FF               	retlw	255
   556  057B  340F               	retlw	15
   557  057C  34FF               	retlw	255
   558  057D  340F               	retlw	15
   559  057E  34FF               	retlw	255
   560  057F  340F               	retlw	15
   561  0580  34AA               	retlw	170
   562  0581  3400               	retlw	0
   563  0582  3400               	retlw	0
   564  0583  3400               	retlw	0
   565                           
   566                           	psect	stringtext1
   567  058A                     __pstringtext1:
   568  058A                     _DCC_ADRS:
   569  058A  347F               	retlw	127
   570  058B  34BF               	retlw	191
   571  058C  34E7               	retlw	231
   572  058D  34FC               	retlw	252
   573  058E  34FE               	retlw	254
   574  058F                     __end_of_DCC_ADRS:
   575  0016                     _TMR1	set	22
   576  0012                     _PIR2bits	set	18
   577  0011                     _PIR1	set	17
   578  0011                     _PIR1bits	set	17
   579  000B                     _INTCONbits	set	11
   580  001C                     _T2CON	set	28
   581  001B                     _PR2	set	27
   582  0018                     _T1CON	set	24
   583  000B                     _INTCON	set	11
   584  000C                     _PORTA	set	12
   585  0092                     _PIE2	set	146
   586  0091                     _PIE1	set	145
   587  008C                     _TRISA	set	140
   588  0099                     _OSCCON	set	153
   589  011D                     _APFCON	set	285
   590  0193                     _EEDAT	set	403
   591  0191                     _EEADR	set	401
   592  0196                     _EECON2	set	406
   593  0195                     _EECON1bits	set	405
   594  0195                     _EECON1	set	405
   595  018C                     _ANSELA	set	396
   596  0291                     _CCPR1L	set	657
   597  0296                     _PSTR1CON	set	662
   598  0293                     _CCP1CON	set	659
   599  0393                     _IOCAF	set	915
   600  0391                     _IOCAP	set	913
   601                           
   602                           	psect	cinit
   603  00F9                     start_initialization:	
   604                           ; #config settings
   605                           
   606  00F9                     __initialization:
   607                           
   608                           ; Initialize objects allocated to BANK0
   609  00F9  3064               	movlw	low __pidataBANK0
   610  00FA  0084               	movwf	4
   611  00FB  3085               	movlw	(high __pidataBANK0)| (0+128)
   612  00FC  0085               	movwf	5
   613  00FD  3020               	movlw	low __pdataBANK0
   614  00FE  0086               	movwf	6
   615  00FF  3000               	movlw	high __pdataBANK0
   616  0100  0087               	movwf	7
   617  0101  3020               	movlw	32
   618  0102  3185  2584  3180   	fcall	init_ram
   619                           
   620                           ; Clear objects allocated to COMMON
   621  0105  01F8               	clrf	__pbssCOMMON& (0+127)
   622  0106  01F9               	clrf	(__pbssCOMMON+1)& (0+127)
   623                           
   624                           ; Clear objects allocated to BANK0
   625  0107  01C9               	clrf	__pbssBANK0& (0+127)
   626  0108  01CA               	clrf	(__pbssBANK0+1)& (0+127)
   627  0109                     end_of_initialization:	
   628                           ;End of C runtime variable initialization code
   629                           
   630  0109                     __end_of__initialization:
   631  0109  107E               	bcf	int$flags,0	;clear compiler interrupt flag (level 1)
   632  010A  0020               	movlb	0
   633  010B  2C7E               	ljmp	_main	;jump to C main() function
   634                           
   635                           	psect	bssCOMMON
   636  0078                     __pbssCOMMON:
   637  0078                     _COUNTER:
   638  0078                     	ds	1
   639  0079                     _DATA:
   640  0079                     	ds	1
   641                           
   642                           	psect	bssBANK0
   643  0049                     __pbssBANK0:
   644  0049                     _STCR:
   645  0049                     	ds	1
   646  004A                     _COM_FLAG:
   647  004A                     	ds	1
   648                           
   649                           	psect	dataBANK0
   650  0020                     __pdataBANK0:
   651  0020                     _PKT_FUNC:
   652  0020                     	ds	16
   653  0030                     _EE_STORE:
   654  0030                     	ds	16
   655                           
   656                           	psect	inittext
   657  0584                     init_ram:
   658  0584  00FE               	movwf	btemp
   659  0585                     initloop:
   660  0585  0012               	moviw fsr0++
   661  0586  001E               	movwi fsr1++
   662  0587  0BFE               	decfsz	btemp,f
   663  0588  2D85               	goto	initloop
   664  0589  3400               	retlw	0
   665                           
   666                           	psect	cstackCOMMON
   667  0070                     __pcstackCOMMON:
   668  0070                     ?_DEC_SET:
   669  0070                     ?_PWM_SET:	
   670                           ; 1 bytes @ 0x0
   671                           
   672  0070                     ?_FUNC_SET:	
   673                           ; 1 bytes @ 0x0
   674                           
   675  0070                     ?_CONFIG_SET:	
   676                           ; 1 bytes @ 0x0
   677                           
   678  0070                     ?_EEPROM_SELECT:	
   679                           ; 1 bytes @ 0x0
   680                           
   681  0070                     ?_PACKET_CONTROL:	
   682                           ; 1 bytes @ 0x0
   683                           
   684  0070                     ?_main:	
   685                           ; 1 bytes @ 0x0
   686                           
   687  0070                     ?_isr:	
   688                           ; 1 bytes @ 0x0
   689                           
   690  0070                     ?i1_EEPROM_SELECT:	
   691                           ; 1 bytes @ 0x0
   692                           
   693  0070                     ??i1_EEPROM_SELECT:	
   694                           ; 1 bytes @ 0x0
   695                           
   696                           
   697                           ; 1 bytes @ 0x0
   698  0070                     	ds	2
   699  0072                     i1EEPROM_SELECT@EE_SAVE:
   700                           
   701                           ; 2 bytes @ 0x2
   702  0072                     	ds	2
   703  0074                     i1EEPROM_SELECT@COUNT:
   704                           
   705                           ; 1 bytes @ 0x4
   706  0074                     	ds	1
   707  0075                     ??_isr:
   708                           
   709                           ; 1 bytes @ 0x5
   710  0075                     	ds	1
   711  0076                     isr@COUNT:
   712                           
   713                           ; 2 bytes @ 0x6
   714  0076                     	ds	2
   715                           
   716                           	psect	cstackBANK0
   717  0040                     __pcstackBANK0:
   718  0040                     ??_DEC_SET:
   719  0040                     ??_PWM_SET:	
   720                           ; 1 bytes @ 0x0
   721                           
   722  0040                     ??_FUNC_SET:	
   723                           ; 1 bytes @ 0x0
   724                           
   725  0040                     ??_CONFIG_SET:	
   726                           ; 1 bytes @ 0x0
   727                           
   728  0040                     ??_EEPROM_SELECT:	
   729                           ; 1 bytes @ 0x0
   730                           
   731  0040                     ??_PACKET_CONTROL:	
   732                           ; 1 bytes @ 0x0
   733                           
   734                           
   735                           ; 1 bytes @ 0x0
   736  0040                     	ds	2
   737  0042                     EEPROM_SELECT@EE_SAVE:
   738                           
   739                           ; 2 bytes @ 0x2
   740  0042                     	ds	2
   741  0044                     EEPROM_SELECT@COUNT:
   742                           
   743                           ; 1 bytes @ 0x4
   744  0044                     	ds	1
   745  0045                     ??_main:
   746                           
   747                           ; 1 bytes @ 0x5
   748  0045                     	ds	2
   749  0047                     main@count:
   750                           
   751                           ; 1 bytes @ 0x7
   752  0047                     	ds	1
   753  0048                     main@CKS:
   754                           
   755                           ; 1 bytes @ 0x8
   756  0048                     	ds	1
   757                           
   758                           	psect	maintext
   759  047E                     __pmaintext:	
   760 ;;
   761 ;;Main: autosize = 0, tempsize = 2, incstack = 0, save=0
   762 ;;
   763 ;; *************** function _main *****************
   764 ;; Defined at:
   765 ;;		line 31 in file "Project_ATCS_Decorder_Main.c"
   766 ;; Parameters:    Size  Location     Type
   767 ;;		None
   768 ;; Auto vars:     Size  Location     Type
   769 ;;  count           1    7[BANK0 ] unsigned char 
   770 ;;  CKS             1    8[BANK0 ] unsigned char 
   771 ;; Return value:  Size  Location     Type
   772 ;;                  1    wreg      void 
   773 ;; Registers used:
   774 ;;		wreg, fsr0l, fsr0h, fsr1l, fsr1h, status,2, status,0, pclath, cstack
   775 ;; Tracked objects:
   776 ;;		On entry : B1F/0
   777 ;;		On exit  : 0/0
   778 ;;		Unchanged: 0/0
   779 ;; Data sizes:     COMMON   BANK0
   780 ;;      Params:         0       0
   781 ;;      Locals:         0       2
   782 ;;      Temps:          0       2
   783 ;;      Totals:         0       4
   784 ;;Total ram usage:        4 bytes
   785 ;; Hardware stack levels required when called: 4
   786 ;; This function calls:
   787 ;;		_EEPROM_SELECT
   788 ;;		_PACKET_CONTROL
   789 ;; This function is called by:
   790 ;;		Startup code after reset
   791 ;; This function uses a non-reentrant model
   792 ;;
   793                           
   794  047E                     _main:	
   795                           ;psect for function _main
   796                           
   797  047E                     l1725:	
   798                           ;incstack = 0
   799                           ; Regs used in _main: [wreg-fsr1h+status,2+status,0+pclath+cstack]
   800                           
   801                           
   802                           ;Project_ATCS_Decorder_Main.c: 33:     OSCCON = 0x72;
   803  047E  3072               	movlw	114
   804  047F  0021               	movlb	1	; select bank1
   805  0480  0099               	movwf	25	;volatile
   806  0481                     l1727:
   807                           
   808                           ;Project_ATCS_Decorder_Main.c: 34:     ANSELA = 0x00;
   809  0481  0023               	movlb	3	; select bank3
   810  0482  018C               	clrf	12	;volatile
   811  0483                     l1729:
   812                           
   813                           ;Project_ATCS_Decorder_Main.c: 36:     TRISA = 0x04;
   814  0483  3004               	movlw	4
   815  0484  0021               	movlb	1	; select bank1
   816  0485  008C               	movwf	12	;volatile
   817                           
   818                           ;Project_ATCS_Decorder_Main.c: 37:     PORTA = 0x00;
   819  0486  0020               	movlb	0	; select bank0
   820  0487  018C               	clrf	12	;volatile
   821  0488                     l1731:
   822                           
   823                           ;Project_ATCS_Decorder_Main.c: 39:     APFCON = 0x03;
   824  0488  3003               	movlw	3
   825  0489  0022               	movlb	2	; select bank2
   826  048A  009D               	movwf	29	;volatile
   827  048B                     l1733:
   828                           
   829                           ;Project_ATCS_Decorder_Main.c: 41:     INTCON = 0xC8;
   830  048B  30C8               	movlw	200
   831  048C  008B               	movwf	11	;volatile
   832  048D                     l1735:
   833                           
   834                           ;Project_ATCS_Decorder_Main.c: 42:     IOCAP = 0x04;
   835  048D  3004               	movlw	4
   836  048E  0027               	movlb	7	; select bank7
   837  048F  0091               	movwf	17	;volatile
   838  0490                     l1737:
   839                           
   840                           ;Project_ATCS_Decorder_Main.c: 43:     PIE1 = 0x81;
   841  0490  3081               	movlw	129
   842  0491  0021               	movlb	1	; select bank1
   843  0492  0091               	movwf	17	;volatile
   844  0493                     l1739:
   845                           
   846                           ;Project_ATCS_Decorder_Main.c: 44:     PIE2 = 0x10;
   847  0493  3010               	movlw	16
   848  0494  0092               	movwf	18	;volatile
   849  0495                     l1741:
   850                           
   851                           ;Project_ATCS_Decorder_Main.c: 45:     T1CON = 0x01;
   852  0495  3001               	movlw	1
   853  0496  0020               	movlb	0	; select bank0
   854  0497  0098               	movwf	24	;volatile
   855  0498                     l1743:
   856                           
   857                           ;Project_ATCS_Decorder_Main.c: 47:     CCP1CON = 0x0F;
   858  0498  300F               	movlw	15
   859  0499  0025               	movlb	5	; select bank5
   860  049A  0093               	movwf	19	;volatile
   861  049B                     l1745:
   862                           
   863                           ;Project_ATCS_Decorder_Main.c: 48:     PSTR1CON = 0x01;
   864  049B  3001               	movlw	1
   865  049C  0096               	movwf	22	;volatile
   866  049D                     l1747:
   867                           
   868                           ;Project_ATCS_Decorder_Main.c: 49:     PR2 = 0x19;
   869  049D  3019               	movlw	25
   870  049E  0020               	movlb	0	; select bank0
   871  049F  009B               	movwf	27	;volatile
   872  04A0                     l1749:
   873                           
   874                           ;Project_ATCS_Decorder_Main.c: 50:     CCPR1L = 0x3F;
   875  04A0  303F               	movlw	63
   876  04A1  0025               	movlb	5	; select bank5
   877  04A2  0091               	movwf	17	;volatile
   878  04A3                     l1751:
   879                           
   880                           ;Project_ATCS_Decorder_Main.c: 51:     T2CON = 0x04;
   881  04A3  3004               	movlw	4
   882  04A4  0020               	movlb	0	; select bank0
   883  04A5  009C               	movwf	28	;volatile
   884  04A6                     l1753:
   885                           
   886                           ;Project_ATCS_Decorder_Main.c: 53:     EE_STORE.EE_STATE = EE_WRITE_UID;
   887  04A6  3002               	movlw	2
   888  04A7  00C5               	movwf	??_main
   889  04A8  0845               	movf	??_main,w
   890  04A9  00B0               	movwf	_EE_STORE
   891  04AA                     l1755:
   892                           
   893                           ;Project_ATCS_Decorder_Main.c: 54:     EEPROM_SELECT();
   894  04AA  3181  210C  3184   	fcall	_EEPROM_SELECT
   895  04AD                     l1757:
   896                           
   897                           ;Project_ATCS_Decorder_Main.c: 56:         if(COM_FLAG & 0x04){
   898  04AD  0020               	movlb	0	; select bank0
   899  04AE  1D4A               	btfss	_COM_FLAG,2
   900  04AF  2CB1               	goto	u931
   901  04B0  2CB2               	goto	u930
   902  04B1                     u931:
   903  04B1  2CAD               	goto	l1757
   904  04B2                     u930:
   905  04B2                     l1759:
   906                           
   907                           ;Project_ATCS_Decorder_Main.c: 57:             COM_FLAG = COM_FLAG & 0xFB;
   908  04B2  084A               	movf	_COM_FLAG,w
   909  04B3  39FB               	andlw	251
   910  04B4  00C5               	movwf	??_main
   911  04B5  0845               	movf	??_main,w
   912  04B6  00CA               	movwf	_COM_FLAG
   913  04B7                     l1761:
   914                           
   915                           ;Project_ATCS_Decorder_Main.c: 58:             UnCHR CKS = STACK[0];
   916  04B7  0021               	movlb	1	; select bank1
   917  04B8  0820               	movf	32,w
   918  04B9  0020               	movlb	0	; select bank0
   919  04BA  00C5               	movwf	??_main
   920  04BB  0845               	movf	??_main,w
   921  04BC  00C8               	movwf	main@CKS
   922  04BD                     l1763:
   923                           
   924                           ;Project_ATCS_Decorder_Main.c: 60:             if(STCR < 7){
   925  04BD  3007               	movlw	7
   926  04BE  0249               	subwf	_STCR,w
   927  04BF  1803               	skipnc
   928  04C0  2CC2               	goto	u941
   929  04C1  2CC3               	goto	u940
   930  04C2                     u941:
   931  04C2  2CAD               	goto	l1757
   932  04C3                     u940:
   933  04C3                     l1765:
   934                           
   935                           ;Project_ATCS_Decorder_Main.c: 61:                 for(UnCHR count = 1 ;count < STCR;cou
      +                          nt++){
   936  04C3  01C7               	clrf	main@count
   937  04C4  0AC7               	incf	main@count,f
   938  04C5  2CD3               	goto	l1771
   939  04C6                     l1767:
   940                           
   941                           ;Project_ATCS_Decorder_Main.c: 62:                     CKS = CKS ^ STACK[STCR];
   942  04C6  0849               	movf	_STCR,w
   943  04C7  3EA0               	addlw	160
   944  04C8  0086               	movwf	6
   945  04C9  0187               	clrf	7
   946  04CA  0801               	movf	1,w
   947  04CB  0648               	xorwf	main@CKS,w
   948  04CC  00C5               	movwf	??_main
   949  04CD  0845               	movf	??_main,w
   950  04CE  00C8               	movwf	main@CKS
   951  04CF                     l1769:
   952                           
   953                           ;Project_ATCS_Decorder_Main.c: 63:                 }
   954  04CF  3001               	movlw	1
   955  04D0  00C5               	movwf	??_main
   956  04D1  0845               	movf	??_main,w
   957  04D2  07C7               	addwf	main@count,f
   958  04D3                     l1771:
   959  04D3  0849               	movf	_STCR,w
   960  04D4  0247               	subwf	main@count,w
   961  04D5  1C03               	skipc
   962  04D6  2CD8               	goto	u951
   963  04D7  2CD9               	goto	u950
   964  04D8                     u951:
   965  04D8  2CC6               	goto	l1767
   966  04D9                     u950:
   967  04D9                     l1773:
   968                           
   969                           ;Project_ATCS_Decorder_Main.c: 65:                 if(CKS == STACK[STCR]){
   970  04D9  0849               	movf	_STCR,w
   971  04DA  3EA0               	addlw	160
   972  04DB  0086               	movwf	6
   973  04DC  0187               	clrf	7
   974  04DD  0801               	movf	1,w
   975  04DE  0648               	xorwf	main@CKS,w
   976  04DF  1D03               	skipz
   977  04E0  2CE2               	goto	u961
   978  04E1  2CE3               	goto	u960
   979  04E2                     u961:
   980  04E2  2CAD               	goto	l1757
   981  04E3                     u960:
   982  04E3                     l1775:
   983                           
   984                           ;Project_ATCS_Decorder_Main.c: 66:                     if(STACK[0] == 0x00){
   985  04E3  0021               	movlb	1	; select bank1
   986  04E4  0820               	movf	32,w
   987  04E5  1D03               	btfss	3,2
   988  04E6  2CE8               	goto	u971
   989  04E7  2CE9               	goto	u970
   990  04E8                     u971:
   991  04E8  2CED               	goto	l1779
   992  04E9                     u970:
   993  04E9                     l1777:
   994                           
   995                           ;Project_ATCS_Decorder_Main.c: 67:                         PACKET_CONTROL();
   996  04E9  3185  2514  3184   	fcall	_PACKET_CONTROL
   997                           
   998                           ;Project_ATCS_Decorder_Main.c: 68:                     }else if(STACK[0] <= 0x7F){
   999  04EC  2CAD               	goto	l1757
  1000  04ED                     l1779:
  1001  04ED  3080               	movlw	128
  1002  04EE  0220               	subwf	32,w
  1003  04EF  1803               	skipnc
  1004  04F0  2CF2               	goto	u981
  1005  04F1  2CF3               	goto	u980
  1006  04F2                     u981:
  1007  04F2  2CAD               	goto	l1757
  1008  04F3                     u980:
  1009  04F3                     l1781:
  1010                           
  1011                           ;Project_ATCS_Decorder_Main.c: 69:                         EE_STORE.EE_ADRS = 0x00;
  1012  04F3  0020               	movlb	0	; select bank0
  1013  04F4  01B2               	clrf	_EE_STORE+2
  1014  04F5  01B3               	clrf	_EE_STORE+3
  1015                           
  1016                           ;Project_ATCS_Decorder_Main.c: 70:                         EE_STORE.EE_STATE = EE_READ_S
      +                          ;
  1017  04F6  01B0               	clrf	_EE_STORE
  1018  04F7                     l1783:
  1019                           
  1020                           ;Project_ATCS_Decorder_Main.c: 71:                         EE_STORE.EE_CONFIG = 0x40;
  1021  04F7  3040               	movlw	64
  1022  04F8  00C5               	movwf	??_main
  1023  04F9  0845               	movf	??_main,w
  1024  04FA  00B1               	movwf	_EE_STORE+1
  1025  04FB                     l1785:
  1026                           
  1027                           ;Project_ATCS_Decorder_Main.c: 72:                         EE_STORE.EE_REPORT[0] = 0xAA;
  1028  04FB  30AA               	movlw	170
  1029  04FC  00C5               	movwf	??_main
  1030  04FD  0845               	movf	??_main,w
  1031  04FE  00BC               	movwf	_EE_STORE+12
  1032  04FF                     l1787:
  1033                           
  1034                           ;Project_ATCS_Decorder_Main.c: 73:                         EEPROM_SELECT();
  1035  04FF  3181  210C  3184   	fcall	_EEPROM_SELECT
  1036  0502                     l1789:
  1037                           
  1038                           ;Project_ATCS_Decorder_Main.c: 74:                         if(STACK[0] == EE_STORE.EE_DA
      +                          TA[0]){
  1039  0502  0021               	movlb	1	; select bank1
  1040  0503  0820               	movf	32,w
  1041  0504  0020               	movlb	0	; select bank0
  1042  0505  00C5               	movwf	??_main
  1043  0506  01C6               	clrf	??_main+1
  1044  0507  0835               	movf	_EE_STORE+5,w
  1045  0508  0646               	xorwf	??_main+1,w
  1046  0509  1D03               	skipz
  1047  050A  2D0D               	goto	u995
  1048  050B  0834               	movf	_EE_STORE+4,w
  1049  050C  0645               	xorwf	??_main,w
  1050  050D                     u995:
  1051  050D  1D03               	skipz
  1052  050E  2D10               	goto	u991
  1053  050F  2D11               	goto	u990
  1054  0510                     u991:
  1055  0510  2D12               	goto	l65
  1056  0511                     u990:
  1057  0511  2CE9               	goto	l1777
  1058  0512                     l65:	
  1059                           ;Project_ATCS_Decorder_Main.c: 78:                 }
  1060                           
  1061  0512  2CAD               	goto	l1757
  1062  0513  28F8               	ljmp	start
  1063  0514                     __end_of_main:
  1064                           
  1065                           	psect	text1
  1066  0514                     __ptext1:	
  1067 ;; *************** function _PACKET_CONTROL *****************
  1068 ;; Defined at:
  1069 ;;		line 138 in file "Project_ATCS_Decorder_Module.c"
  1070 ;; Parameters:    Size  Location     Type
  1071 ;;		None
  1072 ;; Auto vars:     Size  Location     Type
  1073 ;;		None
  1074 ;; Return value:  Size  Location     Type
  1075 ;;                  1    wreg      void 
  1076 ;; Registers used:
  1077 ;;		wreg, fsr0l, fsr0h, status,2, status,0, pclath, cstack
  1078 ;; Tracked objects:
  1079 ;;		On entry : 0/0
  1080 ;;		On exit  : 0/0
  1081 ;;		Unchanged: 0/0
  1082 ;; Data sizes:     COMMON   BANK0
  1083 ;;      Params:         0       0
  1084 ;;      Locals:         0       0
  1085 ;;      Temps:          0       3
  1086 ;;      Totals:         0       3
  1087 ;;Total ram usage:        3 bytes
  1088 ;; Hardware stack levels used: 1
  1089 ;; Hardware stack levels required when called: 3
  1090 ;; This function calls:
  1091 ;;		_CONFIG_SET
  1092 ;;		_DEC_SET
  1093 ;;		_FUNC_SET
  1094 ;;		_PWM_SET
  1095 ;; This function is called by:
  1096 ;;		_main
  1097 ;; This function uses a non-reentrant model
  1098 ;;
  1099                           
  1100  0514                     _PACKET_CONTROL:	
  1101                           ;psect for function _PACKET_CONTROL
  1102                           
  1103  0514                     l1537:	
  1104                           ;incstack = 0
  1105                           ; Regs used in _PACKET_CONTROL: [wreg-fsr0h+status,2+status,0+pclath+cstack]
  1106                           
  1107                           
  1108                           ;Project_ATCS_Decorder_Module.c: 139:     switch(STACK[1] >> 5){
  1109  0514  2D39               	goto	l1575
  1110  0515                     l1539:
  1111                           
  1112                           ;Project_ATCS_Decorder_Module.c: 141:             COM_FLAG &= 0xF7;
  1113  0515  30F7               	movlw	247
  1114  0516  00C0               	movwf	??_PACKET_CONTROL
  1115  0517  0840               	movf	??_PACKET_CONTROL,w
  1116  0518  05CA               	andwf	_COM_FLAG,f
  1117  0519                     l1541:
  1118                           
  1119                           ;Project_ATCS_Decorder_Module.c: 142:             DEC_SET();
  1120  0519  3185  2591  3185   	fcall	_DEC_SET
  1121  051C  2D63               	goto	l209
  1122  051D                     l210:	
  1123                           ;Project_ATCS_Decorder_Module.c: 144:         case 1:
  1124                           
  1125                           
  1126                           ;Project_ATCS_Decorder_Module.c: 145:             COM_FLAG |= 0x08;
  1127  051D  15CA               	bsf	_COM_FLAG,3
  1128  051E  2D19               	goto	l1541
  1129  051F                     l211:	
  1130                           ;Project_ATCS_Decorder_Module.c: 148:         case 2:
  1131                           
  1132                           
  1133                           ;Project_ATCS_Decorder_Module.c: 149:             COM_FLAG |= 0x10;
  1134  051F  164A               	bsf	_COM_FLAG,4
  1135  0520                     l1549:
  1136                           
  1137                           ;Project_ATCS_Decorder_Module.c: 150:             PWM_SET();
  1138  0520  3185  258F  3185   	fcall	_PWM_SET
  1139  0523  2D63               	goto	l209
  1140  0524                     l1553:
  1141                           
  1142                           ;Project_ATCS_Decorder_Module.c: 153:             COM_FLAG &= 0xEF;
  1143  0524  30EF               	movlw	239
  1144  0525  00C0               	movwf	??_PACKET_CONTROL
  1145  0526  0840               	movf	??_PACKET_CONTROL,w
  1146  0527  05CA               	andwf	_COM_FLAG,f
  1147  0528  2D20               	goto	l1549
  1148  0529                     l1559:
  1149                           
  1150                           ;Project_ATCS_Decorder_Module.c: 157:             COM_FLAG &= 0xDF;
  1151  0529  30DF               	movlw	223
  1152  052A  00C0               	movwf	??_PACKET_CONTROL
  1153  052B  0840               	movf	??_PACKET_CONTROL,w
  1154  052C  05CA               	andwf	_COM_FLAG,f
  1155  052D                     l1561:
  1156                           
  1157                           ;Project_ATCS_Decorder_Module.c: 158:             FUNC_SET();
  1158  052D  3185  2590  3185   	fcall	_FUNC_SET
  1159  0530  2D63               	goto	l209
  1160  0531                     l214:	
  1161                           ;Project_ATCS_Decorder_Module.c: 160:         case 5:
  1162                           
  1163                           
  1164                           ;Project_ATCS_Decorder_Module.c: 161:             COM_FLAG |= 0x20;
  1165  0531  16CA               	bsf	_COM_FLAG,5
  1166  0532  2D2D               	goto	l1561
  1167  0533                     l215:	
  1168                           ;Project_ATCS_Decorder_Module.c: 164:         case 6:
  1169                           
  1170                           
  1171                           ;Project_ATCS_Decorder_Module.c: 165:             __nop();
  1172  0533  0000               	nop
  1173                           
  1174                           ;Project_ATCS_Decorder_Module.c: 166:             return;
  1175  0534  2D63               	goto	l209
  1176  0535                     l1569:
  1177                           
  1178                           ;Project_ATCS_Decorder_Module.c: 168:             CONFIG_SET();
  1179  0535  3185  2592  3185   	fcall	_CONFIG_SET
  1180  0538  2D63               	goto	l209
  1181  0539                     l1575:
  1182  0539  0021               	movlb	1	; select bank1
  1183  053A  0821               	movf	33,w
  1184  053B  0020               	movlb	0	; select bank0
  1185  053C  00C0               	movwf	??_PACKET_CONTROL
  1186  053D  3005               	movlw	5
  1187  053E                     u745:
  1188  053E  36C0               	lsrf	??_PACKET_CONTROL,f
  1189  053F  0B89               	decfsz	9,f
  1190  0540  2D3E               	goto	u745
  1191  0541  0840               	movf	??_PACKET_CONTROL,w
  1192  0542  00C1               	movwf	??_PACKET_CONTROL+1
  1193  0543  01C2               	clrf	??_PACKET_CONTROL+2
  1194                           
  1195                           ; Switch on 2 bytes has been partitioned into a top level switch of size 1, and 1 sub-sw
      +                          itches
  1196                           ; Switch size 1, requested type "simple"
  1197                           ; Number of cases is 1, Range of values is 0 to 0
  1198                           ; switch strategies available:
  1199                           ; Name         Instructions Cycles
  1200                           ; simple_byte            4     3 (average)
  1201                           ; direct_byte            8     6 (fixed)
  1202                           ; jumptable            260     6 (fixed)
  1203                           ;	Chosen strategy is simple_byte
  1204  0544  0842               	movf	??_PACKET_CONTROL+2,w
  1205  0545  3A00               	xorlw	0	; case 0
  1206  0546  1903               	skipnz
  1207  0547  2D49               	goto	l1961
  1208  0548  2D63               	goto	l209
  1209  0549                     l1961:
  1210                           
  1211                           ; Switch size 1, requested type "simple"
  1212                           ; Number of cases is 8, Range of values is 0 to 7
  1213                           ; switch strategies available:
  1214                           ; Name         Instructions Cycles
  1215                           ; direct_byte           22     6 (fixed)
  1216                           ; simple_byte           25    13 (average)
  1217                           ; jumptable            260     6 (fixed)
  1218                           ;	Chosen strategy is simple_byte
  1219  0549  0841               	movf	??_PACKET_CONTROL+1,w
  1220  054A  3A00               	xorlw	0	; case 0
  1221  054B  1903               	skipnz
  1222  054C  2D15               	goto	l1539
  1223  054D  3A01               	xorlw	1	; case 1
  1224  054E  1903               	skipnz
  1225  054F  2D1D               	goto	l210
  1226  0550  3A03               	xorlw	3	; case 2
  1227  0551  1903               	skipnz
  1228  0552  2D1F               	goto	l211
  1229  0553  3A01               	xorlw	1	; case 3
  1230  0554  1903               	skipnz
  1231  0555  2D24               	goto	l1553
  1232  0556  3A07               	xorlw	7	; case 4
  1233  0557  1903               	skipnz
  1234  0558  2D29               	goto	l1559
  1235  0559  3A01               	xorlw	1	; case 5
  1236  055A  1903               	skipnz
  1237  055B  2D31               	goto	l214
  1238  055C  3A03               	xorlw	3	; case 6
  1239  055D  1903               	skipnz
  1240  055E  2D33               	goto	l215
  1241  055F  3A01               	xorlw	1	; case 7
  1242  0560  1903               	skipnz
  1243  0561  2D35               	goto	l1569
  1244  0562  2D63               	goto	l209
  1245  0563                     l209:
  1246  0563  0008               	return
  1247  0564                     __end_of_PACKET_CONTROL:
  1248                           
  1249                           	psect	text2
  1250  058F                     __ptext2:	
  1251 ;; *************** function _PWM_SET *****************
  1252 ;; Defined at:
  1253 ;;		line 174 in file "Project_ATCS_Decorder_Module.c"
  1254 ;; Parameters:    Size  Location     Type
  1255 ;;		None
  1256 ;; Auto vars:     Size  Location     Type
  1257 ;;		None
  1258 ;; Return value:  Size  Location     Type
  1259 ;;                  1    wreg      void 
  1260 ;; Registers used:
  1261 ;;		None
  1262 ;; Tracked objects:
  1263 ;;		On entry : 0/0
  1264 ;;		On exit  : 0/0
  1265 ;;		Unchanged: 0/0
  1266 ;; Data sizes:     COMMON   BANK0
  1267 ;;      Params:         0       0
  1268 ;;      Locals:         0       0
  1269 ;;      Temps:          0       0
  1270 ;;      Totals:         0       0
  1271 ;;Total ram usage:        0 bytes
  1272 ;; Hardware stack levels used: 1
  1273 ;; Hardware stack levels required when called: 2
  1274 ;; This function calls:
  1275 ;;		Nothing
  1276 ;; This function is called by:
  1277 ;;		_PACKET_CONTROL
  1278 ;; This function uses a non-reentrant model
  1279 ;;
  1280                           
  1281  058F                     _PWM_SET:	
  1282                           ;psect for function _PWM_SET
  1283                           
  1284  058F                     l223:	
  1285                           ;incstack = 0
  1286                           ; Regs used in _PWM_SET: []
  1287                           
  1288  058F  0008               	return
  1289  0590                     __end_of_PWM_SET:
  1290                           
  1291                           	psect	text3
  1292  0590                     __ptext3:	
  1293 ;; *************** function _FUNC_SET *****************
  1294 ;; Defined at:
  1295 ;;		line 175 in file "Project_ATCS_Decorder_Module.c"
  1296 ;; Parameters:    Size  Location     Type
  1297 ;;		None
  1298 ;; Auto vars:     Size  Location     Type
  1299 ;;		None
  1300 ;; Return value:  Size  Location     Type
  1301 ;;                  1    wreg      void 
  1302 ;; Registers used:
  1303 ;;		None
  1304 ;; Tracked objects:
  1305 ;;		On entry : 0/0
  1306 ;;		On exit  : 0/0
  1307 ;;		Unchanged: 0/0
  1308 ;; Data sizes:     COMMON   BANK0
  1309 ;;      Params:         0       0
  1310 ;;      Locals:         0       0
  1311 ;;      Temps:          0       0
  1312 ;;      Totals:         0       0
  1313 ;;Total ram usage:        0 bytes
  1314 ;; Hardware stack levels used: 1
  1315 ;; Hardware stack levels required when called: 2
  1316 ;; This function calls:
  1317 ;;		Nothing
  1318 ;; This function is called by:
  1319 ;;		_PACKET_CONTROL
  1320 ;; This function uses a non-reentrant model
  1321 ;;
  1322                           
  1323  0590                     _FUNC_SET:	
  1324                           ;psect for function _FUNC_SET
  1325                           
  1326  0590                     l226:	
  1327                           ;incstack = 0
  1328                           ; Regs used in _FUNC_SET: []
  1329                           
  1330  0590  0008               	return
  1331  0591                     __end_of_FUNC_SET:
  1332                           
  1333                           	psect	text4
  1334  0591                     __ptext4:	
  1335 ;; *************** function _DEC_SET *****************
  1336 ;; Defined at:
  1337 ;;		line 172 in file "Project_ATCS_Decorder_Module.c"
  1338 ;; Parameters:    Size  Location     Type
  1339 ;;		None
  1340 ;; Auto vars:     Size  Location     Type
  1341 ;;		None
  1342 ;; Return value:  Size  Location     Type
  1343 ;;                  1    wreg      void 
  1344 ;; Registers used:
  1345 ;;		None
  1346 ;; Tracked objects:
  1347 ;;		On entry : 0/0
  1348 ;;		On exit  : 0/0
  1349 ;;		Unchanged: 0/0
  1350 ;; Data sizes:     COMMON   BANK0
  1351 ;;      Params:         0       0
  1352 ;;      Locals:         0       0
  1353 ;;      Temps:          0       0
  1354 ;;      Totals:         0       0
  1355 ;;Total ram usage:        0 bytes
  1356 ;; Hardware stack levels used: 1
  1357 ;; Hardware stack levels required when called: 2
  1358 ;; This function calls:
  1359 ;;		Nothing
  1360 ;; This function is called by:
  1361 ;;		_PACKET_CONTROL
  1362 ;; This function uses a non-reentrant model
  1363 ;;
  1364                           
  1365  0591                     _DEC_SET:	
  1366                           ;psect for function _DEC_SET
  1367                           
  1368  0591                     l220:	
  1369                           ;incstack = 0
  1370                           ; Regs used in _DEC_SET: []
  1371                           
  1372  0591  0008               	return
  1373  0592                     __end_of_DEC_SET:
  1374                           
  1375                           	psect	text5
  1376  0592                     __ptext5:	
  1377 ;; *************** function _CONFIG_SET *****************
  1378 ;; Defined at:
  1379 ;;		line 176 in file "Project_ATCS_Decorder_Module.c"
  1380 ;; Parameters:    Size  Location     Type
  1381 ;;		None
  1382 ;; Auto vars:     Size  Location     Type
  1383 ;;		None
  1384 ;; Return value:  Size  Location     Type
  1385 ;;                  1    wreg      void 
  1386 ;; Registers used:
  1387 ;;		None
  1388 ;; Tracked objects:
  1389 ;;		On entry : 0/0
  1390 ;;		On exit  : 0/0
  1391 ;;		Unchanged: 0/0
  1392 ;; Data sizes:     COMMON   BANK0
  1393 ;;      Params:         0       0
  1394 ;;      Locals:         0       0
  1395 ;;      Temps:          0       0
  1396 ;;      Totals:         0       0
  1397 ;;Total ram usage:        0 bytes
  1398 ;; Hardware stack levels used: 1
  1399 ;; Hardware stack levels required when called: 2
  1400 ;; This function calls:
  1401 ;;		Nothing
  1402 ;; This function is called by:
  1403 ;;		_PACKET_CONTROL
  1404 ;; This function uses a non-reentrant model
  1405 ;;
  1406                           
  1407  0592                     _CONFIG_SET:	
  1408                           ;psect for function _CONFIG_SET
  1409                           
  1410  0592                     l229:	
  1411                           ;incstack = 0
  1412                           ; Regs used in _CONFIG_SET: []
  1413                           
  1414  0592  0008               	return
  1415  0593                     __end_of_CONFIG_SET:
  1416                           
  1417                           	psect	text6
  1418  010C                     __ptext6:	
  1419 ;; *************** function _EEPROM_SELECT *****************
  1420 ;; Defined at:
  1421 ;;		line 12 in file "Project_ATCS_Decorder_Module.c"
  1422 ;; Parameters:    Size  Location     Type
  1423 ;;		None
  1424 ;; Auto vars:     Size  Location     Type
  1425 ;;  EE_SAVE         2    2[BANK0 ] unsigned int 
  1426 ;;  COUNT           1    4[BANK0 ] unsigned char 
  1427 ;; Return value:  Size  Location     Type
  1428 ;;                  1    wreg      void 
  1429 ;; Registers used:
  1430 ;;		wreg, fsr0l, fsr0h, fsr1l, fsr1h, status,2, status,0
  1431 ;; Tracked objects:
  1432 ;;		On entry : 0/0
  1433 ;;		On exit  : 0/0
  1434 ;;		Unchanged: 0/0
  1435 ;; Data sizes:     COMMON   BANK0
  1436 ;;      Params:         0       0
  1437 ;;      Locals:         0       3
  1438 ;;      Temps:          0       2
  1439 ;;      Totals:         0       5
  1440 ;;Total ram usage:        5 bytes
  1441 ;; Hardware stack levels used: 1
  1442 ;; Hardware stack levels required when called: 2
  1443 ;; This function calls:
  1444 ;;		Nothing
  1445 ;; This function is called by:
  1446 ;;		_main
  1447 ;; This function uses a non-reentrant model
  1448 ;;
  1449                           
  1450  010C                     _EEPROM_SELECT:	
  1451                           ;psect for function _EEPROM_SELECT
  1452                           
  1453  010C                     l1393:	
  1454                           ;incstack = 0
  1455                           ; Regs used in _EEPROM_SELECT: [wreg-fsr1h+status,2+status,0]
  1456                           
  1457                           
  1458                           ;Project_ATCS_Decorder_Module.c: 13:     INTCONbits.GIE = 0;
  1459  010C  138B               	bcf	11,7	;volatile
  1460  010D                     l1395:
  1461                           
  1462                           ;Project_ATCS_Decorder_Module.c: 14:     UnCHR COUNT = 0x00 ;
  1463  010D  0020               	movlb	0	; select bank0
  1464  010E  01C4               	clrf	EEPROM_SELECT@COUNT
  1465                           
  1466                           ;Project_ATCS_Decorder_Module.c: 16:     switch (EE_STORE.EE_STATE) {
  1467  010F  2AB2               	goto	l1529
  1468  0110                     l1397:
  1469                           
  1470                           ;Project_ATCS_Decorder_Module.c: 19:                 if(EE_STORE.EE_REPORT[COUNT]){
  1471  0110  0844               	movf	EEPROM_SELECT@COUNT,w
  1472  0111  3E3C               	addlw	(low ((_EE_STORE| 0+12)))& (0+255)
  1473  0112  0086               	movwf	6
  1474  0113  0187               	clrf	7
  1475  0114  0801               	movf	1,w
  1476  0115  1903               	btfsc	3,2
  1477  0116  2918               	goto	u561
  1478  0117  2919               	goto	u560
  1479  0118                     u561:
  1480  0118  293A               	goto	l1407
  1481  0119                     u560:
  1482  0119                     l1399:
  1483                           
  1484                           ;Project_ATCS_Decorder_Module.c: 20:                     EEADR = EE_STORE.EE_ADRS;
  1485  0119  0833               	movf	_EE_STORE+3,w
  1486  011A  0023               	movlb	3	; select bank3
  1487  011B  0092               	movwf	18	;volatile
  1488  011C  0020               	movlb	0	; select bank0
  1489  011D  0832               	movf	_EE_STORE+2,w
  1490  011E  0023               	movlb	3	; select bank3
  1491  011F  0091               	movwf	17	;volatile
  1492                           
  1493                           ;Project_ATCS_Decorder_Module.c: 21:                     EECON1 = EE_STORE.EE_CONFIG;
  1494  0120  0020               	movlb	0	; select bank0
  1495  0121  0831               	movf	_EE_STORE+1,w
  1496  0122  0023               	movlb	3	; select bank3
  1497  0123  0095               	movwf	21	;volsfr
  1498  0124                     l165:	
  1499                           ;Project_ATCS_Decorder_Module.c: 22:                     while (EECON1bits.RD);
  1500                           
  1501  0124  1815               	btfsc	21,0	;volsfr
  1502  0125  2927               	goto	u571
  1503  0126  2928               	goto	u570
  1504  0127                     u571:
  1505  0127  2924               	goto	l165
  1506  0128                     u570:
  1507  0128                     l1401:
  1508                           
  1509                           ;Project_ATCS_Decorder_Module.c: 23:                     EE_STORE.EE_DATA[COUNT] = EEDAT
      +                          ;
  1510  0128  0020               	movlb	0	; select bank0
  1511  0129  3544               	lslf	EEPROM_SELECT@COUNT,w
  1512  012A  3E34               	addlw	(low ((_EE_STORE| 0+4)))& (0+255)
  1513  012B  0086               	movwf	6
  1514  012C  0187               	clrf	7
  1515  012D  0023               	movlb	3	; select bank3
  1516  012E  0813               	movf	19,w	;volatile
  1517  012F  3FC0               	movwi [0]fsr1
  1518  0130  0814               	movf	20,w	;volatile
  1519  0131  3FC1               	movwi [1]fsr1
  1520  0132                     l1403:
  1521                           
  1522                           ;Project_ATCS_Decorder_Module.c: 24:                     INTCONbits.GIE = 1;
  1523  0132  178B               	bsf	11,7	;volatile
  1524                           
  1525                           ;Project_ATCS_Decorder_Module.c: 25:                     EE_STORE.EE_REPORT[COUNT] = 0x0
      +                          0;
  1526  0133  0020               	movlb	0	; select bank0
  1527  0134  0844               	movf	EEPROM_SELECT@COUNT,w
  1528  0135  3E3C               	addlw	(low ((_EE_STORE| 0+12)))& (0+255)
  1529  0136  0086               	movwf	6
  1530  0137  0187               	clrf	7
  1531  0138  0181               	clrf	1
  1532  0139  2ACE               	goto	l168
  1533  013A                     l1407:
  1534                           
  1535                           ;Project_ATCS_Decorder_Module.c: 28:                 COUNT++;
  1536  013A  3001               	movlw	1
  1537  013B  00C0               	movwf	??_EEPROM_SELECT
  1538  013C  0840               	movf	??_EEPROM_SELECT,w
  1539  013D  07C4               	addwf	EEPROM_SELECT@COUNT,f
  1540  013E                     l1409:
  1541                           
  1542                           ;Project_ATCS_Decorder_Module.c: 29:                 EEADR = EE_STORE.EE_ADRS++;
  1543  013E  0833               	movf	_EE_STORE+3,w
  1544  013F  0023               	movlb	3	; select bank3
  1545  0140  0092               	movwf	18	;volatile
  1546  0141  0020               	movlb	0	; select bank0
  1547  0142  0832               	movf	_EE_STORE+2,w
  1548  0143  0023               	movlb	3	; select bank3
  1549  0144  0091               	movwf	17	;volatile
  1550  0145                     l1411:
  1551  0145  3001               	movlw	1
  1552  0146  0020               	movlb	0	; select bank0
  1553  0147  07B2               	addwf	_EE_STORE+2,f
  1554  0148  3000               	movlw	0
  1555  0149  3DB3               	addwfc	_EE_STORE+3,f
  1556  014A                     l1413:
  1557                           
  1558                           ;Project_ATCS_Decorder_Module.c: 30:             }while(COUNT < 4);
  1559  014A  3004               	movlw	4
  1560  014B  0244               	subwf	EEPROM_SELECT@COUNT,w
  1561  014C  1C03               	skipc
  1562  014D  294F               	goto	u581
  1563  014E  2950               	goto	u580
  1564  014F                     u581:
  1565  014F  2910               	goto	l1397
  1566  0150                     u580:
  1567  0150  2ACE               	goto	l168
  1568  0151                     l1415:
  1569                           
  1570                           ;Project_ATCS_Decorder_Module.c: 35:                 if(EE_STORE.EE_REPORT[COUNT]){
  1571  0151  0844               	movf	EEPROM_SELECT@COUNT,w
  1572  0152  3E3C               	addlw	(low ((_EE_STORE| 0+12)))& (0+255)
  1573  0153  0086               	movwf	6
  1574  0154  0187               	clrf	7
  1575  0155  0801               	movf	1,w
  1576  0156  1903               	btfsc	3,2
  1577  0157  2959               	goto	u591
  1578  0158  295A               	goto	u590
  1579  0159                     u591:
  1580  0159  297A               	goto	l1423
  1581  015A                     u590:
  1582  015A                     l1417:
  1583                           
  1584                           ;Project_ATCS_Decorder_Module.c: 36:                     EEADR = EE_STORE.EE_ADRS;
  1585  015A  0833               	movf	_EE_STORE+3,w
  1586  015B  0023               	movlb	3	; select bank3
  1587  015C  0092               	movwf	18	;volatile
  1588  015D  0020               	movlb	0	; select bank0
  1589  015E  0832               	movf	_EE_STORE+2,w
  1590  015F  0023               	movlb	3	; select bank3
  1591  0160  0091               	movwf	17	;volatile
  1592                           
  1593                           ;Project_ATCS_Decorder_Module.c: 37:                     EECON1 = EE_STORE.EE_CONFIG;
  1594  0161  0020               	movlb	0	; select bank0
  1595  0162  0831               	movf	_EE_STORE+1,w
  1596  0163  0023               	movlb	3	; select bank3
  1597  0164  0095               	movwf	21	;volsfr
  1598  0165                     l1419:
  1599                           
  1600                           ;Project_ATCS_Decorder_Module.c: 38:                     EECON1bits.RD = 1;
  1601  0165  1415               	bsf	21,0	;volsfr
  1602  0166                     l173:	
  1603                           ;Project_ATCS_Decorder_Module.c: 39:                     while (EECON1bits.RD);
  1604                           
  1605  0166  1815               	btfsc	21,0	;volsfr
  1606  0167  2969               	goto	u601
  1607  0168  296A               	goto	u600
  1608  0169                     u601:
  1609  0169  2966               	goto	l173
  1610  016A                     u600:
  1611  016A                     l1421:
  1612                           
  1613                           ;Project_ATCS_Decorder_Module.c: 40:                     EE_STORE.EE_DATA[COUNT] = EEDAT
      +                          ;
  1614  016A  0020               	movlb	0	; select bank0
  1615  016B  3544               	lslf	EEPROM_SELECT@COUNT,w
  1616  016C  3E34               	addlw	(low ((_EE_STORE| 0+4)))& (0+255)
  1617  016D  0086               	movwf	6
  1618  016E  0187               	clrf	7
  1619  016F  0023               	movlb	3	; select bank3
  1620  0170  0813               	movf	19,w	;volatile
  1621  0171  3FC0               	movwi [0]fsr1
  1622  0172  0814               	movf	20,w	;volatile
  1623  0173  3FC1               	movwi [1]fsr1
  1624                           
  1625                           ;Project_ATCS_Decorder_Module.c: 41:                     EE_STORE.EE_REPORT[COUNT] = 0x0
      +                          0;
  1626  0174  0020               	movlb	0	; select bank0
  1627  0175  0844               	movf	EEPROM_SELECT@COUNT,w
  1628  0176  3E3C               	addlw	(low ((_EE_STORE| 0+12)))& (0+255)
  1629  0177  0086               	movwf	6
  1630  0178  0187               	clrf	7
  1631  0179  0181               	clrf	1
  1632  017A                     l1423:
  1633                           
  1634                           ;Project_ATCS_Decorder_Module.c: 43:                 EE_STORE.EE_ADRS++;
  1635  017A  3001               	movlw	1
  1636  017B  07B2               	addwf	_EE_STORE+2,f
  1637  017C  3000               	movlw	0
  1638  017D  3DB3               	addwfc	_EE_STORE+3,f
  1639  017E                     l1425:
  1640                           
  1641                           ;Project_ATCS_Decorder_Module.c: 44:             } while (COUNT < 4);
  1642  017E  3004               	movlw	4
  1643  017F  0244               	subwf	EEPROM_SELECT@COUNT,w
  1644  0180  1C03               	skipc
  1645  0181  2983               	goto	u611
  1646  0182  2984               	goto	u610
  1647  0183                     u611:
  1648  0183  2951               	goto	l1415
  1649  0184                     u610:
  1650  0184                     l176:
  1651                           
  1652                           ;Project_ATCS_Decorder_Module.c: 45:             INTCONbits.GIE = 1;
  1653  0184  178B               	bsf	11,7	;volatile
  1654                           
  1655                           ;Project_ATCS_Decorder_Module.c: 46:             return;
  1656  0185  2ACE               	goto	l168
  1657  0186                     l177:	
  1658                           ;Project_ATCS_Decorder_Module.c: 48:         case EE_WRITE_UID:
  1659                           
  1660                           
  1661                           ;Project_ATCS_Decorder_Module.c: 49:             INTCONbits.GIE = 0;
  1662  0186  138B               	bcf	11,7	;volatile
  1663  0187                     l1427:
  1664                           
  1665                           ;Project_ATCS_Decorder_Module.c: 50:             UnINT EE_SAVE = EE_STORE.EE_ADRS;
  1666  0187  0833               	movf	_EE_STORE+3,w
  1667  0188  00C3               	movwf	EEPROM_SELECT@EE_SAVE+1
  1668  0189  0832               	movf	_EE_STORE+2,w
  1669  018A  00C2               	movwf	EEPROM_SELECT@EE_SAVE
  1670  018B                     l1429:
  1671                           
  1672                           ;Project_ATCS_Decorder_Module.c: 52:                 if(EE_STORE.EE_REPORT[COUNT]){
  1673  018B  0844               	movf	EEPROM_SELECT@COUNT,w
  1674  018C  3E3C               	addlw	(low ((_EE_STORE| 0+12)))& (0+255)
  1675  018D  0086               	movwf	6
  1676  018E  0187               	clrf	7
  1677  018F  0801               	movf	1,w
  1678  0190  1903               	btfsc	3,2
  1679  0191  2993               	goto	u621
  1680  0192  2994               	goto	u620
  1681  0193                     u621:
  1682  0193  29AC               	goto	l1443
  1683  0194                     u620:
  1684  0194                     l1431:
  1685                           
  1686                           ;Project_ATCS_Decorder_Module.c: 53:                     EEADR = EE_STORE.EE_ADRS;
  1687  0194  0833               	movf	_EE_STORE+3,w
  1688  0195  0023               	movlb	3	; select bank3
  1689  0196  0092               	movwf	18	;volatile
  1690  0197  0020               	movlb	0	; select bank0
  1691  0198  0832               	movf	_EE_STORE+2,w
  1692  0199  0023               	movlb	3	; select bank3
  1693  019A  0091               	movwf	17	;volatile
  1694  019B                     l1433:
  1695                           
  1696                           ;Project_ATCS_Decorder_Module.c: 54:                     EEDAT = EE_STORE.EE_DATA[COUNT]
      +                          ;
  1697  019B  0020               	movlb	0	; select bank0
  1698  019C  3544               	lslf	EEPROM_SELECT@COUNT,w
  1699  019D  3E34               	addlw	(low ((_EE_STORE| 0+4)))& (0+255)
  1700  019E  0086               	movwf	6
  1701  019F  0187               	clrf	7
  1702  01A0  3F40               	moviw [0]fsr1
  1703  01A1  0023               	movlb	3	; select bank3
  1704  01A2  0093               	movwf	19	;volatile
  1705  01A3  3F41               	moviw [1]fsr1
  1706  01A4  0094               	movwf	20	;volatile
  1707  01A5                     l1435:
  1708                           
  1709                           ;Project_ATCS_Decorder_Module.c: 55:                     EECON1 = 0x64;
  1710  01A5  3064               	movlw	100
  1711  01A6  0095               	movwf	21	;volsfr
  1712  01A7                     l1437:
  1713                           
  1714                           ;Project_ATCS_Decorder_Module.c: 56:                     EECON2 = 0x55;
  1715  01A7  3055               	movlw	85
  1716  01A8  0096               	movwf	22	;volsfr
  1717  01A9                     l1439:
  1718                           
  1719                           ;Project_ATCS_Decorder_Module.c: 57:                     EECON2 = 0xAA;
  1720  01A9  30AA               	movlw	170
  1721  01AA  0096               	movwf	22	;volsfr
  1722  01AB                     l1441:
  1723                           
  1724                           ;Project_ATCS_Decorder_Module.c: 58:                     EECON1bits.WR = 1;
  1725  01AB  1495               	bsf	21,1	;volsfr
  1726  01AC                     l1443:
  1727                           
  1728                           ;Project_ATCS_Decorder_Module.c: 60:                 COUNT++;
  1729  01AC  3001               	movlw	1
  1730  01AD  0020               	movlb	0	; select bank0
  1731  01AE  00C0               	movwf	??_EEPROM_SELECT
  1732  01AF  0840               	movf	??_EEPROM_SELECT,w
  1733  01B0  07C4               	addwf	EEPROM_SELECT@COUNT,f
  1734  01B1                     l1445:
  1735                           
  1736                           ;Project_ATCS_Decorder_Module.c: 61:                 EE_STORE.EE_ADRS++;
  1737  01B1  3001               	movlw	1
  1738  01B2  07B2               	addwf	_EE_STORE+2,f
  1739  01B3  3000               	movlw	0
  1740  01B4  3DB3               	addwfc	_EE_STORE+3,f
  1741  01B5                     l1447:
  1742                           
  1743                           ;Project_ATCS_Decorder_Module.c: 62:             } while (COUNT < 4);
  1744  01B5  3004               	movlw	4
  1745  01B6  0244               	subwf	EEPROM_SELECT@COUNT,w
  1746  01B7  1C03               	skipc
  1747  01B8  29BA               	goto	u631
  1748  01B9  29BB               	goto	u630
  1749  01BA                     u631:
  1750  01BA  298B               	goto	l1429
  1751  01BB                     u630:
  1752  01BB                     l1449:
  1753                           
  1754                           ;Project_ATCS_Decorder_Module.c: 63:             EE_STORE.EE_ADRS = EE_SAVE;
  1755  01BB  0843               	movf	EEPROM_SELECT@EE_SAVE+1,w
  1756  01BC  00B3               	movwf	_EE_STORE+3
  1757  01BD  0842               	movf	EEPROM_SELECT@EE_SAVE,w
  1758  01BE  00B2               	movwf	_EE_STORE+2
  1759                           
  1760                           ;Project_ATCS_Decorder_Module.c: 65:             EECON1 = 0x44;
  1761  01BF  3044               	movlw	68
  1762  01C0  0023               	movlb	3	; select bank3
  1763  01C1  0095               	movwf	21	;volsfr
  1764                           
  1765                           ;Project_ATCS_Decorder_Module.c: 66:             EECON2 = 0x55;
  1766  01C2  3055               	movlw	85
  1767  01C3  0096               	movwf	22	;volsfr
  1768                           
  1769                           ;Project_ATCS_Decorder_Module.c: 67:             EECON2 = 0xAA;
  1770  01C4  30AA               	movlw	170
  1771  01C5  0096               	movwf	22	;volsfr
  1772  01C6                     l1451:
  1773                           
  1774                           ;Project_ATCS_Decorder_Module.c: 69:             EECON1bits.WR = 1;
  1775  01C6  1495               	bsf	21,1	;volsfr
  1776  01C7                     l1453:
  1777                           
  1778                           ;Project_ATCS_Decorder_Module.c: 70:             __nop();
  1779  01C7  0000               	nop
  1780  01C8                     l1455:
  1781                           
  1782                           ;Project_ATCS_Decorder_Module.c: 71:             __nop();
  1783  01C8  0000               	nop
  1784  01C9                     l1457:
  1785                           
  1786                           ;Project_ATCS_Decorder_Module.c: 72:             INTCONbits.GIE = 1;
  1787  01C9  178B               	bsf	11,7	;volatile
  1788  01CA  2ACE               	goto	l168
  1789  01CB                     l181:	
  1790                           ;Project_ATCS_Decorder_Module.c: 75:         case EE_VERIFY_UID:
  1791                           
  1792                           
  1793                           ;Project_ATCS_Decorder_Module.c: 76:             INTCONbits.GIE = 0;
  1794  01CB  138B               	bcf	11,7	;volatile
  1795  01CC                     l1461:
  1796                           
  1797                           ;Project_ATCS_Decorder_Module.c: 78:                 if(EE_STORE.EE_REPORT[COUNT]){
  1798  01CC  0844               	movf	EEPROM_SELECT@COUNT,w
  1799  01CD  3E3C               	addlw	(low ((_EE_STORE| 0+12)))& (0+255)
  1800  01CE  0086               	movwf	6
  1801  01CF  0187               	clrf	7
  1802  01D0  0801               	movf	1,w
  1803  01D1  1903               	btfsc	3,2
  1804  01D2  29D4               	goto	u641
  1805  01D3  29D5               	goto	u640
  1806  01D4                     u641:
  1807  01D4  2A07               	goto	l1471
  1808  01D5                     u640:
  1809  01D5                     l1463:
  1810                           
  1811                           ;Project_ATCS_Decorder_Module.c: 79:                     EEADR = EE_STORE.EE_ADRS;
  1812  01D5  0833               	movf	_EE_STORE+3,w
  1813  01D6  0023               	movlb	3	; select bank3
  1814  01D7  0092               	movwf	18	;volatile
  1815  01D8  0020               	movlb	0	; select bank0
  1816  01D9  0832               	movf	_EE_STORE+2,w
  1817  01DA  0023               	movlb	3	; select bank3
  1818  01DB  0091               	movwf	17	;volatile
  1819                           
  1820                           ;Project_ATCS_Decorder_Module.c: 80:                     EECON1 = 0x41;
  1821  01DC  3041               	movlw	65
  1822  01DD  0095               	movwf	21	;volsfr
  1823  01DE                     l184:	
  1824                           ;Project_ATCS_Decorder_Module.c: 81:                     while (EECON1bits.RD);
  1825                           
  1826  01DE  1815               	btfsc	21,0	;volsfr
  1827  01DF  29E1               	goto	u651
  1828  01E0  29E2               	goto	u650
  1829  01E1                     u651:
  1830  01E1  29DE               	goto	l184
  1831  01E2                     u650:
  1832  01E2                     l1465:
  1833                           
  1834                           ;Project_ATCS_Decorder_Module.c: 82:                     if (EEDAT != EE_STORE.EE_DATA[C
      +                          OUNT]) {
  1835  01E2  0020               	movlb	0	; select bank0
  1836  01E3  3544               	lslf	EEPROM_SELECT@COUNT,w
  1837  01E4  3E34               	addlw	(low ((_EE_STORE| 0+4)))& (0+255)
  1838  01E5  0086               	movwf	6
  1839  01E6  0187               	clrf	7
  1840  01E7  3F40               	moviw [0]fsr1
  1841  01E8  00C0               	movwf	??_EEPROM_SELECT
  1842  01E9  3F41               	moviw [1]fsr1
  1843  01EA  00C1               	movwf	??_EEPROM_SELECT+1
  1844  01EB  0023               	movlb	3	; select bank3
  1845  01EC  0814               	movf	20,w	;volatile
  1846  01ED  0020               	movlb	0	; select bank0
  1847  01EE  0641               	xorwf	??_EEPROM_SELECT+1,w
  1848  01EF  1D03               	skipz
  1849  01F0  29F5               	goto	u665
  1850  01F1  0023               	movlb	3	; select bank3
  1851  01F2  0813               	movf	19,w	;volatile
  1852  01F3  0020               	movlb	0	; select bank0
  1853  01F4  0640               	xorwf	??_EEPROM_SELECT,w
  1854  01F5                     u665:
  1855  01F5  1903               	skipnz
  1856  01F6  29F8               	goto	u661
  1857  01F7  29F9               	goto	u660
  1858  01F8                     u661:
  1859  01F8  2A02               	goto	l1469
  1860  01F9                     u660:
  1861  01F9                     l1467:
  1862                           
  1863                           ;Project_ATCS_Decorder_Module.c: 83:                         EE_STORE.EE_REPORT[COUNT] =
      +                           0xFF;
  1864  01F9  30FF               	movlw	255
  1865  01FA  00C0               	movwf	??_EEPROM_SELECT
  1866  01FB  0844               	movf	EEPROM_SELECT@COUNT,w
  1867  01FC  3E3C               	addlw	(low ((_EE_STORE| 0+12)))& (0+255)
  1868  01FD  0086               	movwf	6
  1869  01FE  0187               	clrf	7
  1870  01FF  0840               	movf	??_EEPROM_SELECT,w
  1871  0200  0081               	movwf	1
  1872                           
  1873                           ;Project_ATCS_Decorder_Module.c: 84:                     } else {
  1874  0201  2A07               	goto	l1471
  1875  0202                     l1469:
  1876                           
  1877                           ;Project_ATCS_Decorder_Module.c: 85:                         EE_STORE.EE_REPORT[COUNT] =
      +                           0x00;
  1878  0202  0844               	movf	EEPROM_SELECT@COUNT,w
  1879  0203  3E3C               	addlw	(low ((_EE_STORE| 0+12)))& (0+255)
  1880  0204  0086               	movwf	6
  1881  0205  0187               	clrf	7
  1882  0206  0181               	clrf	1
  1883  0207                     l1471:
  1884                           
  1885                           ;Project_ATCS_Decorder_Module.c: 88:                 COUNT++;
  1886  0207  3001               	movlw	1
  1887  0208  00C0               	movwf	??_EEPROM_SELECT
  1888  0209  0840               	movf	??_EEPROM_SELECT,w
  1889  020A  07C4               	addwf	EEPROM_SELECT@COUNT,f
  1890  020B                     l1473:
  1891                           
  1892                           ;Project_ATCS_Decorder_Module.c: 89:                 EE_STORE.EE_ADRS++;
  1893  020B  3001               	movlw	1
  1894  020C  07B2               	addwf	_EE_STORE+2,f
  1895  020D  3000               	movlw	0
  1896  020E  3DB3               	addwfc	_EE_STORE+3,f
  1897  020F                     l1475:
  1898                           
  1899                           ;Project_ATCS_Decorder_Module.c: 90:             } while (COUNT < 4);
  1900  020F  3004               	movlw	4
  1901  0210  0244               	subwf	EEPROM_SELECT@COUNT,w
  1902  0211  1C03               	skipc
  1903  0212  2A14               	goto	u671
  1904  0213  2A15               	goto	u670
  1905  0214                     u671:
  1906  0214  29CC               	goto	l1461
  1907  0215                     u670:
  1908  0215                     l189:
  1909                           
  1910                           ;Project_ATCS_Decorder_Module.c: 91:             INTCONbits.GIE = 1;
  1911  0215  178B               	bsf	11,7	;volatile
  1912                           
  1913                           ;Project_ATCS_Decorder_Module.c: 92:             return;
  1914  0216  2ACE               	goto	l168
  1915  0217                     l1477:
  1916                           
  1917                           ;Project_ATCS_Decorder_Module.c: 96:                 if(EE_STORE.EE_REPORT[COUNT]){
  1918  0217  0844               	movf	EEPROM_SELECT@COUNT,w
  1919  0218  3E3C               	addlw	(low ((_EE_STORE| 0+12)))& (0+255)
  1920  0219  0086               	movwf	6
  1921  021A  0187               	clrf	7
  1922  021B  0801               	movf	1,w
  1923  021C  1903               	btfsc	3,2
  1924  021D  2A1F               	goto	u681
  1925  021E  2A20               	goto	u680
  1926  021F                     u681:
  1927  021F  2A3C               	goto	l1499
  1928  0220                     u680:
  1929  0220                     l1479:
  1930                           
  1931                           ;Project_ATCS_Decorder_Module.c: 97:                     EEADR = EE_STORE.EE_ADRS;
  1932  0220  0833               	movf	_EE_STORE+3,w
  1933  0221  0023               	movlb	3	; select bank3
  1934  0222  0092               	movwf	18	;volatile
  1935  0223  0020               	movlb	0	; select bank0
  1936  0224  0832               	movf	_EE_STORE+2,w
  1937  0225  0023               	movlb	3	; select bank3
  1938  0226  0091               	movwf	17	;volatile
  1939  0227                     l1481:
  1940                           
  1941                           ;Project_ATCS_Decorder_Module.c: 98:                     EEDAT = EE_STORE.EE_DATA[COUNT]
      +                          ;
  1942  0227  0020               	movlb	0	; select bank0
  1943  0228  3544               	lslf	EEPROM_SELECT@COUNT,w
  1944  0229  3E34               	addlw	(low ((_EE_STORE| 0+4)))& (0+255)
  1945  022A  0086               	movwf	6
  1946  022B  0187               	clrf	7
  1947  022C  3F40               	moviw [0]fsr1
  1948  022D  0023               	movlb	3	; select bank3
  1949  022E  0093               	movwf	19	;volatile
  1950  022F  3F41               	moviw [1]fsr1
  1951  0230  0094               	movwf	20	;volatile
  1952  0231                     l1483:
  1953                           
  1954                           ;Project_ATCS_Decorder_Module.c: 99:                     EECON1 = 0x44;
  1955  0231  3044               	movlw	68
  1956  0232  0095               	movwf	21	;volsfr
  1957  0233                     l1485:
  1958                           
  1959                           ;Project_ATCS_Decorder_Module.c: 100:                     EECON2 = 0x55;
  1960  0233  3055               	movlw	85
  1961  0234  0096               	movwf	22	;volsfr
  1962  0235                     l1487:
  1963                           
  1964                           ;Project_ATCS_Decorder_Module.c: 101:                     EECON2 = 0xAA;
  1965  0235  30AA               	movlw	170
  1966  0236  0096               	movwf	22	;volsfr
  1967  0237                     l1489:
  1968                           
  1969                           ;Project_ATCS_Decorder_Module.c: 102:                     EECON1bits.WR = 1;
  1970  0237  1495               	bsf	21,1	;volsfr
  1971  0238                     l1491:
  1972                           
  1973                           ;Project_ATCS_Decorder_Module.c: 103:                     __nop();
  1974  0238  0000               	nop
  1975  0239                     l1493:
  1976                           
  1977                           ;Project_ATCS_Decorder_Module.c: 104:                     __nop();
  1978  0239  0000               	nop
  1979  023A                     l1495:
  1980                           
  1981                           ;Project_ATCS_Decorder_Module.c: 105:                     INTCONbits.GIE = 1;
  1982  023A  178B               	bsf	11,7	;volatile
  1983  023B  2ACE               	goto	l168
  1984  023C                     l1499:
  1985                           
  1986                           ;Project_ATCS_Decorder_Module.c: 108:                 COUNT++;
  1987  023C  3001               	movlw	1
  1988  023D  00C0               	movwf	??_EEPROM_SELECT
  1989  023E  0840               	movf	??_EEPROM_SELECT,w
  1990  023F  07C4               	addwf	EEPROM_SELECT@COUNT,f
  1991  0240                     l1501:
  1992                           
  1993                           ;Project_ATCS_Decorder_Module.c: 109:                 EEADR = EE_STORE.EE_ADRS++;
  1994  0240  0833               	movf	_EE_STORE+3,w
  1995  0241  0023               	movlb	3	; select bank3
  1996  0242  0092               	movwf	18	;volatile
  1997  0243  0020               	movlb	0	; select bank0
  1998  0244  0832               	movf	_EE_STORE+2,w
  1999  0245  0023               	movlb	3	; select bank3
  2000  0246  0091               	movwf	17	;volatile
  2001  0247                     l1503:
  2002  0247  3001               	movlw	1
  2003  0248  0020               	movlb	0	; select bank0
  2004  0249  07B2               	addwf	_EE_STORE+2,f
  2005  024A  3000               	movlw	0
  2006  024B  3DB3               	addwfc	_EE_STORE+3,f
  2007  024C                     l1505:
  2008                           
  2009                           ;Project_ATCS_Decorder_Module.c: 110:             }while(COUNT < 4);
  2010  024C  3004               	movlw	4
  2011  024D  0244               	subwf	EEPROM_SELECT@COUNT,w
  2012  024E  1C03               	skipc
  2013  024F  2A51               	goto	u691
  2014  0250  2A52               	goto	u690
  2015  0251                     u691:
  2016  0251  2A17               	goto	l1477
  2017  0252                     u690:
  2018  0252                     l193:
  2019                           
  2020                           ;Project_ATCS_Decorder_Module.c: 111:             INTCONbits.GIE = 1;
  2021  0252  178B               	bsf	11,7	;volatile
  2022                           
  2023                           ;Project_ATCS_Decorder_Module.c: 112:             return;
  2024  0253  2ACE               	goto	l168
  2025  0254                     l1507:
  2026                           
  2027                           ;Project_ATCS_Decorder_Module.c: 116:                 if(EE_STORE.EE_REPORT[COUNT]){
  2028  0254  0844               	movf	EEPROM_SELECT@COUNT,w
  2029  0255  3E3C               	addlw	(low ((_EE_STORE| 0+12)))& (0+255)
  2030  0256  0086               	movwf	6
  2031  0257  0187               	clrf	7
  2032  0258  0801               	movf	1,w
  2033  0259  1903               	btfsc	3,2
  2034  025A  2A5C               	goto	u701
  2035  025B  2A5D               	goto	u700
  2036  025C                     u701:
  2037  025C  2A9A               	goto	l1519
  2038  025D                     u700:
  2039  025D                     l1509:
  2040                           
  2041                           ;Project_ATCS_Decorder_Module.c: 117:                     EEADR = EE_STORE.EE_ADRS;
  2042  025D  0833               	movf	_EE_STORE+3,w
  2043  025E  0023               	movlb	3	; select bank3
  2044  025F  0092               	movwf	18	;volatile
  2045  0260  0020               	movlb	0	; select bank0
  2046  0261  0832               	movf	_EE_STORE+2,w
  2047  0262  0023               	movlb	3	; select bank3
  2048  0263  0091               	movwf	17	;volatile
  2049                           
  2050                           ;Project_ATCS_Decorder_Module.c: 118:                     EECON1 = 0x01;
  2051  0264  3001               	movlw	1
  2052  0265  0095               	movwf	21	;volsfr
  2053  0266                     l197:	
  2054                           ;Project_ATCS_Decorder_Module.c: 119:                     while (EECON1bits.RD);
  2055                           
  2056  0266  1815               	btfsc	21,0	;volsfr
  2057  0267  2A69               	goto	u711
  2058  0268  2A6A               	goto	u710
  2059  0269                     u711:
  2060  0269  2A66               	goto	l197
  2061  026A                     u710:
  2062  026A                     l1511:
  2063                           
  2064                           ;Project_ATCS_Decorder_Module.c: 120:                     EE_STORE.EE_DATA[COUNT] = EEDA
      +                          T;
  2065  026A  0020               	movlb	0	; select bank0
  2066  026B  3544               	lslf	EEPROM_SELECT@COUNT,w
  2067  026C  3E34               	addlw	(low ((_EE_STORE| 0+4)))& (0+255)
  2068  026D  0086               	movwf	6
  2069  026E  0187               	clrf	7
  2070  026F  0023               	movlb	3	; select bank3
  2071  0270  0813               	movf	19,w	;volatile
  2072  0271  3FC0               	movwi [0]fsr1
  2073  0272  0814               	movf	20,w	;volatile
  2074  0273  3FC1               	movwi [1]fsr1
  2075                           
  2076                           ;Project_ATCS_Decorder_Module.c: 121:                     if (EEDAT != EE_STORE.EE_DATA[
      +                          COUNT]) {
  2077  0274  0020               	movlb	0	; select bank0
  2078  0275  3544               	lslf	EEPROM_SELECT@COUNT,w
  2079  0276  3E34               	addlw	(low ((_EE_STORE| 0+4)))& (0+255)
  2080  0277  0086               	movwf	6
  2081  0278  0187               	clrf	7
  2082  0279  3F40               	moviw [0]fsr1
  2083  027A  00C0               	movwf	??_EEPROM_SELECT
  2084  027B  3F41               	moviw [1]fsr1
  2085  027C  00C1               	movwf	??_EEPROM_SELECT+1
  2086  027D  0023               	movlb	3	; select bank3
  2087  027E  0814               	movf	20,w	;volatile
  2088  027F  0020               	movlb	0	; select bank0
  2089  0280  0641               	xorwf	??_EEPROM_SELECT+1,w
  2090  0281  1D03               	skipz
  2091  0282  2A87               	goto	u725
  2092  0283  0023               	movlb	3	; select bank3
  2093  0284  0813               	movf	19,w	;volatile
  2094  0285  0020               	movlb	0	; select bank0
  2095  0286  0640               	xorwf	??_EEPROM_SELECT,w
  2096  0287                     u725:
  2097  0287  1903               	skipnz
  2098  0288  2A8A               	goto	u721
  2099  0289  2A8B               	goto	u720
  2100  028A                     u721:
  2101  028A  2A94               	goto	l1515
  2102  028B                     u720:
  2103  028B                     l1513:
  2104                           
  2105                           ;Project_ATCS_Decorder_Module.c: 122:                         EE_STORE.EE_REPORT[COUNT] 
      +                          = 0xFF;
  2106  028B  30FF               	movlw	255
  2107  028C  00C0               	movwf	??_EEPROM_SELECT
  2108  028D  0844               	movf	EEPROM_SELECT@COUNT,w
  2109  028E  3E3C               	addlw	(low ((_EE_STORE| 0+12)))& (0+255)
  2110  028F  0086               	movwf	6
  2111  0290  0187               	clrf	7
  2112  0291  0840               	movf	??_EEPROM_SELECT,w
  2113  0292  0081               	movwf	1
  2114                           
  2115                           ;Project_ATCS_Decorder_Module.c: 123:                     } else {
  2116  0293  2ACE               	goto	l168
  2117  0294                     l1515:
  2118                           
  2119                           ;Project_ATCS_Decorder_Module.c: 124:                         EE_STORE.EE_REPORT[COUNT] 
      +                          = 0x00;
  2120  0294  0844               	movf	EEPROM_SELECT@COUNT,w
  2121  0295  3E3C               	addlw	(low ((_EE_STORE| 0+12)))& (0+255)
  2122  0296  0086               	movwf	6
  2123  0297  0187               	clrf	7
  2124  0298  0181               	clrf	1
  2125  0299  2ACE               	goto	l168
  2126  029A                     l1519:
  2127                           
  2128                           ;Project_ATCS_Decorder_Module.c: 128:                 COUNT++;
  2129  029A  3001               	movlw	1
  2130  029B  00C0               	movwf	??_EEPROM_SELECT
  2131  029C  0840               	movf	??_EEPROM_SELECT,w
  2132  029D  07C4               	addwf	EEPROM_SELECT@COUNT,f
  2133  029E                     l1521:
  2134                           
  2135                           ;Project_ATCS_Decorder_Module.c: 129:                 EEADR = EE_STORE.EE_ADRS++;
  2136  029E  0833               	movf	_EE_STORE+3,w
  2137  029F  0023               	movlb	3	; select bank3
  2138  02A0  0092               	movwf	18	;volatile
  2139  02A1  0020               	movlb	0	; select bank0
  2140  02A2  0832               	movf	_EE_STORE+2,w
  2141  02A3  0023               	movlb	3	; select bank3
  2142  02A4  0091               	movwf	17	;volatile
  2143  02A5                     l1523:
  2144  02A5  3001               	movlw	1
  2145  02A6  0020               	movlb	0	; select bank0
  2146  02A7  07B2               	addwf	_EE_STORE+2,f
  2147  02A8  3000               	movlw	0
  2148  02A9  3DB3               	addwfc	_EE_STORE+3,f
  2149  02AA                     l1525:
  2150                           
  2151                           ;Project_ATCS_Decorder_Module.c: 130:             }while(COUNT < 4);
  2152  02AA  3004               	movlw	4
  2153  02AB  0244               	subwf	EEPROM_SELECT@COUNT,w
  2154  02AC  1C03               	skipc
  2155  02AD  2AAF               	goto	u731
  2156  02AE  2AB0               	goto	u730
  2157  02AF                     u731:
  2158  02AF  2A54               	goto	l1507
  2159  02B0                     u730:
  2160  02B0                     l202:
  2161                           
  2162                           ;Project_ATCS_Decorder_Module.c: 131:             INTCONbits.GIE = 1;
  2163  02B0  178B               	bsf	11,7	;volatile
  2164                           
  2165                           ;Project_ATCS_Decorder_Module.c: 132:             return;
  2166  02B1  2ACE               	goto	l168
  2167  02B2                     l1529:
  2168  02B2  0830               	movf	_EE_STORE,w
  2169  02B3  00C0               	movwf	??_EEPROM_SELECT
  2170  02B4  01C1               	clrf	??_EEPROM_SELECT+1
  2171                           
  2172                           ; Switch on 2 bytes has been partitioned into a top level switch of size 1, and 1 sub-sw
      +                          itches
  2173                           ; Switch size 1, requested type "simple"
  2174                           ; Number of cases is 1, Range of values is 0 to 0
  2175                           ; switch strategies available:
  2176                           ; Name         Instructions Cycles
  2177                           ; simple_byte            4     3 (average)
  2178                           ; direct_byte            8     6 (fixed)
  2179                           ; jumptable            260     6 (fixed)
  2180                           ;	Chosen strategy is simple_byte
  2181  02B5  0841               	movf	??_EEPROM_SELECT+1,w
  2182  02B6  3A00               	xorlw	0	; case 0
  2183  02B7  1903               	skipnz
  2184  02B8  2ABA               	goto	l1963
  2185  02B9  2ACE               	goto	l168
  2186  02BA                     l1963:
  2187                           
  2188                           ; Switch size 1, requested type "simple"
  2189                           ; Number of cases is 6, Range of values is 0 to 5
  2190                           ; switch strategies available:
  2191                           ; Name         Instructions Cycles
  2192                           ; direct_byte           18     6 (fixed)
  2193                           ; simple_byte           19    10 (average)
  2194                           ; jumptable            260     6 (fixed)
  2195                           ;	Chosen strategy is simple_byte
  2196  02BA  0840               	movf	??_EEPROM_SELECT,w
  2197  02BB  3A00               	xorlw	0	; case 0
  2198  02BC  1903               	skipnz
  2199  02BD  2910               	goto	l1397
  2200  02BE  3A01               	xorlw	1	; case 1
  2201  02BF  1903               	skipnz
  2202  02C0  2951               	goto	l1415
  2203  02C1  3A03               	xorlw	3	; case 2
  2204  02C2  1903               	skipnz
  2205  02C3  2986               	goto	l177
  2206  02C4  3A01               	xorlw	1	; case 3
  2207  02C5  1903               	skipnz
  2208  02C6  29CB               	goto	l181
  2209  02C7  3A07               	xorlw	7	; case 4
  2210  02C8  1903               	skipnz
  2211  02C9  2A17               	goto	l1477
  2212  02CA  3A01               	xorlw	1	; case 5
  2213  02CB  1903               	skipnz
  2214  02CC  2A54               	goto	l1507
  2215  02CD  2ACE               	goto	l168
  2216  02CE                     l168:
  2217  02CE  0008               	return
  2218  02CF                     __end_of_EEPROM_SELECT:
  2219                           
  2220                           	psect	intentry
  2221  0004                     __pintentry:	
  2222 ;; *************** function _isr *****************
  2223 ;; Defined at:
  2224 ;;		line 15 in file "Project_ATCS_Decorder_INTERRUPT.c"
  2225 ;; Parameters:    Size  Location     Type
  2226 ;;		None
  2227 ;; Auto vars:     Size  Location     Type
  2228 ;;  COUNT           2    6[COMMON] unsigned short 
  2229 ;; Return value:  Size  Location     Type
  2230 ;;                  1    wreg      void 
  2231 ;; Registers used:
  2232 ;;		wreg, fsr0l, fsr0h, fsr1l, fsr1h, status,2, status,0, pclath, cstack
  2233 ;; Tracked objects:
  2234 ;;		On entry : 0/0
  2235 ;;		On exit  : 0/0
  2236 ;;		Unchanged: 0/0
  2237 ;; Data sizes:     COMMON   BANK0
  2238 ;;      Params:         0       0
  2239 ;;      Locals:         2       0
  2240 ;;      Temps:          1       0
  2241 ;;      Totals:         3       0
  2242 ;;Total ram usage:        3 bytes
  2243 ;; Hardware stack levels used: 1
  2244 ;; Hardware stack levels required when called: 1
  2245 ;; This function calls:
  2246 ;;		i1_EEPROM_SELECT
  2247 ;; This function is called by:
  2248 ;;		Interrupt level 1
  2249 ;; This function uses a non-reentrant model
  2250 ;;
  2251                           
  2252  0004                     _isr:
  2253                           
  2254                           ;incstack = 0
  2255  0004  147E               	bsf	int$flags,0	;set compiler interrupt flag (level 1)
  2256                           
  2257                           ; Regs used in _isr: [wreg-fsr1h+status,2+status,0+pclath+cstack]
  2258  0005  3180               	pagesel	$
  2259  0006                     i1l1793:
  2260  0006                     i1l1795:
  2261                           
  2262                           ;Project_ATCS_Decorder_INTERRUPT.c: 18:     if(INTCONbits.IOCIF){
  2263  0006  1C0B               	btfss	11,0	;volatile
  2264  0007  2809               	goto	u100_21
  2265  0008  280A               	goto	u100_20
  2266  0009                     u100_21:
  2267  0009  28CD               	goto	i1l103
  2268  000A                     u100_20:
  2269  000A                     i1l1797:
  2270                           
  2271                           ;Project_ATCS_Decorder_INTERRUPT.c: 19:         COUNT = TMR1;
  2272  000A  0020               	movlb	0	; select bank0
  2273  000B  0817               	movf	23,w	;volatile
  2274  000C  00F7               	movwf	isr@COUNT+1
  2275  000D  0816               	movf	22,w	;volatile
  2276  000E  00F6               	movwf	isr@COUNT
  2277  000F                     i1l1799:
  2278                           
  2279                           ;Project_ATCS_Decorder_INTERRUPT.c: 20:         TMR1 = 0x00;
  2280  000F  0196               	clrf	22	;volatile
  2281  0010  0197               	clrf	23	;volatile
  2282  0011                     i1l1801:
  2283                           
  2284                           ;Project_ATCS_Decorder_INTERRUPT.c: 21:         IOCAF = 0x00;
  2285  0011  0027               	movlb	7	; select bank7
  2286  0012  0193               	clrf	19	;volatile
  2287  0013                     i1l1803:
  2288                           
  2289                           ;Project_ATCS_Decorder_INTERRUPT.c: 23:         if(!(COM_FLAG & 0x01)){
  2290  0013  0020               	movlb	0	; select bank0
  2291  0014  184A               	btfsc	_COM_FLAG,0
  2292  0015  2817               	goto	u101_21
  2293  0016  2818               	goto	u101_20
  2294  0017                     u101_21:
  2295  0017  2853               	goto	i1l104
  2296  0018                     u101_20:
  2297  0018                     i1l1805:
  2298                           
  2299                           ;Project_ATCS_Decorder_INTERRUPT.c: 24:             if(COUNT >= 0x00C0 && COUNT <= 0x010
      +                          0 && !(COM_FLAG & 0x02) ){
  2300  0018  3000               	movlw	0
  2301  0019  0277               	subwf	isr@COUNT+1,w
  2302  001A  30C0               	movlw	192
  2303  001B  1903               	skipnz
  2304  001C  0276               	subwf	isr@COUNT,w
  2305  001D  1C03               	skipc
  2306  001E  2820               	goto	u102_21
  2307  001F  2821               	goto	u102_20
  2308  0020                     u102_21:
  2309  0020  2833               	goto	i1l1813
  2310  0021                     u102_20:
  2311  0021                     i1l1807:
  2312  0021  3001               	movlw	1
  2313  0022  0277               	subwf	isr@COUNT+1,w
  2314  0023  3001               	movlw	1
  2315  0024  1903               	skipnz
  2316  0025  0276               	subwf	isr@COUNT,w
  2317  0026  1803               	skipnc
  2318  0027  2829               	goto	u103_21
  2319  0028  282A               	goto	u103_20
  2320  0029                     u103_21:
  2321  0029  2833               	goto	i1l1813
  2322  002A                     u103_20:
  2323  002A                     i1l1809:
  2324  002A  18CA               	btfsc	_COM_FLAG,1
  2325  002B  282D               	goto	u104_21
  2326  002C  282E               	goto	u104_20
  2327  002D                     u104_21:
  2328  002D  2833               	goto	i1l1813
  2329  002E                     u104_20:
  2330  002E                     i1l1811:
  2331                           
  2332                           ;Project_ATCS_Decorder_INTERRUPT.c: 25:                 COUNTER++;
  2333  002E  3001               	movlw	1
  2334  002F  00F5               	movwf	??_isr
  2335  0030  0875               	movf	??_isr,w
  2336  0031  07F8               	addwf	_COUNTER,f
  2337                           
  2338                           ;Project_ATCS_Decorder_INTERRUPT.c: 26:             }
  2339  0032  28F6               	goto	i1l130
  2340  0033                     i1l1813:
  2341  0033  3000               	movlw	0
  2342  0034  0277               	subwf	isr@COUNT+1,w
  2343  0035  3081               	movlw	129
  2344  0036  1903               	skipnz
  2345  0037  0276               	subwf	isr@COUNT,w
  2346  0038  1803               	skipnc
  2347  0039  283B               	goto	u105_21
  2348  003A  283C               	goto	u105_20
  2349  003B                     u105_21:
  2350  003B  2840               	goto	i1l1817
  2351  003C                     u105_20:
  2352  003C                     i1l1815:
  2353  003C  1CCA               	btfss	_COM_FLAG,1
  2354  003D  283F               	goto	u106_21
  2355  003E  2840               	goto	u106_20
  2356  003F                     u106_21:
  2357  003F  28F6               	goto	i1l130
  2358  0040                     u106_20:
  2359  0040                     i1l1817:
  2360                           
  2361                           ;Project_ATCS_Decorder_INTERRUPT.c: 29:                 if(COUNTER > 11){
  2362  0040  300C               	movlw	12
  2363  0041  0278               	subwf	_COUNTER,w
  2364  0042  1C03               	skipc
  2365  0043  2845               	goto	u107_21
  2366  0044  2846               	goto	u107_20
  2367  0045                     u107_21:
  2368  0045  28CC               	goto	i1l111
  2369  0046                     u107_20:
  2370  0046                     i1l1819:
  2371                           
  2372                           ;Project_ATCS_Decorder_INTERRUPT.c: 30:                     COM_FLAG = COM_FLAG | 0x01;
  2373  0046  084A               	movf	_COM_FLAG,w
  2374  0047  3801               	iorlw	1
  2375  0048  00F5               	movwf	??_isr
  2376  0049  0875               	movf	??_isr,w
  2377  004A  00CA               	movwf	_COM_FLAG
  2378                           
  2379                           ;Project_ATCS_Decorder_INTERRUPT.c: 31:                     COM_FLAG = COM_FLAG & 0xFD;
  2380  004B  084A               	movf	_COM_FLAG,w
  2381  004C  39FD               	andlw	253
  2382  004D  00F5               	movwf	??_isr
  2383  004E  0875               	movf	??_isr,w
  2384  004F  00CA               	movwf	_COM_FLAG
  2385  0050                     i1l1821:
  2386                           
  2387                           ;Project_ATCS_Decorder_INTERRUPT.c: 32:                     COUNTER = 0x00;
  2388  0050  01F8               	clrf	_COUNTER
  2389  0051                     i1l1823:
  2390                           
  2391                           ;Project_ATCS_Decorder_INTERRUPT.c: 33:                     DATA = 0x00;
  2392  0051  01F9               	clrf	_DATA
  2393  0052  28F6               	goto	i1l130
  2394  0053                     i1l104:
  2395  0053  1C4A               	btfss	_COM_FLAG,0
  2396  0054  2856               	goto	u108_21
  2397  0055  2857               	goto	u108_20
  2398  0056                     u108_21:
  2399  0056  28F6               	goto	i1l130
  2400  0057                     u108_20:
  2401  0057                     i1l1825:
  2402                           
  2403                           ;Project_ATCS_Decorder_INTERRUPT.c: 38:             if(COUNTER < 8 ){
  2404  0057  3008               	movlw	8
  2405  0058  0278               	subwf	_COUNTER,w
  2406  0059  1803               	skipnc
  2407  005A  285C               	goto	u109_21
  2408  005B  285D               	goto	u109_20
  2409  005C                     u109_21:
  2410  005C  2889               	goto	i1l1841
  2411  005D                     u109_20:
  2412  005D                     i1l1827:
  2413                           
  2414                           ;Project_ATCS_Decorder_INTERRUPT.c: 39:                 if(COUNT >= 0x00C0 && COUNT <= 0
      +                          x0100 && !(COM_FLAG & 0x02)){
  2415  005D  3000               	movlw	0
  2416  005E  0277               	subwf	isr@COUNT+1,w
  2417  005F  30C0               	movlw	192
  2418  0060  1903               	skipnz
  2419  0061  0276               	subwf	isr@COUNT,w
  2420  0062  1C03               	skipc
  2421  0063  2865               	goto	u110_21
  2422  0064  2866               	goto	u110_20
  2423  0065                     u110_21:
  2424  0065  2876               	goto	i1l1835
  2425  0066                     u110_20:
  2426  0066                     i1l1829:
  2427  0066  3001               	movlw	1
  2428  0067  0277               	subwf	isr@COUNT+1,w
  2429  0068  3001               	movlw	1
  2430  0069  1903               	skipnz
  2431  006A  0276               	subwf	isr@COUNT,w
  2432  006B  1803               	skipnc
  2433  006C  286E               	goto	u111_21
  2434  006D  286F               	goto	u111_20
  2435  006E                     u111_21:
  2436  006E  2876               	goto	i1l1835
  2437  006F                     u111_20:
  2438  006F                     i1l1831:
  2439  006F  18CA               	btfsc	_COM_FLAG,1
  2440  0070  2872               	goto	u112_21
  2441  0071  2873               	goto	u112_20
  2442  0072                     u112_21:
  2443  0072  2876               	goto	i1l1835
  2444  0073                     u112_20:
  2445  0073                     i1l1833:
  2446                           
  2447                           ;Project_ATCS_Decorder_INTERRUPT.c: 40:                     DATA = (UnCHR) (DATA << 1) |
      +                           0x01;
  2448  0073  1403               	setc
  2449  0074  0DF9               	rlf	_DATA,f
  2450                           
  2451                           ;Project_ATCS_Decorder_INTERRUPT.c: 41:                 }else if(COUNT > 0x0080 || COM_F
      +                          LAG & 0x02){
  2452  0075  282E               	goto	i1l1811
  2453  0076                     i1l1835:
  2454  0076  3000               	movlw	0
  2455  0077  0277               	subwf	isr@COUNT+1,w
  2456  0078  3081               	movlw	129
  2457  0079  1903               	skipnz
  2458  007A  0276               	subwf	isr@COUNT,w
  2459  007B  1803               	skipnc
  2460  007C  287E               	goto	u113_21
  2461  007D  287F               	goto	u113_20
  2462  007E                     u113_21:
  2463  007E  2883               	goto	i1l1839
  2464  007F                     u113_20:
  2465  007F                     i1l1837:
  2466  007F  1CCA               	btfss	_COM_FLAG,1
  2467  0080  2882               	goto	u114_21
  2468  0081  2883               	goto	u114_20
  2469  0082                     u114_21:
  2470  0082  282E               	goto	i1l1811
  2471  0083                     u114_20:
  2472  0083                     i1l1839:
  2473                           
  2474                           ;Project_ATCS_Decorder_INTERRUPT.c: 42:                     DATA = (UnCHR) (DATA << 1) &
      +                           0xFE;
  2475  0083  3579               	lslf	_DATA,w
  2476  0084  39FE               	andlw	254
  2477  0085  00F5               	movwf	??_isr
  2478  0086  0875               	movf	??_isr,w
  2479  0087  00F9               	movwf	_DATA
  2480  0088  282E               	goto	i1l1811
  2481  0089                     i1l1841:
  2482                           
  2483                           ;Project_ATCS_Decorder_INTERRUPT.c: 47:                 if(COUNT >= 0x00C0 && COUNT <= 0
      +                          x0100 && !(COM_FLAG & 0x02)){
  2484  0089  3000               	movlw	0
  2485  008A  0277               	subwf	isr@COUNT+1,w
  2486  008B  30C0               	movlw	192
  2487  008C  1903               	skipnz
  2488  008D  0276               	subwf	isr@COUNT,w
  2489  008E  1C03               	skipc
  2490  008F  2891               	goto	u115_21
  2491  0090  2892               	goto	u115_20
  2492  0091                     u115_21:
  2493  0091  28B2               	goto	i1l1853
  2494  0092                     u115_20:
  2495  0092                     i1l1843:
  2496  0092  3001               	movlw	1
  2497  0093  0277               	subwf	isr@COUNT+1,w
  2498  0094  3001               	movlw	1
  2499  0095  1903               	skipnz
  2500  0096  0276               	subwf	isr@COUNT,w
  2501  0097  1803               	skipnc
  2502  0098  289A               	goto	u116_21
  2503  0099  289B               	goto	u116_20
  2504  009A                     u116_21:
  2505  009A  28B2               	goto	i1l1853
  2506  009B                     u116_20:
  2507  009B                     i1l1845:
  2508  009B  18CA               	btfsc	_COM_FLAG,1
  2509  009C  289E               	goto	u117_21
  2510  009D  289F               	goto	u117_20
  2511  009E                     u117_21:
  2512  009E  28B2               	goto	i1l1853
  2513  009F                     u117_20:
  2514  009F                     i1l1847:
  2515                           
  2516                           ;Project_ATCS_Decorder_INTERRUPT.c: 48:                     STACK[STCR] = DATA;
  2517  009F  0879               	movf	_DATA,w
  2518  00A0  00F5               	movwf	??_isr
  2519  00A1  0849               	movf	_STCR,w
  2520  00A2  3EA0               	addlw	160
  2521  00A3  0086               	movwf	6
  2522  00A4  0187               	clrf	7
  2523  00A5  0875               	movf	??_isr,w
  2524  00A6  0081               	movwf	1
  2525  00A7                     i1l1849:
  2526                           
  2527                           ;Project_ATCS_Decorder_INTERRUPT.c: 49:                     COM_FLAG = COM_FLAG | 0x04;
  2528  00A7  084A               	movf	_COM_FLAG,w
  2529  00A8  3804               	iorlw	4
  2530  00A9  00F5               	movwf	??_isr
  2531  00AA  0875               	movf	??_isr,w
  2532  00AB  00CA               	movwf	_COM_FLAG
  2533  00AC                     i1l1851:
  2534                           
  2535                           ;Project_ATCS_Decorder_INTERRUPT.c: 50:                     COM_FLAG = COM_FLAG & 0xFE;
  2536  00AC  084A               	movf	_COM_FLAG,w
  2537  00AD  39FE               	andlw	254
  2538  00AE  00F5               	movwf	??_isr
  2539  00AF  0875               	movf	??_isr,w
  2540  00B0  00CA               	movwf	_COM_FLAG
  2541                           
  2542                           ;Project_ATCS_Decorder_INTERRUPT.c: 51:                 }else{
  2543  00B1  28CA               	goto	i1l1863
  2544  00B2                     i1l1853:
  2545                           
  2546                           ;Project_ATCS_Decorder_INTERRUPT.c: 52:                     if(STCR == 32){
  2547  00B2  3020               	movlw	32
  2548  00B3  0649               	xorwf	_STCR,w
  2549  00B4  1D03               	btfss	3,2
  2550  00B5  28B7               	goto	u118_21
  2551  00B6  28B8               	goto	u118_20
  2552  00B7                     u118_21:
  2553  00B7  28B9               	goto	i1l1857
  2554  00B8                     u118_20:
  2555  00B8                     i1l1855:
  2556                           
  2557                           ;Project_ATCS_Decorder_INTERRUPT.c: 53:                         STCR = 0;
  2558  00B8  01C9               	clrf	_STCR
  2559  00B9                     i1l1857:
  2560                           
  2561                           ;Project_ATCS_Decorder_INTERRUPT.c: 55:                     STACK[STCR] = DATA;
  2562  00B9  0879               	movf	_DATA,w
  2563  00BA  00F5               	movwf	??_isr
  2564  00BB  0849               	movf	_STCR,w
  2565  00BC  3EA0               	addlw	160
  2566  00BD  0086               	movwf	6
  2567  00BE  0187               	clrf	7
  2568  00BF  0875               	movf	??_isr,w
  2569  00C0  0081               	movwf	1
  2570  00C1                     i1l1859:
  2571                           
  2572                           ;Project_ATCS_Decorder_INTERRUPT.c: 56:                     COM_FLAG = COM_FLAG & 0xFB;
  2573  00C1  084A               	movf	_COM_FLAG,w
  2574  00C2  39FB               	andlw	251
  2575  00C3  00F5               	movwf	??_isr
  2576  00C4  0875               	movf	??_isr,w
  2577  00C5  00CA               	movwf	_COM_FLAG
  2578  00C6                     i1l1861:
  2579                           
  2580                           ;Project_ATCS_Decorder_INTERRUPT.c: 57:                     STCR++;
  2581  00C6  3001               	movlw	1
  2582  00C7  00F5               	movwf	??_isr
  2583  00C8  0875               	movf	??_isr,w
  2584  00C9  07C9               	addwf	_STCR,f
  2585  00CA                     i1l1863:
  2586                           
  2587                           ;Project_ATCS_Decorder_INTERRUPT.c: 59:                 COUNTER = 0x00;
  2588  00CA  01F8               	clrf	_COUNTER
  2589  00CB  28F6               	goto	i1l130
  2590  00CC                     i1l111:
  2591                           
  2592                           ;Project_ATCS_Decorder_INTERRUPT.c: 62:     }else if(PIR1bits.TMR1IF){
  2593  00CC  28F6               	goto	i1l130
  2594  00CD                     i1l103:
  2595  00CD  0020               	movlb	0	; select bank0
  2596  00CE  1C11               	btfss	17,0	;volatile
  2597  00CF  28D1               	goto	u119_21
  2598  00D0  28D2               	goto	u119_20
  2599  00D1                     u119_21:
  2600  00D1  28D9               	goto	i1l124
  2601  00D2                     u119_20:
  2602  00D2                     i1l1865:
  2603                           
  2604                           ;Project_ATCS_Decorder_INTERRUPT.c: 63:         PIR1 = 0x00;
  2605  00D2  0191               	clrf	17	;volatile
  2606  00D3                     i1l1867:
  2607                           
  2608                           ;Project_ATCS_Decorder_INTERRUPT.c: 64:         COM_FLAG = COM_FLAG | 0x02;
  2609  00D3  084A               	movf	_COM_FLAG,w
  2610  00D4  3802               	iorlw	2
  2611  00D5  00F5               	movwf	??_isr
  2612  00D6  0875               	movf	??_isr,w
  2613  00D7  00CA               	movwf	_COM_FLAG
  2614                           
  2615                           ;Project_ATCS_Decorder_INTERRUPT.c: 65:     }else if(PIR2bits.EEIF){
  2616  00D8  28F6               	goto	i1l130
  2617  00D9                     i1l124:
  2618  00D9  1E12               	btfss	18,4	;volatile
  2619  00DA  28DC               	goto	u120_21
  2620  00DB  28DD               	goto	u120_20
  2621  00DC                     u120_21:
  2622  00DC  28F6               	goto	i1l130
  2623  00DD                     u120_20:
  2624  00DD                     i1l1869:
  2625                           
  2626                           ;Project_ATCS_Decorder_INTERRUPT.c: 66:         PIR2bits.EEIF = 0;
  2627  00DD  1212               	bcf	18,4	;volatile
  2628  00DE                     i1l1871:
  2629                           
  2630                           ;Project_ATCS_Decorder_INTERRUPT.c: 67:         if(EE_STORE.EE_STATE == EE_WRITE_UID){
  2631  00DE  3002               	movlw	2
  2632  00DF  0630               	xorwf	_EE_STORE,w
  2633  00E0  1D03               	btfss	3,2
  2634  00E1  28E3               	goto	u121_21
  2635  00E2  28E4               	goto	u121_20
  2636  00E3                     u121_21:
  2637  00E3  28E9               	goto	i1l1875
  2638  00E4                     u121_20:
  2639  00E4                     i1l1873:
  2640                           
  2641                           ;Project_ATCS_Decorder_INTERRUPT.c: 68:             EE_STORE.EE_STATE = EE_VERIFY_UID;
  2642  00E4  3003               	movlw	3
  2643  00E5  00F5               	movwf	??_isr
  2644  00E6  0875               	movf	??_isr,w
  2645  00E7  00B0               	movwf	_EE_STORE
  2646                           
  2647                           ;Project_ATCS_Decorder_INTERRUPT.c: 69:         }else if(EE_STORE.EE_STATE == EE_WRITE_R
      +                          OM){
  2648  00E8  28F3               	goto	i1l1879
  2649  00E9                     i1l1875:
  2650  00E9  3004               	movlw	4
  2651  00EA  0630               	xorwf	_EE_STORE,w
  2652  00EB  1D03               	btfss	3,2
  2653  00EC  28EE               	goto	u122_21
  2654  00ED  28EF               	goto	u122_20
  2655  00EE                     u122_21:
  2656  00EE  28F3               	goto	i1l1879
  2657  00EF                     u122_20:
  2658  00EF                     i1l1877:
  2659                           
  2660                           ;Project_ATCS_Decorder_INTERRUPT.c: 70:             EE_STORE.EE_STATE = EE_VERIFY_ROM;
  2661  00EF  3005               	movlw	5
  2662  00F0  00F5               	movwf	??_isr
  2663  00F1  0875               	movf	??_isr,w
  2664  00F2  00B0               	movwf	_EE_STORE
  2665  00F3                     i1l1879:
  2666                           
  2667                           ;Project_ATCS_Decorder_INTERRUPT.c: 72:         EEPROM_SELECT();
  2668  00F3  3182  22CF  3180   	fcall	i1_EEPROM_SELECT
  2669  00F6                     i1l130:
  2670  00F6  107E               	bcf	int$flags,0	;clear compiler interrupt flag (level 1)
  2671  00F7  0009               	retfie
  2672  00F8                     __end_of_isr:
  2673                           
  2674                           	psect	text8
  2675  02CF                     __ptext8:	
  2676 ;; *************** function i1_EEPROM_SELECT *****************
  2677 ;; Defined at:
  2678 ;;		line 12 in file "Project_ATCS_Decorder_Module.c"
  2679 ;; Parameters:    Size  Location     Type
  2680 ;;		None
  2681 ;; Auto vars:     Size  Location     Type
  2682 ;;  EE_SAVE         2    2[COMMON] unsigned int 
  2683 ;;  COUNT           1    4[COMMON] unsigned char 
  2684 ;; Return value:  Size  Location     Type
  2685 ;;                  1    wreg      void 
  2686 ;; Registers used:
  2687 ;;		wreg, fsr0l, fsr0h, fsr1l, fsr1h, status,2, status,0
  2688 ;; Tracked objects:
  2689 ;;		On entry : 0/0
  2690 ;;		On exit  : 0/0
  2691 ;;		Unchanged: 0/0
  2692 ;; Data sizes:     COMMON   BANK0
  2693 ;;      Params:         0       0
  2694 ;;      Locals:         3       0
  2695 ;;      Temps:          2       0
  2696 ;;      Totals:         5       0
  2697 ;;Total ram usage:        5 bytes
  2698 ;; Hardware stack levels used: 1
  2699 ;; This function calls:
  2700 ;;		Nothing
  2701 ;; This function is called by:
  2702 ;;		_isr
  2703 ;; This function uses a non-reentrant model
  2704 ;;
  2705                           
  2706  02CF                     i1_EEPROM_SELECT:	
  2707                           ;psect for function i1_EEPROM_SELECT
  2708                           
  2709  02CF                     i1l1581:	
  2710                           ;incstack = 0
  2711                           ; Regs used in i1_EEPROM_SELECT: [wreg-fsr1h+status,2+status,0]
  2712                           
  2713                           
  2714                           ;Project_ATCS_Decorder_Module.c: 13:     INTCONbits.GIE = 0;
  2715  02CF  138B               	bcf	11,7	;volatile
  2716  02D0                     i1l1583:
  2717                           
  2718                           ;Project_ATCS_Decorder_Module.c: 14:     UnCHR COUNT = 0x00 ;
  2719  02D0  01F4               	clrf	i1EEPROM_SELECT@COUNT
  2720                           
  2721                           ;Project_ATCS_Decorder_Module.c: 16:     switch (EE_STORE.EE_STATE) {
  2722  02D1  2C60               	goto	i1l1717
  2723  02D2                     i1l1585:
  2724                           
  2725                           ;Project_ATCS_Decorder_Module.c: 19:                 if(EE_STORE.EE_REPORT[COUNT]){
  2726  02D2  0874               	movf	i1EEPROM_SELECT@COUNT,w
  2727  02D3  3E3C               	addlw	(low ((_EE_STORE| 0+12)))& (0+255)
  2728  02D4  0086               	movwf	6
  2729  02D5  0187               	clrf	7
  2730  02D6  0801               	movf	1,w
  2731  02D7  1903               	btfsc	3,2
  2732  02D8  2ADA               	goto	u75_21
  2733  02D9  2ADB               	goto	u75_20
  2734  02DA                     u75_21:
  2735  02DA  2AF9               	goto	i1l1595
  2736  02DB                     u75_20:
  2737  02DB                     i1l1587:
  2738                           
  2739                           ;Project_ATCS_Decorder_Module.c: 20:                     EEADR = EE_STORE.EE_ADRS;
  2740  02DB  0833               	movf	_EE_STORE+3,w
  2741  02DC  0023               	movlb	3	; select bank3
  2742  02DD  0092               	movwf	18	;volatile
  2743  02DE  0020               	movlb	0	; select bank0
  2744  02DF  0832               	movf	_EE_STORE+2,w
  2745  02E0  0023               	movlb	3	; select bank3
  2746  02E1  0091               	movwf	17	;volatile
  2747                           
  2748                           ;Project_ATCS_Decorder_Module.c: 21:                     EECON1 = EE_STORE.EE_CONFIG;
  2749  02E2  0020               	movlb	0	; select bank0
  2750  02E3  0831               	movf	_EE_STORE+1,w
  2751  02E4  0023               	movlb	3	; select bank3
  2752  02E5  0095               	movwf	21	;volsfr
  2753  02E6                     i1l165:	
  2754                           ;Project_ATCS_Decorder_Module.c: 22:                     while (EECON1bits.RD);
  2755                           
  2756  02E6  1815               	btfsc	21,0	;volsfr
  2757  02E7  2AE9               	goto	u76_21
  2758  02E8  2AEA               	goto	u76_20
  2759  02E9                     u76_21:
  2760  02E9  2AE6               	goto	i1l165
  2761  02EA                     u76_20:
  2762  02EA                     i1l1589:
  2763                           
  2764                           ;Project_ATCS_Decorder_Module.c: 23:                     EE_STORE.EE_DATA[COUNT] = EEDAT
      +                          ;
  2765  02EA  3574               	lslf	i1EEPROM_SELECT@COUNT,w
  2766  02EB  3E34               	addlw	(low ((_EE_STORE| 0+4)))& (0+255)
  2767  02EC  0086               	movwf	6
  2768  02ED  0187               	clrf	7
  2769  02EE  0813               	movf	19,w	;volatile
  2770  02EF  3FC0               	movwi [0]fsr1
  2771  02F0  0814               	movf	20,w	;volatile
  2772  02F1  3FC1               	movwi [1]fsr1
  2773  02F2                     i1l1591:
  2774                           
  2775                           ;Project_ATCS_Decorder_Module.c: 24:                     INTCONbits.GIE = 1;
  2776  02F2  178B               	bsf	11,7	;volatile
  2777                           
  2778                           ;Project_ATCS_Decorder_Module.c: 25:                     EE_STORE.EE_REPORT[COUNT] = 0x0
      +                          0;
  2779  02F3  0874               	movf	i1EEPROM_SELECT@COUNT,w
  2780  02F4  3E3C               	addlw	(low ((_EE_STORE| 0+12)))& (0+255)
  2781  02F5  0086               	movwf	6
  2782  02F6  0187               	clrf	7
  2783  02F7  0181               	clrf	1
  2784  02F8  2C7D               	goto	i1l168
  2785  02F9                     i1l1595:
  2786                           
  2787                           ;Project_ATCS_Decorder_Module.c: 28:                 COUNT++;
  2788  02F9  3001               	movlw	1
  2789  02FA  00F0               	movwf	??i1_EEPROM_SELECT
  2790  02FB  0870               	movf	??i1_EEPROM_SELECT,w
  2791  02FC  07F4               	addwf	i1EEPROM_SELECT@COUNT,f
  2792  02FD                     i1l1597:
  2793                           
  2794                           ;Project_ATCS_Decorder_Module.c: 29:                 EEADR = EE_STORE.EE_ADRS++;
  2795  02FD  0833               	movf	_EE_STORE+3,w
  2796  02FE  0023               	movlb	3	; select bank3
  2797  02FF  0092               	movwf	18	;volatile
  2798  0300  0020               	movlb	0	; select bank0
  2799  0301  0832               	movf	_EE_STORE+2,w
  2800  0302  0023               	movlb	3	; select bank3
  2801  0303  0091               	movwf	17	;volatile
  2802  0304                     i1l1599:
  2803  0304  3001               	movlw	1
  2804  0305  0020               	movlb	0	; select bank0
  2805  0306  07B2               	addwf	_EE_STORE+2,f
  2806  0307  3000               	movlw	0
  2807  0308  3DB3               	addwfc	_EE_STORE+3,f
  2808  0309                     i1l1601:
  2809                           
  2810                           ;Project_ATCS_Decorder_Module.c: 30:             }while(COUNT < 4);
  2811  0309  3004               	movlw	4
  2812  030A  0274               	subwf	i1EEPROM_SELECT@COUNT,w
  2813  030B  1C03               	skipc
  2814  030C  2B0E               	goto	u77_21
  2815  030D  2B0F               	goto	u77_20
  2816  030E                     u77_21:
  2817  030E  2AD2               	goto	i1l1585
  2818  030F                     u77_20:
  2819  030F  2C7D               	goto	i1l168
  2820  0310                     i1l1603:
  2821                           
  2822                           ;Project_ATCS_Decorder_Module.c: 35:                 if(EE_STORE.EE_REPORT[COUNT]){
  2823  0310  0874               	movf	i1EEPROM_SELECT@COUNT,w
  2824  0311  3E3C               	addlw	(low ((_EE_STORE| 0+12)))& (0+255)
  2825  0312  0086               	movwf	6
  2826  0313  0187               	clrf	7
  2827  0314  0801               	movf	1,w
  2828  0315  1903               	btfsc	3,2
  2829  0316  2B18               	goto	u78_21
  2830  0317  2B19               	goto	u78_20
  2831  0318                     u78_21:
  2832  0318  2B36               	goto	i1l1611
  2833  0319                     u78_20:
  2834  0319                     i1l1605:
  2835                           
  2836                           ;Project_ATCS_Decorder_Module.c: 36:                     EEADR = EE_STORE.EE_ADRS;
  2837  0319  0833               	movf	_EE_STORE+3,w
  2838  031A  0023               	movlb	3	; select bank3
  2839  031B  0092               	movwf	18	;volatile
  2840  031C  0020               	movlb	0	; select bank0
  2841  031D  0832               	movf	_EE_STORE+2,w
  2842  031E  0023               	movlb	3	; select bank3
  2843  031F  0091               	movwf	17	;volatile
  2844                           
  2845                           ;Project_ATCS_Decorder_Module.c: 37:                     EECON1 = EE_STORE.EE_CONFIG;
  2846  0320  0020               	movlb	0	; select bank0
  2847  0321  0831               	movf	_EE_STORE+1,w
  2848  0322  0023               	movlb	3	; select bank3
  2849  0323  0095               	movwf	21	;volsfr
  2850  0324                     i1l1607:
  2851                           
  2852                           ;Project_ATCS_Decorder_Module.c: 38:                     EECON1bits.RD = 1;
  2853  0324  1415               	bsf	21,0	;volsfr
  2854  0325                     i1l173:	
  2855                           ;Project_ATCS_Decorder_Module.c: 39:                     while (EECON1bits.RD);
  2856                           
  2857  0325  1815               	btfsc	21,0	;volsfr
  2858  0326  2B28               	goto	u79_21
  2859  0327  2B29               	goto	u79_20
  2860  0328                     u79_21:
  2861  0328  2B25               	goto	i1l173
  2862  0329                     u79_20:
  2863  0329                     i1l1609:
  2864                           
  2865                           ;Project_ATCS_Decorder_Module.c: 40:                     EE_STORE.EE_DATA[COUNT] = EEDAT
      +                          ;
  2866  0329  3574               	lslf	i1EEPROM_SELECT@COUNT,w
  2867  032A  3E34               	addlw	(low ((_EE_STORE| 0+4)))& (0+255)
  2868  032B  0086               	movwf	6
  2869  032C  0187               	clrf	7
  2870  032D  0813               	movf	19,w	;volatile
  2871  032E  3FC0               	movwi [0]fsr1
  2872  032F  0814               	movf	20,w	;volatile
  2873  0330  3FC1               	movwi [1]fsr1
  2874                           
  2875                           ;Project_ATCS_Decorder_Module.c: 41:                     EE_STORE.EE_REPORT[COUNT] = 0x0
      +                          0;
  2876  0331  0874               	movf	i1EEPROM_SELECT@COUNT,w
  2877  0332  3E3C               	addlw	(low ((_EE_STORE| 0+12)))& (0+255)
  2878  0333  0086               	movwf	6
  2879  0334  0187               	clrf	7
  2880  0335  0181               	clrf	1
  2881  0336                     i1l1611:
  2882                           
  2883                           ;Project_ATCS_Decorder_Module.c: 43:                 EE_STORE.EE_ADRS++;
  2884  0336  3001               	movlw	1
  2885  0337  0020               	movlb	0	; select bank0
  2886  0338  07B2               	addwf	_EE_STORE+2,f
  2887  0339  3000               	movlw	0
  2888  033A  3DB3               	addwfc	_EE_STORE+3,f
  2889  033B                     i1l1613:
  2890                           
  2891                           ;Project_ATCS_Decorder_Module.c: 44:             } while (COUNT < 4);
  2892  033B  3004               	movlw	4
  2893  033C  0274               	subwf	i1EEPROM_SELECT@COUNT,w
  2894  033D  1C03               	skipc
  2895  033E  2B40               	goto	u80_21
  2896  033F  2B41               	goto	u80_20
  2897  0340                     u80_21:
  2898  0340  2B10               	goto	i1l1603
  2899  0341                     u80_20:
  2900  0341                     i1l176:
  2901                           
  2902                           ;Project_ATCS_Decorder_Module.c: 45:             INTCONbits.GIE = 1;
  2903  0341  178B               	bsf	11,7	;volatile
  2904                           
  2905                           ;Project_ATCS_Decorder_Module.c: 46:             return;
  2906  0342  2C7D               	goto	i1l168
  2907  0343                     i1l177:	
  2908                           ;Project_ATCS_Decorder_Module.c: 48:         case EE_WRITE_UID:
  2909                           
  2910                           
  2911                           ;Project_ATCS_Decorder_Module.c: 49:             INTCONbits.GIE = 0;
  2912  0343  138B               	bcf	11,7	;volatile
  2913  0344                     i1l1615:
  2914                           
  2915                           ;Project_ATCS_Decorder_Module.c: 50:             UnINT EE_SAVE = EE_STORE.EE_ADRS;
  2916  0344  0833               	movf	_EE_STORE+3,w
  2917  0345  00F3               	movwf	i1EEPROM_SELECT@EE_SAVE+1
  2918  0346  0832               	movf	_EE_STORE+2,w
  2919  0347  00F2               	movwf	i1EEPROM_SELECT@EE_SAVE
  2920  0348                     i1l1617:
  2921                           
  2922                           ;Project_ATCS_Decorder_Module.c: 52:                 if(EE_STORE.EE_REPORT[COUNT]){
  2923  0348  0874               	movf	i1EEPROM_SELECT@COUNT,w
  2924  0349  3E3C               	addlw	(low ((_EE_STORE| 0+12)))& (0+255)
  2925  034A  0086               	movwf	6
  2926  034B  0187               	clrf	7
  2927  034C  0801               	movf	1,w
  2928  034D  1903               	btfsc	3,2
  2929  034E  2B50               	goto	u81_21
  2930  034F  2B51               	goto	u81_20
  2931  0350                     u81_21:
  2932  0350  2B67               	goto	i1l1631
  2933  0351                     u81_20:
  2934  0351                     i1l1619:
  2935                           
  2936                           ;Project_ATCS_Decorder_Module.c: 53:                     EEADR = EE_STORE.EE_ADRS;
  2937  0351  0833               	movf	_EE_STORE+3,w
  2938  0352  0023               	movlb	3	; select bank3
  2939  0353  0092               	movwf	18	;volatile
  2940  0354  0020               	movlb	0	; select bank0
  2941  0355  0832               	movf	_EE_STORE+2,w
  2942  0356  0023               	movlb	3	; select bank3
  2943  0357  0091               	movwf	17	;volatile
  2944  0358                     i1l1621:
  2945                           
  2946                           ;Project_ATCS_Decorder_Module.c: 54:                     EEDAT = EE_STORE.EE_DATA[COUNT]
      +                          ;
  2947  0358  3574               	lslf	i1EEPROM_SELECT@COUNT,w
  2948  0359  3E34               	addlw	(low ((_EE_STORE| 0+4)))& (0+255)
  2949  035A  0086               	movwf	6
  2950  035B  0187               	clrf	7
  2951  035C  3F40               	moviw [0]fsr1
  2952  035D  0093               	movwf	19	;volatile
  2953  035E  3F41               	moviw [1]fsr1
  2954  035F  0094               	movwf	20	;volatile
  2955  0360                     i1l1623:
  2956                           
  2957                           ;Project_ATCS_Decorder_Module.c: 55:                     EECON1 = 0x64;
  2958  0360  3064               	movlw	100
  2959  0361  0095               	movwf	21	;volsfr
  2960  0362                     i1l1625:
  2961                           
  2962                           ;Project_ATCS_Decorder_Module.c: 56:                     EECON2 = 0x55;
  2963  0362  3055               	movlw	85
  2964  0363  0096               	movwf	22	;volsfr
  2965  0364                     i1l1627:
  2966                           
  2967                           ;Project_ATCS_Decorder_Module.c: 57:                     EECON2 = 0xAA;
  2968  0364  30AA               	movlw	170
  2969  0365  0096               	movwf	22	;volsfr
  2970  0366                     i1l1629:
  2971                           
  2972                           ;Project_ATCS_Decorder_Module.c: 58:                     EECON1bits.WR = 1;
  2973  0366  1495               	bsf	21,1	;volsfr
  2974  0367                     i1l1631:
  2975                           
  2976                           ;Project_ATCS_Decorder_Module.c: 60:                 COUNT++;
  2977  0367  3001               	movlw	1
  2978  0368  00F0               	movwf	??i1_EEPROM_SELECT
  2979  0369  0870               	movf	??i1_EEPROM_SELECT,w
  2980  036A  07F4               	addwf	i1EEPROM_SELECT@COUNT,f
  2981  036B                     i1l1633:
  2982                           
  2983                           ;Project_ATCS_Decorder_Module.c: 61:                 EE_STORE.EE_ADRS++;
  2984  036B  3001               	movlw	1
  2985  036C  0020               	movlb	0	; select bank0
  2986  036D  07B2               	addwf	_EE_STORE+2,f
  2987  036E  3000               	movlw	0
  2988  036F  3DB3               	addwfc	_EE_STORE+3,f
  2989  0370                     i1l1635:
  2990                           
  2991                           ;Project_ATCS_Decorder_Module.c: 62:             } while (COUNT < 4);
  2992  0370  3004               	movlw	4
  2993  0371  0274               	subwf	i1EEPROM_SELECT@COUNT,w
  2994  0372  1C03               	skipc
  2995  0373  2B75               	goto	u82_21
  2996  0374  2B76               	goto	u82_20
  2997  0375                     u82_21:
  2998  0375  2B48               	goto	i1l1617
  2999  0376                     u82_20:
  3000  0376                     i1l1637:
  3001                           
  3002                           ;Project_ATCS_Decorder_Module.c: 63:             EE_STORE.EE_ADRS = EE_SAVE;
  3003  0376  0873               	movf	i1EEPROM_SELECT@EE_SAVE+1,w
  3004  0377  00B3               	movwf	_EE_STORE+3
  3005  0378  0872               	movf	i1EEPROM_SELECT@EE_SAVE,w
  3006  0379  00B2               	movwf	_EE_STORE+2
  3007                           
  3008                           ;Project_ATCS_Decorder_Module.c: 65:             EECON1 = 0x44;
  3009  037A  3044               	movlw	68
  3010  037B  0023               	movlb	3	; select bank3
  3011  037C  0095               	movwf	21	;volsfr
  3012                           
  3013                           ;Project_ATCS_Decorder_Module.c: 66:             EECON2 = 0x55;
  3014  037D  3055               	movlw	85
  3015  037E  0096               	movwf	22	;volsfr
  3016                           
  3017                           ;Project_ATCS_Decorder_Module.c: 67:             EECON2 = 0xAA;
  3018  037F  30AA               	movlw	170
  3019  0380  0096               	movwf	22	;volsfr
  3020  0381                     i1l1639:
  3021                           
  3022                           ;Project_ATCS_Decorder_Module.c: 69:             EECON1bits.WR = 1;
  3023  0381  1495               	bsf	21,1	;volsfr
  3024  0382                     i1l1641:
  3025                           
  3026                           ;Project_ATCS_Decorder_Module.c: 70:             __nop();
  3027  0382  0000               	nop
  3028  0383                     i1l1643:
  3029                           
  3030                           ;Project_ATCS_Decorder_Module.c: 71:             __nop();
  3031  0383  0000               	nop
  3032  0384                     i1l1645:
  3033                           
  3034                           ;Project_ATCS_Decorder_Module.c: 72:             INTCONbits.GIE = 1;
  3035  0384  178B               	bsf	11,7	;volatile
  3036  0385  2C7D               	goto	i1l168
  3037  0386                     i1l181:	
  3038                           ;Project_ATCS_Decorder_Module.c: 75:         case EE_VERIFY_UID:
  3039                           
  3040                           
  3041                           ;Project_ATCS_Decorder_Module.c: 76:             INTCONbits.GIE = 0;
  3042  0386  138B               	bcf	11,7	;volatile
  3043  0387                     i1l1649:
  3044                           
  3045                           ;Project_ATCS_Decorder_Module.c: 78:                 if(EE_STORE.EE_REPORT[COUNT]){
  3046  0387  0874               	movf	i1EEPROM_SELECT@COUNT,w
  3047  0388  3E3C               	addlw	(low ((_EE_STORE| 0+12)))& (0+255)
  3048  0389  0086               	movwf	6
  3049  038A  0187               	clrf	7
  3050  038B  0801               	movf	1,w
  3051  038C  1903               	btfsc	3,2
  3052  038D  2B8F               	goto	u83_21
  3053  038E  2B90               	goto	u83_20
  3054  038F                     u83_21:
  3055  038F  2BBD               	goto	i1l1659
  3056  0390                     u83_20:
  3057  0390                     i1l1651:
  3058                           
  3059                           ;Project_ATCS_Decorder_Module.c: 79:                     EEADR = EE_STORE.EE_ADRS;
  3060  0390  0833               	movf	_EE_STORE+3,w
  3061  0391  0023               	movlb	3	; select bank3
  3062  0392  0092               	movwf	18	;volatile
  3063  0393  0020               	movlb	0	; select bank0
  3064  0394  0832               	movf	_EE_STORE+2,w
  3065  0395  0023               	movlb	3	; select bank3
  3066  0396  0091               	movwf	17	;volatile
  3067                           
  3068                           ;Project_ATCS_Decorder_Module.c: 80:                     EECON1 = 0x41;
  3069  0397  3041               	movlw	65
  3070  0398  0095               	movwf	21	;volsfr
  3071  0399                     i1l184:	
  3072                           ;Project_ATCS_Decorder_Module.c: 81:                     while (EECON1bits.RD);
  3073                           
  3074  0399  1815               	btfsc	21,0	;volsfr
  3075  039A  2B9C               	goto	u84_21
  3076  039B  2B9D               	goto	u84_20
  3077  039C                     u84_21:
  3078  039C  2B99               	goto	i1l184
  3079  039D                     u84_20:
  3080  039D                     i1l1653:
  3081                           
  3082                           ;Project_ATCS_Decorder_Module.c: 82:                     if (EEDAT != EE_STORE.EE_DATA[C
      +                          OUNT]) {
  3083  039D  3574               	lslf	i1EEPROM_SELECT@COUNT,w
  3084  039E  3E34               	addlw	(low ((_EE_STORE| 0+4)))& (0+255)
  3085  039F  0086               	movwf	6
  3086  03A0  0187               	clrf	7
  3087  03A1  3F40               	moviw [0]fsr1
  3088  03A2  00F0               	movwf	??i1_EEPROM_SELECT
  3089  03A3  3F41               	moviw [1]fsr1
  3090  03A4  00F1               	movwf	??i1_EEPROM_SELECT+1
  3091  03A5  0814               	movf	20,w	;volatile
  3092  03A6  0671               	xorwf	??i1_EEPROM_SELECT+1,w
  3093  03A7  1D03               	skipz
  3094  03A8  2BAB               	goto	u85_25
  3095  03A9  0813               	movf	19,w	;volatile
  3096  03AA  0670               	xorwf	??i1_EEPROM_SELECT,w
  3097  03AB                     u85_25:
  3098  03AB  1903               	skipnz
  3099  03AC  2BAE               	goto	u85_21
  3100  03AD  2BAF               	goto	u85_20
  3101  03AE                     u85_21:
  3102  03AE  2BB8               	goto	i1l1657
  3103  03AF                     u85_20:
  3104  03AF                     i1l1655:
  3105                           
  3106                           ;Project_ATCS_Decorder_Module.c: 83:                         EE_STORE.EE_REPORT[COUNT] =
      +                           0xFF;
  3107  03AF  30FF               	movlw	255
  3108  03B0  00F0               	movwf	??i1_EEPROM_SELECT
  3109  03B1  0874               	movf	i1EEPROM_SELECT@COUNT,w
  3110  03B2  3E3C               	addlw	(low ((_EE_STORE| 0+12)))& (0+255)
  3111  03B3  0086               	movwf	6
  3112  03B4  0187               	clrf	7
  3113  03B5  0870               	movf	??i1_EEPROM_SELECT,w
  3114  03B6  0081               	movwf	1
  3115                           
  3116                           ;Project_ATCS_Decorder_Module.c: 84:                     } else {
  3117  03B7  2BBD               	goto	i1l1659
  3118  03B8                     i1l1657:
  3119                           
  3120                           ;Project_ATCS_Decorder_Module.c: 85:                         EE_STORE.EE_REPORT[COUNT] =
      +                           0x00;
  3121  03B8  0874               	movf	i1EEPROM_SELECT@COUNT,w
  3122  03B9  3E3C               	addlw	(low ((_EE_STORE| 0+12)))& (0+255)
  3123  03BA  0086               	movwf	6
  3124  03BB  0187               	clrf	7
  3125  03BC  0181               	clrf	1
  3126  03BD                     i1l1659:
  3127                           
  3128                           ;Project_ATCS_Decorder_Module.c: 88:                 COUNT++;
  3129  03BD  3001               	movlw	1
  3130  03BE  00F0               	movwf	??i1_EEPROM_SELECT
  3131  03BF  0870               	movf	??i1_EEPROM_SELECT,w
  3132  03C0  07F4               	addwf	i1EEPROM_SELECT@COUNT,f
  3133  03C1                     i1l1661:
  3134                           
  3135                           ;Project_ATCS_Decorder_Module.c: 89:                 EE_STORE.EE_ADRS++;
  3136  03C1  3001               	movlw	1
  3137  03C2  0020               	movlb	0	; select bank0
  3138  03C3  07B2               	addwf	_EE_STORE+2,f
  3139  03C4  3000               	movlw	0
  3140  03C5  3DB3               	addwfc	_EE_STORE+3,f
  3141  03C6                     i1l1663:
  3142                           
  3143                           ;Project_ATCS_Decorder_Module.c: 90:             } while (COUNT < 4);
  3144  03C6  3004               	movlw	4
  3145  03C7  0274               	subwf	i1EEPROM_SELECT@COUNT,w
  3146  03C8  1C03               	skipc
  3147  03C9  2BCB               	goto	u86_21
  3148  03CA  2BCC               	goto	u86_20
  3149  03CB                     u86_21:
  3150  03CB  2B87               	goto	i1l1649
  3151  03CC                     u86_20:
  3152  03CC                     i1l189:
  3153                           
  3154                           ;Project_ATCS_Decorder_Module.c: 91:             INTCONbits.GIE = 1;
  3155  03CC  178B               	bsf	11,7	;volatile
  3156                           
  3157                           ;Project_ATCS_Decorder_Module.c: 92:             return;
  3158  03CD  2C7D               	goto	i1l168
  3159  03CE                     i1l1665:
  3160                           
  3161                           ;Project_ATCS_Decorder_Module.c: 96:                 if(EE_STORE.EE_REPORT[COUNT]){
  3162  03CE  0874               	movf	i1EEPROM_SELECT@COUNT,w
  3163  03CF  3E3C               	addlw	(low ((_EE_STORE| 0+12)))& (0+255)
  3164  03D0  0086               	movwf	6
  3165  03D1  0187               	clrf	7
  3166  03D2  0801               	movf	1,w
  3167  03D3  1903               	btfsc	3,2
  3168  03D4  2BD6               	goto	u87_21
  3169  03D5  2BD7               	goto	u87_20
  3170  03D6                     u87_21:
  3171  03D6  2BF1               	goto	i1l1687
  3172  03D7                     u87_20:
  3173  03D7                     i1l1667:
  3174                           
  3175                           ;Project_ATCS_Decorder_Module.c: 97:                     EEADR = EE_STORE.EE_ADRS;
  3176  03D7  0833               	movf	_EE_STORE+3,w
  3177  03D8  0023               	movlb	3	; select bank3
  3178  03D9  0092               	movwf	18	;volatile
  3179  03DA  0020               	movlb	0	; select bank0
  3180  03DB  0832               	movf	_EE_STORE+2,w
  3181  03DC  0023               	movlb	3	; select bank3
  3182  03DD  0091               	movwf	17	;volatile
  3183  03DE                     i1l1669:
  3184                           
  3185                           ;Project_ATCS_Decorder_Module.c: 98:                     EEDAT = EE_STORE.EE_DATA[COUNT]
      +                          ;
  3186  03DE  3574               	lslf	i1EEPROM_SELECT@COUNT,w
  3187  03DF  3E34               	addlw	(low ((_EE_STORE| 0+4)))& (0+255)
  3188  03E0  0086               	movwf	6
  3189  03E1  0187               	clrf	7
  3190  03E2  3F40               	moviw [0]fsr1
  3191  03E3  0093               	movwf	19	;volatile
  3192  03E4  3F41               	moviw [1]fsr1
  3193  03E5  0094               	movwf	20	;volatile
  3194  03E6                     i1l1671:
  3195                           
  3196                           ;Project_ATCS_Decorder_Module.c: 99:                     EECON1 = 0x44;
  3197  03E6  3044               	movlw	68
  3198  03E7  0095               	movwf	21	;volsfr
  3199  03E8                     i1l1673:
  3200                           
  3201                           ;Project_ATCS_Decorder_Module.c: 100:                     EECON2 = 0x55;
  3202  03E8  3055               	movlw	85
  3203  03E9  0096               	movwf	22	;volsfr
  3204  03EA                     i1l1675:
  3205                           
  3206                           ;Project_ATCS_Decorder_Module.c: 101:                     EECON2 = 0xAA;
  3207  03EA  30AA               	movlw	170
  3208  03EB  0096               	movwf	22	;volsfr
  3209  03EC                     i1l1677:
  3210                           
  3211                           ;Project_ATCS_Decorder_Module.c: 102:                     EECON1bits.WR = 1;
  3212  03EC  1495               	bsf	21,1	;volsfr
  3213  03ED                     i1l1679:
  3214                           
  3215                           ;Project_ATCS_Decorder_Module.c: 103:                     __nop();
  3216  03ED  0000               	nop
  3217  03EE                     i1l1681:
  3218                           
  3219                           ;Project_ATCS_Decorder_Module.c: 104:                     __nop();
  3220  03EE  0000               	nop
  3221  03EF                     i1l1683:
  3222                           
  3223                           ;Project_ATCS_Decorder_Module.c: 105:                     INTCONbits.GIE = 1;
  3224  03EF  178B               	bsf	11,7	;volatile
  3225  03F0  2C7D               	goto	i1l168
  3226  03F1                     i1l1687:
  3227                           
  3228                           ;Project_ATCS_Decorder_Module.c: 108:                 COUNT++;
  3229  03F1  3001               	movlw	1
  3230  03F2  00F0               	movwf	??i1_EEPROM_SELECT
  3231  03F3  0870               	movf	??i1_EEPROM_SELECT,w
  3232  03F4  07F4               	addwf	i1EEPROM_SELECT@COUNT,f
  3233  03F5                     i1l1689:
  3234                           
  3235                           ;Project_ATCS_Decorder_Module.c: 109:                 EEADR = EE_STORE.EE_ADRS++;
  3236  03F5  0833               	movf	_EE_STORE+3,w
  3237  03F6  0023               	movlb	3	; select bank3
  3238  03F7  0092               	movwf	18	;volatile
  3239  03F8  0020               	movlb	0	; select bank0
  3240  03F9  0832               	movf	_EE_STORE+2,w
  3241  03FA  0023               	movlb	3	; select bank3
  3242  03FB  0091               	movwf	17	;volatile
  3243  03FC                     i1l1691:
  3244  03FC  3001               	movlw	1
  3245  03FD  0020               	movlb	0	; select bank0
  3246  03FE  07B2               	addwf	_EE_STORE+2,f
  3247  03FF  3000               	movlw	0
  3248  0400  3DB3               	addwfc	_EE_STORE+3,f
  3249  0401                     i1l1693:
  3250                           
  3251                           ;Project_ATCS_Decorder_Module.c: 110:             }while(COUNT < 4);
  3252  0401  3004               	movlw	4
  3253  0402  0274               	subwf	i1EEPROM_SELECT@COUNT,w
  3254  0403  1C03               	skipc
  3255  0404  2C06               	goto	u88_21
  3256  0405  2C07               	goto	u88_20
  3257  0406                     u88_21:
  3258  0406  2BCE               	goto	i1l1665
  3259  0407                     u88_20:
  3260  0407                     i1l193:
  3261                           
  3262                           ;Project_ATCS_Decorder_Module.c: 111:             INTCONbits.GIE = 1;
  3263  0407  178B               	bsf	11,7	;volatile
  3264                           
  3265                           ;Project_ATCS_Decorder_Module.c: 112:             return;
  3266  0408  2C7D               	goto	i1l168
  3267  0409                     i1l1695:
  3268                           
  3269                           ;Project_ATCS_Decorder_Module.c: 116:                 if(EE_STORE.EE_REPORT[COUNT]){
  3270  0409  0874               	movf	i1EEPROM_SELECT@COUNT,w
  3271  040A  3E3C               	addlw	(low ((_EE_STORE| 0+12)))& (0+255)
  3272  040B  0086               	movwf	6
  3273  040C  0187               	clrf	7
  3274  040D  0801               	movf	1,w
  3275  040E  1903               	btfsc	3,2
  3276  040F  2C11               	goto	u89_21
  3277  0410  2C12               	goto	u89_20
  3278  0411                     u89_21:
  3279  0411  2C48               	goto	i1l1707
  3280  0412                     u89_20:
  3281  0412                     i1l1697:
  3282                           
  3283                           ;Project_ATCS_Decorder_Module.c: 117:                     EEADR = EE_STORE.EE_ADRS;
  3284  0412  0833               	movf	_EE_STORE+3,w
  3285  0413  0023               	movlb	3	; select bank3
  3286  0414  0092               	movwf	18	;volatile
  3287  0415  0020               	movlb	0	; select bank0
  3288  0416  0832               	movf	_EE_STORE+2,w
  3289  0417  0023               	movlb	3	; select bank3
  3290  0418  0091               	movwf	17	;volatile
  3291                           
  3292                           ;Project_ATCS_Decorder_Module.c: 118:                     EECON1 = 0x01;
  3293  0419  3001               	movlw	1
  3294  041A  0095               	movwf	21	;volsfr
  3295  041B                     i1l197:	
  3296                           ;Project_ATCS_Decorder_Module.c: 119:                     while (EECON1bits.RD);
  3297                           
  3298  041B  1815               	btfsc	21,0	;volsfr
  3299  041C  2C1E               	goto	u90_21
  3300  041D  2C1F               	goto	u90_20
  3301  041E                     u90_21:
  3302  041E  2C1B               	goto	i1l197
  3303  041F                     u90_20:
  3304  041F                     i1l1699:
  3305                           
  3306                           ;Project_ATCS_Decorder_Module.c: 120:                     EE_STORE.EE_DATA[COUNT] = EEDA
      +                          T;
  3307  041F  3574               	lslf	i1EEPROM_SELECT@COUNT,w
  3308  0420  3E34               	addlw	(low ((_EE_STORE| 0+4)))& (0+255)
  3309  0421  0086               	movwf	6
  3310  0422  0187               	clrf	7
  3311  0423  0813               	movf	19,w	;volatile
  3312  0424  3FC0               	movwi [0]fsr1
  3313  0425  0814               	movf	20,w	;volatile
  3314  0426  3FC1               	movwi [1]fsr1
  3315                           
  3316                           ;Project_ATCS_Decorder_Module.c: 121:                     if (EEDAT != EE_STORE.EE_DATA[
      +                          COUNT]) {
  3317  0427  3574               	lslf	i1EEPROM_SELECT@COUNT,w
  3318  0428  3E34               	addlw	(low ((_EE_STORE| 0+4)))& (0+255)
  3319  0429  0086               	movwf	6
  3320  042A  0187               	clrf	7
  3321  042B  3F40               	moviw [0]fsr1
  3322  042C  00F0               	movwf	??i1_EEPROM_SELECT
  3323  042D  3F41               	moviw [1]fsr1
  3324  042E  00F1               	movwf	??i1_EEPROM_SELECT+1
  3325  042F  0814               	movf	20,w	;volatile
  3326  0430  0671               	xorwf	??i1_EEPROM_SELECT+1,w
  3327  0431  1D03               	skipz
  3328  0432  2C35               	goto	u91_25
  3329  0433  0813               	movf	19,w	;volatile
  3330  0434  0670               	xorwf	??i1_EEPROM_SELECT,w
  3331  0435                     u91_25:
  3332  0435  1903               	skipnz
  3333  0436  2C38               	goto	u91_21
  3334  0437  2C39               	goto	u91_20
  3335  0438                     u91_21:
  3336  0438  2C42               	goto	i1l1703
  3337  0439                     u91_20:
  3338  0439                     i1l1701:
  3339                           
  3340                           ;Project_ATCS_Decorder_Module.c: 122:                         EE_STORE.EE_REPORT[COUNT] 
      +                          = 0xFF;
  3341  0439  30FF               	movlw	255
  3342  043A  00F0               	movwf	??i1_EEPROM_SELECT
  3343  043B  0874               	movf	i1EEPROM_SELECT@COUNT,w
  3344  043C  3E3C               	addlw	(low ((_EE_STORE| 0+12)))& (0+255)
  3345  043D  0086               	movwf	6
  3346  043E  0187               	clrf	7
  3347  043F  0870               	movf	??i1_EEPROM_SELECT,w
  3348  0440  0081               	movwf	1
  3349                           
  3350                           ;Project_ATCS_Decorder_Module.c: 123:                     } else {
  3351  0441  2C7D               	goto	i1l168
  3352  0442                     i1l1703:
  3353                           
  3354                           ;Project_ATCS_Decorder_Module.c: 124:                         EE_STORE.EE_REPORT[COUNT] 
      +                          = 0x00;
  3355  0442  0874               	movf	i1EEPROM_SELECT@COUNT,w
  3356  0443  3E3C               	addlw	(low ((_EE_STORE| 0+12)))& (0+255)
  3357  0444  0086               	movwf	6
  3358  0445  0187               	clrf	7
  3359  0446  0181               	clrf	1
  3360  0447  2C7D               	goto	i1l168
  3361  0448                     i1l1707:
  3362                           
  3363                           ;Project_ATCS_Decorder_Module.c: 128:                 COUNT++;
  3364  0448  3001               	movlw	1
  3365  0449  00F0               	movwf	??i1_EEPROM_SELECT
  3366  044A  0870               	movf	??i1_EEPROM_SELECT,w
  3367  044B  07F4               	addwf	i1EEPROM_SELECT@COUNT,f
  3368  044C                     i1l1709:
  3369                           
  3370                           ;Project_ATCS_Decorder_Module.c: 129:                 EEADR = EE_STORE.EE_ADRS++;
  3371  044C  0833               	movf	_EE_STORE+3,w
  3372  044D  0023               	movlb	3	; select bank3
  3373  044E  0092               	movwf	18	;volatile
  3374  044F  0020               	movlb	0	; select bank0
  3375  0450  0832               	movf	_EE_STORE+2,w
  3376  0451  0023               	movlb	3	; select bank3
  3377  0452  0091               	movwf	17	;volatile
  3378  0453                     i1l1711:
  3379  0453  3001               	movlw	1
  3380  0454  0020               	movlb	0	; select bank0
  3381  0455  07B2               	addwf	_EE_STORE+2,f
  3382  0456  3000               	movlw	0
  3383  0457  3DB3               	addwfc	_EE_STORE+3,f
  3384  0458                     i1l1713:
  3385                           
  3386                           ;Project_ATCS_Decorder_Module.c: 130:             }while(COUNT < 4);
  3387  0458  3004               	movlw	4
  3388  0459  0274               	subwf	i1EEPROM_SELECT@COUNT,w
  3389  045A  1C03               	skipc
  3390  045B  2C5D               	goto	u92_21
  3391  045C  2C5E               	goto	u92_20
  3392  045D                     u92_21:
  3393  045D  2C09               	goto	i1l1695
  3394  045E                     u92_20:
  3395  045E                     i1l202:
  3396                           
  3397                           ;Project_ATCS_Decorder_Module.c: 131:             INTCONbits.GIE = 1;
  3398  045E  178B               	bsf	11,7	;volatile
  3399                           
  3400                           ;Project_ATCS_Decorder_Module.c: 132:             return;
  3401  045F  2C7D               	goto	i1l168
  3402  0460                     i1l1717:
  3403  0460  0020               	movlb	0	; select bank0
  3404  0461  0830               	movf	_EE_STORE,w
  3405  0462  00F0               	movwf	??i1_EEPROM_SELECT
  3406  0463  01F1               	clrf	??i1_EEPROM_SELECT+1
  3407                           
  3408                           ; Switch on 2 bytes has been partitioned into a top level switch of size 1, and 1 sub-sw
      +                          itches
  3409                           ; Switch size 1, requested type "simple"
  3410                           ; Number of cases is 1, Range of values is 0 to 0
  3411                           ; switch strategies available:
  3412                           ; Name         Instructions Cycles
  3413                           ; simple_byte            4     3 (average)
  3414                           ; direct_byte            8     6 (fixed)
  3415                           ; jumptable            260     6 (fixed)
  3416                           ;	Chosen strategy is simple_byte
  3417  0464  0871               	movf	??i1_EEPROM_SELECT+1,w
  3418  0465  3A00               	xorlw	0	; case 0
  3419  0466  1903               	skipnz
  3420  0467  2C69               	goto	i1l1965
  3421  0468  2C7D               	goto	i1l168
  3422  0469                     i1l1965:
  3423                           
  3424                           ; Switch size 1, requested type "simple"
  3425                           ; Number of cases is 6, Range of values is 0 to 5
  3426                           ; switch strategies available:
  3427                           ; Name         Instructions Cycles
  3428                           ; direct_byte           18     6 (fixed)
  3429                           ; simple_byte           19    10 (average)
  3430                           ; jumptable            260     6 (fixed)
  3431                           ;	Chosen strategy is simple_byte
  3432  0469  0870               	movf	??i1_EEPROM_SELECT,w
  3433  046A  3A00               	xorlw	0	; case 0
  3434  046B  1903               	skipnz
  3435  046C  2AD2               	goto	i1l1585
  3436  046D  3A01               	xorlw	1	; case 1
  3437  046E  1903               	skipnz
  3438  046F  2B10               	goto	i1l1603
  3439  0470  3A03               	xorlw	3	; case 2
  3440  0471  1903               	skipnz
  3441  0472  2B43               	goto	i1l177
  3442  0473  3A01               	xorlw	1	; case 3
  3443  0474  1903               	skipnz
  3444  0475  2B86               	goto	i1l181
  3445  0476  3A07               	xorlw	7	; case 4
  3446  0477  1903               	skipnz
  3447  0478  2BCE               	goto	i1l1665
  3448  0479  3A01               	xorlw	1	; case 5
  3449  047A  1903               	skipnz
  3450  047B  2C09               	goto	i1l1695
  3451  047C  2C7D               	goto	i1l168
  3452  047D                     i1l168:
  3453  047D  0008               	return
  3454  047E                     __end_ofi1_EEPROM_SELECT:
  3455  007E                     btemp	set	126	;btemp
  3456  007E                     int$flags	set	126
  3457  007E                     wtemp0	set	126
  3458                           
  3459                           	psect	idloc
  3460                           
  3461                           ;Config register IDLOC0 @ 0x8000
  3462                           ;	unspecified, using default values
  3463  8000                     	org	32768
  3464  8000  3FFF               	dw	16383
  3465                           
  3466                           ;Config register IDLOC1 @ 0x8001
  3467                           ;	unspecified, using default values
  3468  8001                     	org	32769
  3469  8001  3FFF               	dw	16383
  3470                           
  3471                           ;Config register IDLOC2 @ 0x8002
  3472                           ;	unspecified, using default values
  3473  8002                     	org	32770
  3474  8002  3FFF               	dw	16383
  3475                           
  3476                           ;Config register IDLOC3 @ 0x8003
  3477                           ;	unspecified, using default values
  3478  8003                     	org	32771
  3479  8003  3FFF               	dw	16383
  3480                           
  3481                           	psect	config
  3482                           
  3483                           ;Config register CONFIG1 @ 0x8007
  3484                           ;	Oscillator Selection
  3485                           ;	FOSC = INTOSC, INTOSC oscillator: I/O function on CLKIN pin
  3486                           ;	Watchdog Timer Enable
  3487                           ;	WDTE = OFF, WDT disabled
  3488                           ;	Power-up Timer Enable
  3489                           ;	PWRTE = ON, PWRT enabled
  3490                           ;	MCLR Pin Function Select
  3491                           ;	MCLRE = OFF, MCLR/VPP pin function is digital input
  3492                           ;	Flash Program Memory Code Protection
  3493                           ;	CP = OFF, Program memory code protection is disabled
  3494                           ;	Data Memory Code Protection
  3495                           ;	CPD = OFF, Data memory code protection is disabled
  3496                           ;	Brown-out Reset Enable
  3497                           ;	BOREN = ON, Brown-out Reset enabled
  3498                           ;	Clock Out Enable
  3499                           ;	CLKOUTEN = OFF, CLKOUT function is disabled. I/O or oscillator function on the CLKOUT 
      +                          pin
  3500                           ;	Internal/External Switchover
  3501                           ;	IESO = OFF, Internal/External Switchover mode is disabled
  3502                           ;	Fail-Safe Clock Monitor Enable
  3503                           ;	FCMEN = OFF, Fail-Safe Clock Monitor is disabled
  3504  8007                     	org	32775
  3505  8007  0F84               	dw	3972
  3506                           
  3507                           ;Config register CONFIG2 @ 0x8008
  3508                           ;	Flash Memory Self-Write Protection
  3509                           ;	WRT = OFF, Write protection off
  3510                           ;	PLL Enable
  3511                           ;	PLLEN = OFF, 4x PLL disabled
  3512                           ;	Stack Overflow/Underflow Reset Enable
  3513                           ;	STVREN = ON, Stack Overflow or Underflow will cause a Reset
  3514                           ;	Brown-out Reset Voltage Selection
  3515                           ;	BORV = HI, Brown-out Reset Voltage (Vbor), high trip point selected.
  3516                           ;	Low-Voltage Programming Enable
  3517                           ;	LVP = OFF, High-voltage on MCLR/VPP must be used for programming
  3518  8008                     	org	32776
  3519  8008  1AFF               	dw	6911

Data Sizes:
    Strings     0
    Constant    5
    Data        32
    BSS         4
    Persistent  32
    Stack       0

Auto Spaces:
    Space          Size  Autos    Used
    COMMON           14      8      10
    BANK0            80      9      43

Pointer List with Targets:

    PKT_FUNC	PTR FTN()void [8] size(2) Largest target is 1
		 -> CONFIG_SET(), Absolute function(), FUNC_SET(), PWM_SET(), 
		 -> DEC_SET(), 


Critical Paths under _main in COMMON

    None.

Critical Paths under _isr in COMMON

    _isr->i1_EEPROM_SELECT

Critical Paths under _main in BANK0

    _main->_EEPROM_SELECT

Critical Paths under _isr in BANK0

    None.

Call Graph Tables:

 ---------------------------------------------------------------------------------
 (Depth) Function   	        Calls       Base Space   Used Autos Params    Refs
 ---------------------------------------------------------------------------------
 (0) _main                                                 4     4      0     649
                                              5 BANK0      4     4      0
                      _EEPROM_SELECT
                     _PACKET_CONTROL
 ---------------------------------------------------------------------------------
 (1) _PACKET_CONTROL                                       3     3      0       0
                                              0 BANK0      3     3      0
                         _CONFIG_SET
                            _DEC_SET
                           _FUNC_SET
                            _PWM_SET
 ---------------------------------------------------------------------------------
 (2) _PWM_SET                                              0     0      0       0
 ---------------------------------------------------------------------------------
 (2) _FUNC_SET                                             0     0      0       0
 ---------------------------------------------------------------------------------
 (2) _DEC_SET                                              0     0      0       0
 ---------------------------------------------------------------------------------
 (2) _CONFIG_SET                                           0     0      0       0
 ---------------------------------------------------------------------------------
 (1) _EEPROM_SELECT                                        5     5      0     579
                                              0 BANK0      5     5      0
 ---------------------------------------------------------------------------------
 Estimated maximum stack depth 2
 ---------------------------------------------------------------------------------
 (Depth) Function   	        Calls       Base Space   Used Autos Params    Refs
 ---------------------------------------------------------------------------------
 (3) _isr                                                  3     3      0     757
                                              5 COMMON     3     3      0
                    i1_EEPROM_SELECT
 ---------------------------------------------------------------------------------
 (4) i1_EEPROM_SELECT                                      5     5      0     579
                                              0 COMMON     5     5      0
 ---------------------------------------------------------------------------------
 Estimated maximum stack depth 4
 ---------------------------------------------------------------------------------

 Call Graph Graphs:

 _main (ROOT)
   _EEPROM_SELECT
   _PACKET_CONTROL
     _CONFIG_SET
     _DEC_SET
     _FUNC_SET
     _PWM_SET

 _isr (ROOT)
   i1_EEPROM_SELECT

 Address spaces:
Name               Size   Autos  Total    Cost      Usage
BIGRAM              70      0       0       0        0.0%
EEDATA             100      0       0       0        0.0%
NULL                 0      0       0       0        0.0%
CODE                 0      0       0       0        0.0%
BITCOMMON            E      0       0       1        0.0%
BITSFR0              0      0       0       1        0.0%
SFR0                 0      0       0       1        0.0%
COMMON               E      8       A       2       71.4%
BITSFR1              0      0       0       2        0.0%
SFR1                 0      0       0       2        0.0%
BITSFR2              0      0       0       3        0.0%
SFR2                 0      0       0       3        0.0%
STACK                0      0       0       3        0.0%
BITSFR3              0      0       0       4        0.0%
SFR3                 0      0       0       4        0.0%
ABS                  0      0      35       4        0.0%
BITBANK0            50      0       0       5        0.0%
BITSFR4              0      0       0       5        0.0%
SFR4                 0      0       0       5        0.0%
BANK0               50      9      2B       6       53.8%
BITSFR5              0      0       0       6        0.0%
SFR5                 0      0       0       6        0.0%
BITSFR6              0      0       0       7        0.0%
SFR6                 0      0       0       7        0.0%
DATA                 0      0      35       7        0.0%
BITSFR7              0      0       0       8        0.0%
SFR7                 0      0       0       8        0.0%
BITSFR8              0      0       0       9        0.0%
SFR8                 0      0       0       9        0.0%
BITSFR9              0      0       0      10        0.0%
SFR9                 0      0       0      10        0.0%
BITSFR10             0      0       0      11        0.0%
SFR10                0      0       0      11        0.0%
BITSFR11             0      0       0      12        0.0%
SFR11                0      0       0      12        0.0%
BITSFR12             0      0       0      13        0.0%
SFR12                0      0       0      13        0.0%
BITSFR13             0      0       0      14        0.0%
SFR13                0      0       0      14        0.0%
BITSFR14             0      0       0      15        0.0%
SFR14                0      0       0      15        0.0%
BITSFR15             0      0       0      16        0.0%
SFR15                0      0       0      16        0.0%
BITSFR16             0      0       0      17        0.0%
SFR16                0      0       0      17        0.0%
BITSFR17             0      0       0      18        0.0%
SFR17                0      0       0      18        0.0%
BITSFR18             0      0       0      19        0.0%
SFR18                0      0       0      19        0.0%
BITSFR19             0      0       0      20        0.0%
SFR19                0      0       0      20        0.0%
BITSFR20             0      0       0      21        0.0%
SFR20                0      0       0      21        0.0%
BITSFR21             0      0       0      22        0.0%
SFR21                0      0       0      22        0.0%
BITSFR22             0      0       0      23        0.0%
SFR22                0      0       0      23        0.0%
BITSFR23             0      0       0      24        0.0%
SFR23                0      0       0      24        0.0%
BITSFR24             0      0       0      25        0.0%
SFR24                0      0       0      25        0.0%
BITSFR25             0      0       0      26        0.0%
SFR25                0      0       0      26        0.0%
BITSFR26             0      0       0      27        0.0%
SFR26                0      0       0      27        0.0%
BITSFR27             0      0       0      28        0.0%
SFR27                0      0       0      28        0.0%
BITSFR28             0      0       0      29        0.0%
SFR28                0      0       0      29        0.0%
BITSFR29             0      0       0      30        0.0%
SFR29                0      0       0      30        0.0%
BITSFR30             0      0       0      31        0.0%
SFR30                0      0       0      31        0.0%
BITSFR31             0      0       0      32        0.0%
SFR31                0      0       0      32        0.0%


Microchip Technology PIC Macro Assembler V2.36 build 20220127204148 
Symbol Table                                                                                   Fri Dec 15 11:58:42 2023

                     l65 0512                      l202 02B0                      l210 051D  
                    l211 051F                      l220 0591                      l214 0531  
                    l223 058F                      l215 0533                      l209 0563  
                    l226 0590                      l181 01CB                      l173 0166  
                    l165 0124                      l229 0592                      l184 01DE  
                    l176 0184                      l168 02CE                      l193 0252  
                    l177 0186                      l197 0266                      l189 0215  
                    _PR2 001B                      u600 016A                      u601 0169  
                    u610 0184                      u611 0183                      u700 025D  
                    u620 0194                      u701 025C                      u621 0193  
                    u710 026A                      u630 01BB                      u711 0269  
                    u631 01BA                      u720 028B                      u640 01D5  
                    u560 0119                      u721 028A                      u641 01D4  
                    u561 0118                      u730 02B0                      u650 01E2  
                    u570 0128                      u731 02AF                      u651 01E1  
                    u571 0127                      u660 01F9                      u580 0150  
                    u725 0287                      u661 01F8                      u581 014F  
                    u670 0215                      u590 015A                      u671 0214  
                    u591 0159                      u680 0220                      u681 021F  
                    u665 01F5                      u745 053E                      u690 0252  
                    u930 04B2                      u691 0251                      u931 04B1  
                    u940 04C3                      u941 04C2                      u950 04D9  
                    u951 04D8                      u960 04E3                      u961 04E2  
                    u970 04E9                      u971 04E8                      u980 04F3  
                    u981 04F2                      u990 0511                      u991 0510  
                    u995 050D                      _isr 0004                      wreg 0009  
        __end_of_DEC_SET 0592                     l1401 0128                     l1411 0145  
                   l1403 0132                     l1501 0240                     l1421 016A  
                   l1413 014A                     l1511 026A                     l1503 0247  
                   l1431 0194                     l1423 017A                     l1415 0151  
                   l1407 013A                     l1521 029E                     l1513 028B  
                   l1505 024C                     l1441 01AB                     l1433 019B  
                   l1425 017E                     l1417 015A                     l1409 013E  
                   l1523 02A5                     l1515 0294                     l1507 0254  
                   l1451 01C6                     l1435 01A5                     l1443 01AC  
                   l1427 0187                     l1419 0165                     l1525 02AA  
                   l1509 025D                     l1461 01CC                     l1453 01C7  
                   l1445 01B1                     l1437 01A7                     l1429 018B  
                   l1541 0519                     l1519 029A                     l1463 01D5  
                   l1471 0207                     l1455 01C8                     l1447 01B5  
                   l1439 01A9                     l1481 0227                     l1473 020B  
                   l1465 01E2                     l1457 01C9                     l1449 01BB  
                   l1529 02B2                     l1393 010C                     l1561 052D  
                   l1553 0524                     l1537 0514                     l1491 0238  
                   l1483 0231                     l1475 020F                     l1467 01F9  
                   l1395 010D                     l1539 0515                     l1731 0488  
                   l1493 0239                     l1485 0233                     l1477 0217  
                   l1469 0202                     l1397 0110                     l1549 0520  
                   l1741 0495                     l1733 048B                     l1725 047E  
                   l1495 023A                     l1487 0235                     l1479 0220  
                   l1399 0119                     l1559 0529                     l1575 0539  
                   l1751 04A3                     l1743 0498                     l1735 048D  
                   l1727 0481                     l1489 0237                     l1569 0535  
                   l1761 04B7                     l1753 04A6                     l1745 049B  
                   l1737 0490                     l1729 0483                     l1499 023C  
                   l1771 04D3                     l1763 04BD                     l1755 04AA  
                   l1747 049D                     l1739 0493                     l1781 04F3  
                   l1773 04D9                     l1765 04C3                     l1757 04AD  
                   l1749 04A0                     l1783 04F7                     l1775 04E3  
                   l1767 04C6                     l1759 04B2                     l1961 0549  
                   l1785 04FB                     l1777 04E9                     l1769 04CF  
                   l1963 02BA                     l1787 04FF                     l1779 04ED  
                   l1789 0502                     ?_isr 0070                     _DATA 0079  
                   _PIE1 0091                     _PIE2 0092                     _PIR1 0011  
                   _TMR1 0016                     _STCR 0049                     _main 047E  
                   fsr0h 0005                     fsr1h 0007                     fsr0l 0004  
                   indf1 0001                     fsr1l 0006                     btemp 007E  
        __end_of_PWM_SET 0590         __end_of_DCC_ADRS 058F                     start 00F8  
     EEPROM_SELECT@COUNT 0044                    ??_isr 0075         __end_of_FUNC_SET 0591  
                  ?_main 0070                    _EEADR 0191                    _EEDAT 0193  
                  _T1CON 0018                    _T2CON 001C                    _IOCAF 0393  
                  _IOCAP 0391                    i1l111 00CC                    i1l103 00CD  
                  i1l104 0053                    i1l202 045E                    i1l130 00F6  
                  i1l124 00D9                    i1l181 0386                    i1l173 0325  
                  i1l165 02E6                    i1l184 0399                    i1l176 0341  
                  i1l168 047D                    i1l193 0407                    i1l177 0343  
                  i1l197 041B                    i1l189 03CC                    _STACK 00A0  
                  _PORTA 000C                    u80_20 0341                    u80_21 0340  
                  u81_20 0351                    u81_21 0350                    _TRISA 008C  
                  u90_20 041F                    u82_20 0376                    u90_21 041E  
                  u82_21 0375                    u91_20 0439                    u83_20 0390  
                  u75_20 02DB                    u91_21 0438                    u83_21 038F  
                  u75_21 02DA                    u91_25 0435                    u92_20 045E  
                  u84_20 039D                    u76_20 02EA                    u92_21 045D  
                  u84_21 039C                    u76_21 02E9                    u85_20 03AF  
                  u77_20 030F                    u85_21 03AE                    u77_21 030E  
                  u85_25 03AB                    u86_20 03CC                    u78_20 0319  
                  u86_21 03CB                    u78_21 0318                    u87_20 03D7  
                  u79_20 0329                    u87_21 03D6                    u79_21 0328  
                  u88_20 0407                    u88_21 0406                    u89_20 0412  
                  u89_21 0411                    status 0003                    wtemp0 007E  
  __end_of_EEPROM_SELECT 02CF          __initialization 00F9             __end_of_main 0514  
              ??_DEC_SET 0040                   ??_main 0045                   _CCPR1L 0291  
                 _EECON1 0195                   _EECON2 0196                ??_PWM_SET 0040  
                 _APFCON 011D                   _ANSELA 018C         ??_PACKET_CONTROL 0040  
                 u100_20 000A                   u100_21 0009                   u101_20 0018  
                 u101_21 0017                   u110_20 0066                   u102_20 0021  
                 u110_21 0065                   u102_21 0020                   u111_20 006F  
                 u103_20 002A                   u111_21 006E                   u103_21 0029  
                 u120_20 00DD                   u112_20 0073                   u104_20 002E  
                 i1l1601 0309                   u120_21 00DC                   u112_21 0072  
                 u104_21 002D                   i1l1611 0336                   i1l1603 0310  
                 i1l1701 0439                   i1l1621 0358                   i1l1613 033B  
                 i1l1605 0319                   i1l1711 0453                   i1l1703 0442  
                 i1l1623 0360                   i1l1631 0367                   i1l1615 0344  
                 i1l1607 0324                   u121_20 00E4                   u113_20 007F  
                 u105_20 003C                   i1l1713 0458                   i1l1641 0382  
                 i1l1633 036B                   i1l1625 0362                   i1l1617 0348  
                 i1l1609 0329                   u121_21 00E3                   u113_21 007E  
                 u105_21 003B                   i1l1801 0011                   i1l1707 0448  
                 i1l1651 0390                   i1l1643 0383                   i1l1635 0370  
                 i1l1627 0364                   i1l1619 0351                   i1l1811 002E  
                 i1l1803 0013                   i1l1709 044C                   i1l1661 03C1  
                 i1l1653 039D                   i1l1645 0384                   i1l1637 0376  
                 i1l1629 0366                   i1l1717 0460                   i1l1581 02CF  
                 i1l1821 0050                   i1l1813 0033                   i1l1805 0018  
                 i1l1671 03E6                   i1l1663 03C6                   i1l1655 03AF  
                 i1l1639 0381                   i1l1591 02F2                   i1l1583 02D0  
                 i1l1831 006F                   i1l1823 0051                   i1l1815 003C  
                 i1l1807 0021                   u122_20 00EF                   u114_20 0083  
                 u106_20 0040                   i1l1681 03EE                   i1l1673 03E8  
                 i1l1665 03CE                   i1l1657 03B8                   i1l1649 0387  
                 i1l1585 02D2                   u122_21 00EE                   u114_21 0082  
                 i1l1833 0073                   i1l1841 0089                   i1l1825 0057  
                 u106_21 003F                   i1l1817 0040                   i1l1809 002A  
                 i1l1691 03FC                   i1l1683 03EF                   i1l1675 03EA  
                 i1l1667 03D7                   i1l1659 03BD                   i1l1587 02DB  
                 i1l1595 02F9                   i1l1851 00AC                   i1l1843 0092  
                 i1l1835 0076                   i1l1827 005D                   i1l1819 0046  
                 i1l1693 0401                   i1l1677 03EC                   i1l1669 03DE  
                 i1l1597 02FD                   i1l1589 02EA                   i1l1861 00C6  
                 i1l1845 009B                   i1l1853 00B2                   i1l1837 007F  
                 i1l1829 0066                   i1l1695 0409                   i1l1679 03ED  
                 i1l1687 03F1                   i1l1599 0304                   i1l1871 00DE  
                 i1l1855 00B8                   i1l1863 00CA                   i1l1847 009F  
                 i1l1839 0083                   u115_20 0092                   u107_20 0046  
                 i1l1697 0412                   i1l1689 03F5                   i1l1873 00E4  
                 i1l1865 00D2                   i1l1857 00B9                   i1l1849 00A7  
                 u115_21 0091                   u107_21 0045                   i1l1793 0006  
                 i1l1699 041F                   i1l1875 00E9                   i1l1867 00D3  
                 i1l1859 00C1                   i1l1795 0006                   i1l1965 0469  
                 i1l1877 00EF                   i1l1869 00DD                   i1l1797 000A  
                 i1l1879 00F3                   i1l1799 000F                   u116_20 009B  
                 u108_20 0057                   u116_21 009A                   u108_21 0056  
                 u117_20 009F                   u109_20 005D                   u117_21 009E  
                 u109_21 005C                   u118_20 00B8                   u118_21 00B7  
                 u119_20 00D2                   u119_21 00D1                   _INTCON 000B  
                 _OSCCON 0099   i1EEPROM_SELECT@EE_SAVE 0072             ??_CONFIG_SET 0040  
__end_of__initialization 0109                ?_FUNC_SET 0070           __pcstackCOMMON 0070  
     __end_of_CONFIG_SET 0593             __pidataBANK0 0564     EEPROM_SELECT@EE_SAVE 0042  
             __pbssBANK0 0049               ??_FUNC_SET 0040               __pmaintext 047E  
             __pintentry 0004                  _CCP1CON 0293                  _DEC_SET 0591  
                _COUNTER 0078                  _PWM_SET 058F                  __ptext1 0514  
                __ptext2 058F                  __ptext3 0590                  __ptext4 0591  
                __ptext5 0592                  __ptext6 010C                  __ptext8 02CF  
                main@CKS 0048     end_of_initialization 0109                  init_ram 0584  
                initloop 0585        ??i1_EEPROM_SELECT 0070      start_initialization 00F9  
            __end_of_isr 00F8            _EEPROM_SELECT 010C              __pdataBANK0 0020  
               ?_DEC_SET 0070              __pbssCOMMON 0078                ___latbits 0000  
          __pcstackBANK0 0040                 ?_PWM_SET 0070           ?_EEPROM_SELECT 0070  
               _DCC_ADRS 058A                 _COM_FLAG 004A                 _EE_STORE 0030  
               _FUNC_SET 0590                 _PIR1bits 0011                 _PIR2bits 0012  
               _PKT_FUNC 0020                 _PSTR1CON 0296          i1_EEPROM_SELECT 02CF  
              main@count 0047          ??_EEPROM_SELECT 0040               _EECON1bits 0195  
         _PACKET_CONTROL 0514     i1EEPROM_SELECT@COUNT 0074               _CONFIG_SET 0592  
 __end_of_PACKET_CONTROL 0564  __end_ofi1_EEPROM_SELECT 047E                 int$flags 007E  
               isr@COUNT 0076               _INTCONbits 000B                 intlevel1 0000  
        ?_PACKET_CONTROL 0070            __pstringtext1 058A              ?_CONFIG_SET 0070  
       ?i1_EEPROM_SELECT 0070  
