

Microchip MPLAB XC8 Assembler V2.40 build 20220703182018 
                                                                                               Thu Dec 14 21:50:22 2023

Microchip MPLAB XC8 C Compiler v2.40 (Free license) build 20220703182018 Og1 
     1                           	processor	12F1822
     2                           	pagewidth 120
     3                           	opt	flic
     4                           	psect	idataBANK0,global,class=CODE,delta=2,noexec
     5                           	psect	stringtext1,global,class=STRCODE,delta=2,noexec
     6                           	psect	stringtext2,global,class=STRCODE,delta=2,noexec
     7                           	psect	cinit,global,class=CODE,merge=1,delta=2
     8                           	psect	bssCOMMON,global,class=COMMON,space=1,delta=1,noexec
     9                           	psect	bssBANK0,global,class=BANK0,space=1,delta=1,noexec
    10                           	psect	dataBANK0,global,class=BANK0,space=1,delta=1,noexec
    11                           	psect	inittext,global,class=CODE,delta=2
    12                           	psect	cstackCOMMON,global,class=COMMON,space=1,delta=1,noexec
    13                           	psect	cstackBANK0,global,class=BANK0,space=1,delta=1,noexec
    14                           	psect	maintext,global,class=CODE,merge=1,split=1,delta=2
    15                           	psect	text1,local,class=CODE,merge=1,delta=2
    16                           	psect	text2,local,class=CODE,merge=1,delta=2
    17                           	psect	text3,local,class=CODE,merge=1,delta=2
    18                           	psect	text4,local,class=CODE,merge=1,delta=2
    19                           	psect	intentry,global,class=CODE,delta=2
    20                           	psect	text6,local,class=CODE,merge=1,delta=2
    21                           	psect	idloc,global,abs,ovrld,class=IDLOC,space=5,delta=2,noexec
    22                           	psect	config,global,abs,ovrld,class=CONFIG,space=4,delta=2,noexec
    23                           	dabs	1,0xA0,32,_STACK
    24                           	dabs	1,0x7E,2
    25     0000                     
    26                           ; Version 2.40
    27                           ; Generated 17/11/2021 GMT
    28                           ; 
    29                           ; Copyright © 2021, Microchip Technology Inc. and its subsidiaries ("Microchip")
    30                           ; All rights reserved.
    31                           ; 
    32                           ; This software is developed by Microchip Technology Inc. and its subsidiaries ("Microch
      +                          ip").
    33                           ; 
    34                           ; Redistribution and use in source and binary forms, with or without modification, are
    35                           ; permitted provided that the following conditions are met:
    36                           ; 
    37                           ;     1. Redistributions of source code must retain the above copyright notice, this lis
      +                          t of
    38                           ;        conditions and the following disclaimer.
    39                           ; 
    40                           ;     2. Redistributions in binary form must reproduce the above copyright notice, this 
      +                          list
    41                           ;        of conditions and the following disclaimer in the documentation and/or other
    42                           ;        materials provided with the distribution. Publication is not required when
    43                           ;        this file is used in an embedded application.
    44                           ; 
    45                           ;     3. Microchip's name may not be used to endorse or promote products derived from th
      +                          is
    46                           ;        software without specific prior written permission.
    47                           ; 
    48                           ; THIS SOFTWARE IS PROVIDED BY MICROCHIP "AS IS" AND ANY EXPRESS OR IMPLIED WARRANTIES,
    49                           ; INCLUDING, BUT NOT LIMITED TO, THE IMPLIED WARRANTIES OF MERCHANTABILITY AND FITNESS F
      +                          OR
    50                           ; PURPOSE ARE DISCLAIMED.  IN NO EVENT SHALL MICROCHIP BE LIABLE FOR ANY DIRECT, INDIREC
      +                          T,
    51                           ; INCIDENTAL, SPECIAL, EXEMPLARY, OR CONSEQUENTIAL DAMAGES (INCLUDING BUT NOT LIMITED TO
    52                           ; PROCUREMENT OF SUBSTITUTE GOODS OR SERVICES; LOSS OF USE, DATA OR PROFITS; OR BUSINESS
    53                           ; INTERRUPTION) HOWSOEVER CAUSED AND ON ANY THEORY OF LIABILITY, WHETHER IN CONTRACT, ST
      +                          RICT
    54                           ; LIABILITY, OR TORT (INCLUDING NEGLIGENCE OR OTHERWISE) ARISING IN ANY WAY OUT OF THE U
      +                          SE OF
    55                           ; THIS SOFTWARE, EVEN IF ADVISED OF THE POSSIBILITY OF SUCH DAMAGE.
    56                           ; 
    57                           ; 
    58                           ; Code-generator required, PIC12F1822 Definitions
    59                           ; 
    60                           ; SFR Addresses
    61     0000                     	;# 
    62     0001                     	;# 
    63     0002                     	;# 
    64     0003                     	;# 
    65     0004                     	;# 
    66     0005                     	;# 
    67     0006                     	;# 
    68     0007                     	;# 
    69     0008                     	;# 
    70     0009                     	;# 
    71     000A                     	;# 
    72     000B                     	;# 
    73     000C                     	;# 
    74     0011                     	;# 
    75     0012                     	;# 
    76     0015                     	;# 
    77     0016                     	;# 
    78     0016                     	;# 
    79     0017                     	;# 
    80     0018                     	;# 
    81     0019                     	;# 
    82     001A                     	;# 
    83     001B                     	;# 
    84     001C                     	;# 
    85     001E                     	;# 
    86     001F                     	;# 
    87     008C                     	;# 
    88     0091                     	;# 
    89     0092                     	;# 
    90     0095                     	;# 
    91     0096                     	;# 
    92     0097                     	;# 
    93     0098                     	;# 
    94     0099                     	;# 
    95     009A                     	;# 
    96     009B                     	;# 
    97     009B                     	;# 
    98     009C                     	;# 
    99     009D                     	;# 
   100     009E                     	;# 
   101     010C                     	;# 
   102     0111                     	;# 
   103     0112                     	;# 
   104     0115                     	;# 
   105     0116                     	;# 
   106     0117                     	;# 
   107     0118                     	;# 
   108     0119                     	;# 
   109     011A                     	;# 
   110     011B                     	;# 
   111     011D                     	;# 
   112     011D                     	;# 
   113     018C                     	;# 
   114     0191                     	;# 
   115     0191                     	;# 
   116     0192                     	;# 
   117     0193                     	;# 
   118     0193                     	;# 
   119     0193                     	;# 
   120     0194                     	;# 
   121     0195                     	;# 
   122     0196                     	;# 
   123     0199                     	;# 
   124     019A                     	;# 
   125     019B                     	;# 
   126     019B                     	;# 
   127     019B                     	;# 
   128     019B                     	;# 
   129     019C                     	;# 
   130     019C                     	;# 
   131     019D                     	;# 
   132     019E                     	;# 
   133     019F                     	;# 
   134     020C                     	;# 
   135     0211                     	;# 
   136     0211                     	;# 
   137     0212                     	;# 
   138     0212                     	;# 
   139     0213                     	;# 
   140     0213                     	;# 
   141     0214                     	;# 
   142     0214                     	;# 
   143     0215                     	;# 
   144     0215                     	;# 
   145     0215                     	;# 
   146     0216                     	;# 
   147     0216                     	;# 
   148     0217                     	;# 
   149     0217                     	;# 
   150     0291                     	;# 
   151     0291                     	;# 
   152     0292                     	;# 
   153     0293                     	;# 
   154     0294                     	;# 
   155     0295                     	;# 
   156     0295                     	;# 
   157     0296                     	;# 
   158     0391                     	;# 
   159     0392                     	;# 
   160     0393                     	;# 
   161     039A                     	;# 
   162     039C                     	;# 
   163     039D                     	;# 
   164     039E                     	;# 
   165     039F                     	;# 
   166     0FE4                     	;# 
   167     0FE5                     	;# 
   168     0FE6                     	;# 
   169     0FE7                     	;# 
   170     0FE8                     	;# 
   171     0FE9                     	;# 
   172     0FEA                     	;# 
   173     0FEB                     	;# 
   174     0FED                     	;# 
   175     0FEE                     	;# 
   176     0FEF                     	;# 
   177     0000                     	;# 
   178     0001                     	;# 
   179     0002                     	;# 
   180     0003                     	;# 
   181     0004                     	;# 
   182     0005                     	;# 
   183     0006                     	;# 
   184     0007                     	;# 
   185     0008                     	;# 
   186     0009                     	;# 
   187     000A                     	;# 
   188     000B                     	;# 
   189     000C                     	;# 
   190     0011                     	;# 
   191     0012                     	;# 
   192     0015                     	;# 
   193     0016                     	;# 
   194     0016                     	;# 
   195     0017                     	;# 
   196     0018                     	;# 
   197     0019                     	;# 
   198     001A                     	;# 
   199     001B                     	;# 
   200     001C                     	;# 
   201     001E                     	;# 
   202     001F                     	;# 
   203     008C                     	;# 
   204     0091                     	;# 
   205     0092                     	;# 
   206     0095                     	;# 
   207     0096                     	;# 
   208     0097                     	;# 
   209     0098                     	;# 
   210     0099                     	;# 
   211     009A                     	;# 
   212     009B                     	;# 
   213     009B                     	;# 
   214     009C                     	;# 
   215     009D                     	;# 
   216     009E                     	;# 
   217     010C                     	;# 
   218     0111                     	;# 
   219     0112                     	;# 
   220     0115                     	;# 
   221     0116                     	;# 
   222     0117                     	;# 
   223     0118                     	;# 
   224     0119                     	;# 
   225     011A                     	;# 
   226     011B                     	;# 
   227     011D                     	;# 
   228     011D                     	;# 
   229     018C                     	;# 
   230     0191                     	;# 
   231     0191                     	;# 
   232     0192                     	;# 
   233     0193                     	;# 
   234     0193                     	;# 
   235     0193                     	;# 
   236     0194                     	;# 
   237     0195                     	;# 
   238     0196                     	;# 
   239     0199                     	;# 
   240     019A                     	;# 
   241     019B                     	;# 
   242     019B                     	;# 
   243     019B                     	;# 
   244     019B                     	;# 
   245     019C                     	;# 
   246     019C                     	;# 
   247     019D                     	;# 
   248     019E                     	;# 
   249     019F                     	;# 
   250     020C                     	;# 
   251     0211                     	;# 
   252     0211                     	;# 
   253     0212                     	;# 
   254     0212                     	;# 
   255     0213                     	;# 
   256     0213                     	;# 
   257     0214                     	;# 
   258     0214                     	;# 
   259     0215                     	;# 
   260     0215                     	;# 
   261     0215                     	;# 
   262     0216                     	;# 
   263     0216                     	;# 
   264     0217                     	;# 
   265     0217                     	;# 
   266     0291                     	;# 
   267     0291                     	;# 
   268     0292                     	;# 
   269     0293                     	;# 
   270     0294                     	;# 
   271     0295                     	;# 
   272     0295                     	;# 
   273     0296                     	;# 
   274     0391                     	;# 
   275     0392                     	;# 
   276     0393                     	;# 
   277     039A                     	;# 
   278     039C                     	;# 
   279     039D                     	;# 
   280     039E                     	;# 
   281     039F                     	;# 
   282     0FE4                     	;# 
   283     0FE5                     	;# 
   284     0FE6                     	;# 
   285     0FE7                     	;# 
   286     0FE8                     	;# 
   287     0FE9                     	;# 
   288     0FEA                     	;# 
   289     0FEB                     	;# 
   290     0FED                     	;# 
   291     0FEE                     	;# 
   292     0FEF                     	;# 
   293     0000                     	;# 
   294     0001                     	;# 
   295     0002                     	;# 
   296     0003                     	;# 
   297     0004                     	;# 
   298     0005                     	;# 
   299     0006                     	;# 
   300     0007                     	;# 
   301     0008                     	;# 
   302     0009                     	;# 
   303     000A                     	;# 
   304     000B                     	;# 
   305     000C                     	;# 
   306     0011                     	;# 
   307     0012                     	;# 
   308     0015                     	;# 
   309     0016                     	;# 
   310     0016                     	;# 
   311     0017                     	;# 
   312     0018                     	;# 
   313     0019                     	;# 
   314     001A                     	;# 
   315     001B                     	;# 
   316     001C                     	;# 
   317     001E                     	;# 
   318     001F                     	;# 
   319     008C                     	;# 
   320     0091                     	;# 
   321     0092                     	;# 
   322     0095                     	;# 
   323     0096                     	;# 
   324     0097                     	;# 
   325     0098                     	;# 
   326     0099                     	;# 
   327     009A                     	;# 
   328     009B                     	;# 
   329     009B                     	;# 
   330     009C                     	;# 
   331     009D                     	;# 
   332     009E                     	;# 
   333     010C                     	;# 
   334     0111                     	;# 
   335     0112                     	;# 
   336     0115                     	;# 
   337     0116                     	;# 
   338     0117                     	;# 
   339     0118                     	;# 
   340     0119                     	;# 
   341     011A                     	;# 
   342     011B                     	;# 
   343     011D                     	;# 
   344     011D                     	;# 
   345     018C                     	;# 
   346     0191                     	;# 
   347     0191                     	;# 
   348     0192                     	;# 
   349     0193                     	;# 
   350     0193                     	;# 
   351     0193                     	;# 
   352     0194                     	;# 
   353     0195                     	;# 
   354     0196                     	;# 
   355     0199                     	;# 
   356     019A                     	;# 
   357     019B                     	;# 
   358     019B                     	;# 
   359     019B                     	;# 
   360     019B                     	;# 
   361     019C                     	;# 
   362     019C                     	;# 
   363     019D                     	;# 
   364     019E                     	;# 
   365     019F                     	;# 
   366     020C                     	;# 
   367     0211                     	;# 
   368     0211                     	;# 
   369     0212                     	;# 
   370     0212                     	;# 
   371     0213                     	;# 
   372     0213                     	;# 
   373     0214                     	;# 
   374     0214                     	;# 
   375     0215                     	;# 
   376     0215                     	;# 
   377     0215                     	;# 
   378     0216                     	;# 
   379     0216                     	;# 
   380     0217                     	;# 
   381     0217                     	;# 
   382     0291                     	;# 
   383     0291                     	;# 
   384     0292                     	;# 
   385     0293                     	;# 
   386     0294                     	;# 
   387     0295                     	;# 
   388     0295                     	;# 
   389     0296                     	;# 
   390     0391                     	;# 
   391     0392                     	;# 
   392     0393                     	;# 
   393     039A                     	;# 
   394     039C                     	;# 
   395     039D                     	;# 
   396     039E                     	;# 
   397     039F                     	;# 
   398     0FE4                     	;# 
   399     0FE5                     	;# 
   400     0FE6                     	;# 
   401     0FE7                     	;# 
   402     0FE8                     	;# 
   403     0FE9                     	;# 
   404     0FEA                     	;# 
   405     0FEB                     	;# 
   406     0FED                     	;# 
   407     0FEE                     	;# 
   408     0FEF                     	;# 
   409     0000                     	;# 
   410     0001                     	;# 
   411     0002                     	;# 
   412     0003                     	;# 
   413     0004                     	;# 
   414     0005                     	;# 
   415     0006                     	;# 
   416     0007                     	;# 
   417     0008                     	;# 
   418     0009                     	;# 
   419     000A                     	;# 
   420     000B                     	;# 
   421     000C                     	;# 
   422     0011                     	;# 
   423     0012                     	;# 
   424     0015                     	;# 
   425     0016                     	;# 
   426     0016                     	;# 
   427     0017                     	;# 
   428     0018                     	;# 
   429     0019                     	;# 
   430     001A                     	;# 
   431     001B                     	;# 
   432     001C                     	;# 
   433     001E                     	;# 
   434     001F                     	;# 
   435     008C                     	;# 
   436     0091                     	;# 
   437     0092                     	;# 
   438     0095                     	;# 
   439     0096                     	;# 
   440     0097                     	;# 
   441     0098                     	;# 
   442     0099                     	;# 
   443     009A                     	;# 
   444     009B                     	;# 
   445     009B                     	;# 
   446     009C                     	;# 
   447     009D                     	;# 
   448     009E                     	;# 
   449     010C                     	;# 
   450     0111                     	;# 
   451     0112                     	;# 
   452     0115                     	;# 
   453     0116                     	;# 
   454     0117                     	;# 
   455     0118                     	;# 
   456     0119                     	;# 
   457     011A                     	;# 
   458     011B                     	;# 
   459     011D                     	;# 
   460     011D                     	;# 
   461     018C                     	;# 
   462     0191                     	;# 
   463     0191                     	;# 
   464     0192                     	;# 
   465     0193                     	;# 
   466     0193                     	;# 
   467     0193                     	;# 
   468     0194                     	;# 
   469     0195                     	;# 
   470     0196                     	;# 
   471     0199                     	;# 
   472     019A                     	;# 
   473     019B                     	;# 
   474     019B                     	;# 
   475     019B                     	;# 
   476     019B                     	;# 
   477     019C                     	;# 
   478     019C                     	;# 
   479     019D                     	;# 
   480     019E                     	;# 
   481     019F                     	;# 
   482     020C                     	;# 
   483     0211                     	;# 
   484     0211                     	;# 
   485     0212                     	;# 
   486     0212                     	;# 
   487     0213                     	;# 
   488     0213                     	;# 
   489     0214                     	;# 
   490     0214                     	;# 
   491     0215                     	;# 
   492     0215                     	;# 
   493     0215                     	;# 
   494     0216                     	;# 
   495     0216                     	;# 
   496     0217                     	;# 
   497     0217                     	;# 
   498     0291                     	;# 
   499     0291                     	;# 
   500     0292                     	;# 
   501     0293                     	;# 
   502     0294                     	;# 
   503     0295                     	;# 
   504     0295                     	;# 
   505     0296                     	;# 
   506     0391                     	;# 
   507     0392                     	;# 
   508     0393                     	;# 
   509     039A                     	;# 
   510     039C                     	;# 
   511     039D                     	;# 
   512     039E                     	;# 
   513     039F                     	;# 
   514     0FE4                     	;# 
   515     0FE5                     	;# 
   516     0FE6                     	;# 
   517     0FE7                     	;# 
   518     0FE8                     	;# 
   519     0FE9                     	;# 
   520     0FEA                     	;# 
   521     0FEB                     	;# 
   522     0FED                     	;# 
   523     0FEE                     	;# 
   524     0FEF                     	;# 
   525                           
   526                           	psect	idataBANK0
   527     0599                     __pidataBANK0:
   528                           
   529                           ;initializer for _EE_STORE
   530     0599  3406               	retlw	6
   531     059A  34FF               	retlw	255
   532     059B  3400               	retlw	0
   533     059C  3400               	retlw	0
   534     059D  3401               	retlw	1
   535     059E  3400               	retlw	0
   536     059F  34FF               	retlw	255
   537     05A0  340F               	retlw	15
   538     05A1  34FF               	retlw	255
   539     05A2  340F               	retlw	15
   540     05A3  34FF               	retlw	255
   541     05A4  340F               	retlw	15
   542     05A5  34AA               	retlw	170
   543     05A6  3400               	retlw	0
   544     05A7  3400               	retlw	0
   545     05A8  3400               	retlw	0
   546                           
   547                           	psect	stringtext1
   548     0559                     __pstringtext1:
   549     0559                     _PWM_DATA:
   550     0559  3400               	retlw	0
   551     055A  3400               	retlw	0
   552     055B  347F               	retlw	127
   553     055C  3480               	retlw	128
   554     055D  34BF               	retlw	191
   555     055E  34C0               	retlw	192
   556     055F  34E7               	retlw	231
   557     0560  34E8               	retlw	232
   558     0561  34FC               	retlw	252
   559     0562  34FD               	retlw	253
   560     0563  34FE               	retlw	254
   561     0564  34FF               	retlw	255
   562     0565  3400               	retlw	0
   563     0566  3400               	retlw	0
   564     0567  3400               	retlw	0
   565     0568  3400               	retlw	0
   566     0569  3400               	retlw	0
   567     056A  3400               	retlw	0
   568     056B  3400               	retlw	0
   569     056C  3400               	retlw	0
   570     056D  3400               	retlw	0
   571     056E  3400               	retlw	0
   572     056F  3400               	retlw	0
   573     0570  3400               	retlw	0
   574     0571  3400               	retlw	0
   575     0572  3400               	retlw	0
   576     0573  3400               	retlw	0
   577     0574  3400               	retlw	0
   578     0575  3400               	retlw	0
   579     0576  3400               	retlw	0
   580     0577  3400               	retlw	0
   581     0578  3400               	retlw	0
   582     0579  3400               	retlw	0
   583     057A  3400               	retlw	0
   584     057B  3400               	retlw	0
   585     057C  3400               	retlw	0
   586     057D  3400               	retlw	0
   587     057E  3400               	retlw	0
   588     057F  3400               	retlw	0
   589     0580  3400               	retlw	0
   590     0581  3400               	retlw	0
   591     0582  3400               	retlw	0
   592     0583  3400               	retlw	0
   593     0584  3400               	retlw	0
   594     0585  3400               	retlw	0
   595     0586  3400               	retlw	0
   596     0587  3400               	retlw	0
   597     0588  3400               	retlw	0
   598     0589  3400               	retlw	0
   599     058A  3400               	retlw	0
   600     058B  3400               	retlw	0
   601     058C  3400               	retlw	0
   602     058D  3400               	retlw	0
   603     058E  3400               	retlw	0
   604     058F  3400               	retlw	0
   605     0590  3400               	retlw	0
   606     0591  3400               	retlw	0
   607     0592  3400               	retlw	0
   608     0593  3400               	retlw	0
   609     0594  3400               	retlw	0
   610     0595  3400               	retlw	0
   611     0596  3400               	retlw	0
   612     0597  3400               	retlw	0
   613     0598  3400               	retlw	0
   614     0599                     __end_of_PWM_DATA:
   615                           
   616                           	psect	stringtext2
   617     05AF                     __pstringtext2:
   618     05AF                     _DCC_ADRS:
   619     05AF  347F               	retlw	127
   620     05B0  34BF               	retlw	191
   621     05B1  34E7               	retlw	231
   622     05B2  34FC               	retlw	252
   623     05B3  34FE               	retlw	254
   624     05B4                     __end_of_DCC_ADRS:
   625     0016                     _TMR1	set	22
   626     0012                     _PIR2bits	set	18
   627     0011                     _PIR1	set	17
   628     0011                     _PIR1bits	set	17
   629     000B                     _INTCONbits	set	11
   630     001C                     _T2CON	set	28
   631     001B                     _PR2	set	27
   632     0018                     _T1CON	set	24
   633     000B                     _INTCON	set	11
   634     000C                     _PORTA	set	12
   635     0092                     _PIE2	set	146
   636     0091                     _PIE1	set	145
   637     008C                     _TRISA	set	140
   638     0099                     _OSCCON	set	153
   639     011D                     _APFCON	set	285
   640     0193                     _EEDAT	set	403
   641     0191                     _EEADR	set	401
   642     0196                     _EECON2	set	406
   643     0195                     _EECON1bits	set	405
   644     0195                     _EECON1	set	405
   645     018C                     _ANSELA	set	396
   646     0291                     _CCPR1L	set	657
   647     0296                     _PSTR1CON	set	662
   648     0293                     _CCP1CON	set	659
   649     0393                     _IOCAF	set	915
   650     0391                     _IOCAP	set	913
   651                           
   652                           	psect	cinit
   653     00E3                     start_initialization:	
   654                           ; #config settings
   655                           
   656     00E3                     __initialization:
   657                           
   658                           ; Initialize objects allocated to BANK0
   659     00E3  3099               	movlw	low __pidataBANK0
   660     00E4  0084               	movwf	4
   661     00E5  3085               	movlw	(high __pidataBANK0)| (0+128)
   662     00E6  0085               	movwf	5
   663     00E7  304C               	movlw	low __pdataBANK0
   664     00E8  0086               	movwf	6
   665     00E9  3000               	movlw	high __pdataBANK0
   666     00EA  0087               	movwf	7
   667     00EB  3010               	movlw	16
   668     00EC  3185  25A9  3180   	fcall	init_ram
   669                           
   670                           ; Clear objects allocated to COMMON
   671     00EF  01F8               	clrf	__pbssCOMMON& (0+127)
   672     00F0  01F9               	clrf	(__pbssCOMMON+1)& (0+127)
   673                           
   674                           ; Clear objects allocated to BANK0
   675     00F1  01DC               	clrf	__pbssBANK0& (0+127)
   676     00F2  01DD               	clrf	(__pbssBANK0+1)& (0+127)
   677     00F3                     end_of_initialization:	
   678                           ;End of C runtime variable initialization code
   679                           
   680     00F3                     __end_of__initialization:
   681     00F3  107E               	bcf	int$flags,0	;clear compiler interrupt flag (level 1)
   682     00F4  0020               	movlb	0
   683     00F5  2C60               	ljmp	_main	;jump to C main() function
   684                           
   685                           	psect	bssCOMMON
   686     0078                     __pbssCOMMON:
   687     0078                     _COUNTER:
   688     0078                     	ds	1
   689     0079                     _DATA:
   690     0079                     	ds	1
   691                           
   692                           	psect	bssBANK0
   693     005C                     __pbssBANK0:
   694     005C                     _STCR:
   695     005C                     	ds	1
   696     005D                     _COM_FLAG:
   697     005D                     	ds	1
   698                           
   699                           	psect	dataBANK0
   700     004C                     __pdataBANK0:
   701     004C                     _EE_STORE:
   702     004C                     	ds	16
   703                           
   704                           	psect	inittext
   705     05A9                     init_ram:
   706     05A9  00FE               	movwf	btemp
   707     05AA                     initloop:
   708     05AA  0012               	moviw fsr0++
   709     05AB  001E               	movwi fsr1++
   710     05AC  0BFE               	decfsz	btemp,f
   711     05AD  2DAA               	goto	initloop
   712     05AE  3400               	retlw	0
   713                           
   714                           	psect	cstackCOMMON
   715     0070                     __pcstackCOMMON:
   716     0070                     ?_EEPROM_SELECT:
   717     0070                     ?_main:	
   718                           ; 1 bytes @ 0x0
   719                           
   720     0070                     ?_isr:	
   721                           ; 1 bytes @ 0x0
   722                           
   723     0070                     ?i1_EEPROM_SELECT:	
   724                           ; 1 bytes @ 0x0
   725                           
   726     0070                     ??i1_EEPROM_SELECT:	
   727                           ; 1 bytes @ 0x0
   728                           
   729                           
   730                           ; 1 bytes @ 0x0
   731     0070                     	ds	2
   732     0072                     i1EEPROM_SELECT@EE_SAVE:
   733                           
   734                           ; 2 bytes @ 0x2
   735     0072                     	ds	2
   736     0074                     i1EEPROM_SELECT@COUNT:
   737                           
   738                           ; 1 bytes @ 0x4
   739     0074                     	ds	1
   740     0075                     ??_isr:
   741                           
   742                           ; 1 bytes @ 0x5
   743     0075                     	ds	1
   744     0076                     isr@COUNT:
   745                           
   746                           ; 2 bytes @ 0x6
   747     0076                     	ds	2
   748                           
   749                           	psect	cstackBANK0
   750     0020                     __pcstackBANK0:
   751     0020                     ??_EEPROM_SELECT:
   752     0020                     ?_DEC_SET:	
   753                           ; 1 bytes @ 0x0
   754                           
   755     0020                     ?_CONFIG_SET:	
   756                           ; 1 bytes @ 0x0
   757                           
   758     0020                     DEC_SET@P_RANGE:	
   759                           ; 1 bytes @ 0x0
   760                           
   761     0020                     CONFIG_SET@P_RANGE:	
   762                           ; 1 bytes @ 0x0
   763                           
   764                           
   765                           ; 1 bytes @ 0x0
   766     0020                     	ds	1
   767     0021                     ??_DEC_SET:
   768     0021                     ??_CONFIG_SET:	
   769                           ; 1 bytes @ 0x1
   770                           
   771     0021                     DEC_SET@DATA:	
   772                           ; 1 bytes @ 0x1
   773                           
   774     0021                     CONFIG_SET@DATA:	
   775                           ; 1 bytes @ 0x1
   776                           
   777                           
   778                           ; 1 bytes @ 0x1
   779     0021                     	ds	1
   780     0022                     ?_PACKET_CONTROL:
   781     0022                     PACKET_CONTROL@P_RANGE:	
   782                           ; 1 bytes @ 0x2
   783                           
   784     0022                     EEPROM_SELECT@EE_SAVE:	
   785                           ; 1 bytes @ 0x2
   786                           
   787                           
   788                           ; 2 bytes @ 0x2
   789     0022                     	ds	1
   790     0023                     ??_PACKET_CONTROL:
   791                           
   792                           ; 1 bytes @ 0x3
   793     0023                     	ds	1
   794     0024                     EEPROM_SELECT@COUNT:
   795                           
   796                           ; 1 bytes @ 0x4
   797     0024                     	ds	2
   798     0026                     PACKET_CONTROL@DATA:
   799                           
   800                           ; 1 bytes @ 0x6
   801     0026                     	ds	1
   802     0027                     ??_main:
   803                           
   804                           ; 1 bytes @ 0x7
   805     0027                     	ds	2
   806     0029                     main@BYPASS:
   807                           
   808                           ; 32 bytes @ 0x9
   809     0029                     	ds	32
   810     0049                     main@PACKET:
   811                           
   812                           ; 1 bytes @ 0x29
   813     0049                     	ds	1
   814     004A                     main@count:
   815                           
   816                           ; 1 bytes @ 0x2A
   817     004A                     	ds	1
   818     004B                     main@DCC_PACKET_RANGE:
   819                           
   820                           ; 1 bytes @ 0x2B
   821     004B                     	ds	1
   822                           
   823                           	psect	maintext
   824     0460                     __pmaintext:	
   825 ;;
   826 ;;Main: autosize = 0, tempsize = 2, incstack = 0, save=0
   827 ;;
   828 ;; *************** function _main *****************
   829 ;; Defined at:
   830 ;;		line 33 in file "Project_ATCS_Decorder_Main.c"
   831 ;; Parameters:    Size  Location     Type
   832 ;;		None
   833 ;; Auto vars:     Size  Location     Type
   834 ;;  count           1   42[BANK0 ] unsigned char 
   835 ;;  BYPASS         32    9[BANK0 ] unsigned char [32]
   836 ;;  DCC_PACKET_R    1   43[BANK0 ] unsigned char 
   837 ;;  PACKET          1   41[BANK0 ] unsigned char 
   838 ;;  CHECKSUM        1    0        unsigned char 
   839 ;; Return value:  Size  Location     Type
   840 ;;                  1    wreg      void 
   841 ;; Registers used:
   842 ;;		wreg, fsr0l, fsr0h, fsr1l, fsr1h, status,2, status,0, pclath, cstack
   843 ;; Tracked objects:
   844 ;;		On entry : B1F/0
   845 ;;		On exit  : 0/0
   846 ;;		Unchanged: 0/0
   847 ;; Data sizes:     COMMON   BANK0
   848 ;;      Params:         0       0
   849 ;;      Locals:         0      35
   850 ;;      Temps:          0       2
   851 ;;      Totals:         0      37
   852 ;;Total ram usage:       37 bytes
   853 ;; Hardware stack levels required when called: 4
   854 ;; This function calls:
   855 ;;		_EEPROM_SELECT
   856 ;;		_PACKET_CONTROL
   857 ;; This function is called by:
   858 ;;		Startup code after reset
   859 ;; This function uses a non-reentrant model
   860 ;;
   861                           
   862     0460                     _main:	
   863                           ;psect for function _main
   864                           
   865     0460                     l1684:	
   866                           ;incstack = 0
   867                           ; Regs used in _main: [wreg-fsr1h+status,2+status,0+pclath+cstack]
   868                           
   869                           
   870                           ;Project_ATCS_Decorder_Main.c: 35:     OSCCON = 0x72;
   871     0460  3072               	movlw	114
   872     0461  0021               	movlb	1	; select bank1
   873     0462  0099               	movwf	25	;volatile
   874     0463                     l1686:
   875                           
   876                           ;Project_ATCS_Decorder_Main.c: 36:     ANSELA = 0x00;
   877     0463  0023               	movlb	3	; select bank3
   878     0464  018C               	clrf	12	;volatile
   879     0465                     l1688:
   880                           
   881                           ;Project_ATCS_Decorder_Main.c: 38:     TRISA = 0x04;
   882     0465  3004               	movlw	4
   883     0466  0021               	movlb	1	; select bank1
   884     0467  008C               	movwf	12	;volatile
   885                           
   886                           ;Project_ATCS_Decorder_Main.c: 39:     PORTA = 0x00;
   887     0468  0020               	movlb	0	; select bank0
   888     0469  018C               	clrf	12	;volatile
   889     046A                     l1690:
   890                           
   891                           ;Project_ATCS_Decorder_Main.c: 41:     APFCON = 0x03;
   892     046A  3003               	movlw	3
   893     046B  0022               	movlb	2	; select bank2
   894     046C  009D               	movwf	29	;volatile
   895     046D                     l1692:
   896                           
   897                           ;Project_ATCS_Decorder_Main.c: 43:     INTCON = 0xC8;
   898     046D  30C8               	movlw	200
   899     046E  008B               	movwf	11	;volatile
   900     046F                     l1694:
   901                           
   902                           ;Project_ATCS_Decorder_Main.c: 44:     IOCAP = 0x04;
   903     046F  3004               	movlw	4
   904     0470  0027               	movlb	7	; select bank7
   905     0471  0091               	movwf	17	;volatile
   906     0472                     l1696:
   907                           
   908                           ;Project_ATCS_Decorder_Main.c: 45:     PIE1 = 0x81;
   909     0472  3081               	movlw	129
   910     0473  0021               	movlb	1	; select bank1
   911     0474  0091               	movwf	17	;volatile
   912     0475                     l1698:
   913                           
   914                           ;Project_ATCS_Decorder_Main.c: 46:     PIE2 = 0x10;
   915     0475  3010               	movlw	16
   916     0476  0092               	movwf	18	;volatile
   917     0477                     l1700:
   918                           
   919                           ;Project_ATCS_Decorder_Main.c: 47:     T1CON = 0x01;
   920     0477  3001               	movlw	1
   921     0478  0020               	movlb	0	; select bank0
   922     0479  0098               	movwf	24	;volatile
   923     047A                     l1702:
   924                           
   925                           ;Project_ATCS_Decorder_Main.c: 49:     CCP1CON = 0x0F;
   926     047A  300F               	movlw	15
   927     047B  0025               	movlb	5	; select bank5
   928     047C  0093               	movwf	19	;volatile
   929     047D                     l1704:
   930                           
   931                           ;Project_ATCS_Decorder_Main.c: 50:     PSTR1CON = 0x01;
   932     047D  3001               	movlw	1
   933     047E  0096               	movwf	22	;volatile
   934     047F                     l1706:
   935                           
   936                           ;Project_ATCS_Decorder_Main.c: 51:     PR2 = 0x19;
   937     047F  3019               	movlw	25
   938     0480  0020               	movlb	0	; select bank0
   939     0481  009B               	movwf	27	;volatile
   940     0482                     l1708:
   941                           
   942                           ;Project_ATCS_Decorder_Main.c: 52:     CCPR1L = 0x00;
   943     0482  0025               	movlb	5	; select bank5
   944     0483  0191               	clrf	17	;volatile
   945                           
   946                           ;Project_ATCS_Decorder_Main.c: 53:     T2CON = 0x04;
   947     0484  3004               	movlw	4
   948     0485  0020               	movlb	0	; select bank0
   949     0486  009C               	movwf	28	;volatile
   950                           
   951                           ;Project_ATCS_Decorder_Main.c: 55:     EE_STORE.EE_STATE = EE_WRITE_UID;
   952     0487  3002               	movlw	2
   953     0488  00CC               	movwf	_EE_STORE
   954     0489                     l1710:
   955                           
   956                           ;Project_ATCS_Decorder_Main.c: 56:     EEPROM_SELECT();
   957     0489  3180  20F6  3184   	fcall	_EEPROM_SELECT
   958     048C                     l1712:
   959                           
   960                           ;Project_ATCS_Decorder_Main.c: 60:         if(COM_FLAG & 0x04){
   961     048C  0020               	movlb	0	; select bank0
   962     048D  1D5D               	btfss	_COM_FLAG,2
   963     048E  2C90               	goto	u961
   964     048F  2C91               	goto	u960
   965     0490                     u961:
   966     0490  2C8C               	goto	l1712
   967     0491                     u960:
   968     0491                     l1714:
   969     0491                     l1716:
   970                           
   971                           ;Project_ATCS_Decorder_Main.c: 62:             UnCHR DCC_PACKET_RANGE = STCR;
   972     0491  085C               	movf	_STCR,w
   973     0492  00CB               	movwf	main@DCC_PACKET_RANGE
   974     0493                     l1718:
   975                           
   976                           ;Project_ATCS_Decorder_Main.c: 63:             UnCHR BYPASS[32];;Project_ATCS_Decorder_M
      +                          ain.c: 64:             UnCHR PACKET = STACK[0];
   977     0493  0021               	movlb	1	; select bank1
   978     0494  0820               	movf	32,w
   979     0495  0020               	movlb	0	; select bank0
   980     0496  00C9               	movwf	main@PACKET
   981     0497                     l1720:
   982                           
   983                           ;Project_ATCS_Decorder_Main.c: 66:             COM_FLAG = COM_FLAG & 0xFB;
   984     0497  085D               	movf	_COM_FLAG,w
   985     0498  39FB               	andlw	251
   986     0499  00DD               	movwf	_COM_FLAG
   987     049A                     l1722:
   988                           
   989                           ;Project_ATCS_Decorder_Main.c: 68:                 STCR--;
   990     049A  3001               	movlw	1
   991     049B  02DC               	subwf	_STCR,f
   992     049C                     l1724:
   993                           
   994                           ;Project_ATCS_Decorder_Main.c: 69:                 BYPASS[STCR] = STACK[STCR];
   995     049C  085C               	movf	_STCR,w
   996     049D  3E29               	addlw	(low (main@BYPASS| 0))& (0+255)
   997     049E  0086               	movwf	6
   998     049F  0187               	clrf	7
   999     04A0  085C               	movf	_STCR,w
  1000     04A1  3EA0               	addlw	160
  1001     04A2  0084               	movwf	4
  1002     04A3  0185               	clrf	5
  1003     04A4  0800               	movf	0,w
  1004     04A5  0081               	movwf	1
  1005     04A6                     l1726:
  1006                           
  1007                           ;Project_ATCS_Decorder_Main.c: 70:             }while(STCR);
  1008     04A6  085C               	movf	_STCR,w
  1009     04A7  1D03               	btfss	3,2
  1010     04A8  2CAA               	goto	u971
  1011     04A9  2CAB               	goto	u970
  1012     04AA                     u971:
  1013     04AA  2C9A               	goto	l1722
  1014     04AB                     u970:
  1015     04AB                     l1728:
  1016                           
  1017                           ;Project_ATCS_Decorder_Main.c: 72:             if(DCC_PACKET_RANGE < 7){
  1018     04AB  3007               	movlw	7
  1019     04AC  024B               	subwf	main@DCC_PACKET_RANGE,w
  1020     04AD  1803               	skipnc
  1021     04AE  2CB0               	goto	u981
  1022     04AF  2CB1               	goto	u980
  1023     04B0                     u981:
  1024     04B0  2C8C               	goto	l1712
  1025     04B1                     u980:
  1026     04B1                     l1730:
  1027     04B1  30A0               	movlw	160
  1028     04B2  0086               	movwf	6
  1029     04B3  3000               	movlw	0
  1030     04B4  0087               	movwf	7
  1031     04B5                     l1732:
  1032                           
  1033                           ;Project_ATCS_Decorder_Main.c: 74:                 for(UnCHR count = 1 ;count < DCC_PACK
      +                          ET_RANGE;count++){
  1034     04B5  01CA               	clrf	main@count
  1035     04B6  0ACA               	incf	main@count,f
  1036     04B7  2CC3               	goto	l1738
  1037     04B8                     l1734:
  1038                           
  1039                           ;Project_ATCS_Decorder_Main.c: 75:                     PACKET = PACKET ^ BYPASS[count];
  1040     04B8  084A               	movf	main@count,w
  1041     04B9  3E29               	addlw	(low (main@BYPASS| 0))& (0+255)
  1042     04BA  0086               	movwf	6
  1043     04BB  0187               	clrf	7
  1044     04BC  0801               	movf	1,w
  1045     04BD  0649               	xorwf	main@PACKET,w
  1046     04BE  00C9               	movwf	main@PACKET
  1047     04BF                     l1736:
  1048                           
  1049                           ;Project_ATCS_Decorder_Main.c: 76:                 }
  1050     04BF  3001               	movlw	1
  1051     04C0  00A7               	movwf	??_main
  1052     04C1  0827               	movf	??_main,w
  1053     04C2  07CA               	addwf	main@count,f
  1054     04C3                     l1738:
  1055     04C3  084B               	movf	main@DCC_PACKET_RANGE,w
  1056     04C4  024A               	subwf	main@count,w
  1057     04C5  1C03               	skipc
  1058     04C6  2CC8               	goto	u991
  1059     04C7  2CC9               	goto	u990
  1060     04C8                     u991:
  1061     04C8  2CB8               	goto	l1734
  1062     04C9                     u990:
  1063     04C9                     l1740:
  1064                           
  1065                           ;Project_ATCS_Decorder_Main.c: 78:                 if(PACKET == STACK[DCC_PACKET_RANGE])
      +                          {
  1066     04C9  084B               	movf	main@DCC_PACKET_RANGE,w
  1067     04CA  3EA0               	addlw	160
  1068     04CB  0086               	movwf	6
  1069     04CC  0187               	clrf	7
  1070     04CD  0801               	movf	1,w
  1071     04CE  0649               	xorwf	main@PACKET,w
  1072     04CF  1D03               	skipz
  1073     04D0  2CD2               	goto	u1001
  1074     04D1  2CD3               	goto	u1000
  1075     04D2                     u1001:
  1076     04D2  2C8C               	goto	l1712
  1077     04D3                     u1000:
  1078     04D3                     l1742:
  1079                           
  1080                           ;Project_ATCS_Decorder_Main.c: 79:                     if(BYPASS[0] == 0x00){
  1081     04D3  0829               	movf	main@BYPASS,w
  1082     04D4  1D03               	btfss	3,2
  1083     04D5  2CD7               	goto	u1011
  1084     04D6  2CD8               	goto	u1010
  1085     04D7                     u1011:
  1086     04D7  2CDF               	goto	l1746
  1087     04D8                     u1010:
  1088     04D8                     l1744:
  1089                           
  1090                           ;Project_ATCS_Decorder_Main.c: 80:                         PACKET_CONTROL(BYPASS,&DCC_PA
      +                          CKET_RANGE);
  1091     04D8  304B               	movlw	(low (main@DCC_PACKET_RANGE| 0))& (0+255)
  1092     04D9  00A2               	movwf	PACKET_CONTROL@P_RANGE
  1093     04DA  3029               	movlw	(low (main@BYPASS| 0))& (0+255)
  1094     04DB  3185  2506  3184   	fcall	_PACKET_CONTROL
  1095                           
  1096                           ;Project_ATCS_Decorder_Main.c: 81:                     }else if(BYPASS[0] <= 0x7F){
  1097     04DE  2C8C               	goto	l1712
  1098     04DF                     l1746:
  1099     04DF  3080               	movlw	128
  1100     04E0  0229               	subwf	main@BYPASS,w
  1101     04E1  1803               	skipnc
  1102     04E2  2CE4               	goto	u1021
  1103     04E3  2CE5               	goto	u1020
  1104     04E4                     u1021:
  1105     04E4  2C8C               	goto	l1712
  1106     04E5                     u1020:
  1107     04E5                     l1748:
  1108                           
  1109                           ;Project_ATCS_Decorder_Main.c: 82:                         EE_STORE.EE_ADRS = 0x00;
  1110     04E5  01CE               	clrf	_EE_STORE+2
  1111     04E6  01CF               	clrf	_EE_STORE+3
  1112                           
  1113                           ;Project_ATCS_Decorder_Main.c: 83:                         EE_STORE.EE_STATE = EE_READ_S
      +                          ;
  1114     04E7  01CC               	clrf	_EE_STORE
  1115     04E8                     l1750:
  1116                           
  1117                           ;Project_ATCS_Decorder_Main.c: 84:                         EE_STORE.EE_CONFIG = 0x40;
  1118     04E8  3040               	movlw	64
  1119     04E9  00CD               	movwf	_EE_STORE+1
  1120     04EA                     l1752:
  1121                           
  1122                           ;Project_ATCS_Decorder_Main.c: 85:                         EE_STORE.EE_REPORT[0] = 0xAA;
  1123     04EA  30AA               	movlw	170
  1124     04EB  00D8               	movwf	_EE_STORE+12
  1125     04EC                     l1754:
  1126                           
  1127                           ;Project_ATCS_Decorder_Main.c: 86:                         EEPROM_SELECT();
  1128     04EC  3180  20F6  3184   	fcall	_EEPROM_SELECT
  1129     04EF                     l1756:
  1130                           
  1131                           ;Project_ATCS_Decorder_Main.c: 87:                         if(BYPASS[0] == EE_STORE.EE_D
      +                          ATA[0]){
  1132     04EF  0020               	movlb	0	; select bank0
  1133     04F0  0829               	movf	main@BYPASS,w
  1134     04F1  00A7               	movwf	??_main
  1135     04F2  01A8               	clrf	??_main+1
  1136     04F3  0851               	movf	_EE_STORE+5,w
  1137     04F4  0628               	xorwf	??_main+1,w
  1138     04F5  1D03               	skipz
  1139     04F6  2CF9               	goto	u1035
  1140     04F7  0850               	movf	_EE_STORE+4,w
  1141     04F8  0627               	xorwf	??_main,w
  1142     04F9                     u1035:
  1143     04F9  1D03               	skipz
  1144     04FA  2CFC               	goto	u1031
  1145     04FB  2CFD               	goto	u1030
  1146     04FC                     u1031:
  1147     04FC  2D04               	goto	l59
  1148     04FD                     u1030:
  1149     04FD                     l1758:
  1150                           
  1151                           ;Project_ATCS_Decorder_Main.c: 88:                             PACKET_CONTROL(BYPASS,&DC
      +                          C_PACKET_RANGE);
  1152     04FD  304B               	movlw	(low (main@DCC_PACKET_RANGE| 0))& (0+255)
  1153     04FE  00A2               	movwf	PACKET_CONTROL@P_RANGE
  1154     04FF  3029               	movlw	(low (main@BYPASS| 0))& (0+255)
  1155     0500  3185  2506  3184   	fcall	_PACKET_CONTROL
  1156     0503  2C8C               	goto	l1712
  1157     0504                     l59:	
  1158                           ;Project_ATCS_Decorder_Main.c: 91:                 }
  1159                           
  1160     0504  2C8C               	goto	l1712
  1161     0505  28E2               	ljmp	start
  1162     0506                     __end_of_main:
  1163                           
  1164                           	psect	text1
  1165     0506                     __ptext1:	
  1166 ;; *************** function _PACKET_CONTROL *****************
  1167 ;; Defined at:
  1168 ;;		line 138 in file "Project_ATCS_Decorder_Module.c"
  1169 ;; Parameters:    Size  Location     Type
  1170 ;;  DATA            1    wreg     PTR unsigned char 
  1171 ;;		 -> main@BYPASS(32), 
  1172 ;;  P_RANGE         1    2[BANK0 ] PTR unsigned char 
  1173 ;;		 -> main@DCC_PACKET_RANGE(1), 
  1174 ;; Auto vars:     Size  Location     Type
  1175 ;;  DATA            1    6[BANK0 ] PTR unsigned char 
  1176 ;;		 -> main@BYPASS(32), 
  1177 ;; Return value:  Size  Location     Type
  1178 ;;                  1    wreg      void 
  1179 ;; Registers used:
  1180 ;;		wreg, fsr0l, fsr0h, fsr1l, fsr1h, status,2, status,0, pclath, cstack
  1181 ;; Tracked objects:
  1182 ;;		On entry : 0/0
  1183 ;;		On exit  : 0/0
  1184 ;;		Unchanged: 0/0
  1185 ;; Data sizes:     COMMON   BANK0
  1186 ;;      Params:         0       1
  1187 ;;      Locals:         0       1
  1188 ;;      Temps:          0       3
  1189 ;;      Totals:         0       5
  1190 ;;Total ram usage:        5 bytes
  1191 ;; Hardware stack levels used: 1
  1192 ;; Hardware stack levels required when called: 3
  1193 ;; This function calls:
  1194 ;;		_CONFIG_SET
  1195 ;;		_DEC_SET
  1196 ;; This function is called by:
  1197 ;;		_main
  1198 ;; This function uses a non-reentrant model
  1199 ;;
  1200                           
  1201     0506                     _PACKET_CONTROL:	
  1202                           ;psect for function _PACKET_CONTROL
  1203                           
  1204                           
  1205                           ;incstack = 0
  1206                           ; Regs used in _PACKET_CONTROL: [wreg-fsr1h+status,2+status,0+pclath+cstack]
  1207                           ;PACKET_CONTROL@DATA stored from wreg
  1208     0506  0020               	movlb	0	; select bank0
  1209     0507  00A6               	movwf	PACKET_CONTROL@DATA
  1210     0508                     l1510:
  1211                           
  1212                           ;Project_ATCS_Decorder_Module.c: 139:     switch(DATA[1] >> 5){
  1213     0508  2D2D               	goto	l1532
  1214     0509                     l1512:
  1215                           
  1216                           ;Project_ATCS_Decorder_Module.c: 141:             COM_FLAG &= 0xF7;
  1217     0509  30F7               	movlw	247
  1218     050A  00A3               	movwf	??_PACKET_CONTROL
  1219     050B  0823               	movf	??_PACKET_CONTROL,w
  1220     050C  05DD               	andwf	_COM_FLAG,f
  1221     050D                     l1514:
  1222                           
  1223                           ;Project_ATCS_Decorder_Module.c: 142:             DEC_SET(DATA,P_RANGE);
  1224     050D  0822               	movf	PACKET_CONTROL@P_RANGE,w
  1225     050E  00A0               	movwf	DEC_SET@P_RANGE
  1226     050F  0826               	movf	PACKET_CONTROL@DATA,w
  1227     0510  3185  25B4  3185   	fcall	_DEC_SET
  1228     0513  2D58               	goto	l197
  1229     0514                     l198:	
  1230                           ;Project_ATCS_Decorder_Module.c: 144:         case 1:
  1231                           
  1232                           
  1233                           ;Project_ATCS_Decorder_Module.c: 145:             COM_FLAG |= 0x08;
  1234     0514  15DD               	bsf	_COM_FLAG,3
  1235                           
  1236                           ;Project_ATCS_Decorder_Module.c: 146:             return;
  1237     0515  2D58               	goto	l197
  1238     0516                     l199:	
  1239                           ;Project_ATCS_Decorder_Module.c: 147:         case 2:
  1240                           
  1241                           
  1242                           ;Project_ATCS_Decorder_Module.c: 148:             COM_FLAG |= 0x10;
  1243     0516  165D               	bsf	_COM_FLAG,4
  1244                           
  1245                           ;Project_ATCS_Decorder_Module.c: 149:             return;
  1246     0517  2D58               	goto	l197
  1247     0518                     l1518:
  1248                           
  1249                           ;Project_ATCS_Decorder_Module.c: 151:             COM_FLAG &= 0xEF;
  1250     0518  30EF               	movlw	239
  1251     0519  00A3               	movwf	??_PACKET_CONTROL
  1252     051A  0823               	movf	??_PACKET_CONTROL,w
  1253     051B  05DD               	andwf	_COM_FLAG,f
  1254     051C  2D58               	goto	l197
  1255     051D                     l1522:
  1256                           
  1257                           ;Project_ATCS_Decorder_Module.c: 154:             COM_FLAG &= 0xDF;
  1258     051D  30DF               	movlw	223
  1259     051E  00A3               	movwf	??_PACKET_CONTROL
  1260     051F  0823               	movf	??_PACKET_CONTROL,w
  1261     0520  05DD               	andwf	_COM_FLAG,f
  1262     0521  2D58               	goto	l197
  1263     0522                     l202:	
  1264                           ;Project_ATCS_Decorder_Module.c: 156:         case 5:
  1265                           
  1266                           
  1267                           ;Project_ATCS_Decorder_Module.c: 157:             COM_FLAG |= 0x20;
  1268     0522  16DD               	bsf	_COM_FLAG,5
  1269                           
  1270                           ;Project_ATCS_Decorder_Module.c: 158:             return;
  1271     0523  2D58               	goto	l197
  1272     0524                     l203:	
  1273                           ;Project_ATCS_Decorder_Module.c: 159:         case 6:
  1274                           
  1275                           
  1276                           ;Project_ATCS_Decorder_Module.c: 160:             __nop();
  1277     0524  0000               	nop
  1278                           
  1279                           ;Project_ATCS_Decorder_Module.c: 161:             return;
  1280     0525  2D58               	goto	l197
  1281     0526                     l1526:
  1282                           
  1283                           ;Project_ATCS_Decorder_Module.c: 163:             CONFIG_SET(DATA,P_RANGE);
  1284     0526  0822               	movf	PACKET_CONTROL@P_RANGE,w
  1285     0527  00A0               	movwf	CONFIG_SET@P_RANGE
  1286     0528  0826               	movf	PACKET_CONTROL@DATA,w
  1287     0529  3185  25B5  3185   	fcall	_CONFIG_SET
  1288     052C  2D58               	goto	l197
  1289     052D                     l1532:
  1290     052D  0A26               	incf	PACKET_CONTROL@DATA,w
  1291     052E  0086               	movwf	6
  1292     052F  0187               	clrf	7
  1293     0530  0801               	movf	1,w
  1294     0531  00A3               	movwf	??_PACKET_CONTROL
  1295     0532  3005               	movlw	5
  1296     0533                     u775:
  1297     0533  36A3               	lsrf	??_PACKET_CONTROL,f
  1298     0534  0B89               	decfsz	9,f
  1299     0535  2D33               	goto	u775
  1300     0536  0823               	movf	??_PACKET_CONTROL,w
  1301     0537  00A4               	movwf	??_PACKET_CONTROL+1
  1302     0538  01A5               	clrf	??_PACKET_CONTROL+2
  1303                           
  1304                           ; Switch on 2 bytes has been partitioned into a top level switch of size 1, and 1 sub-sw
      +                          itches
  1305                           ; Switch size 1, requested type "simple"
  1306                           ; Number of cases is 1, Range of values is 0 to 0
  1307                           ; switch strategies available:
  1308                           ; Name         Instructions Cycles
  1309                           ; simple_byte            4     3 (average)
  1310                           ; direct_byte            8     6 (fixed)
  1311                           ; jumptable            260     6 (fixed)
  1312                           ;	Chosen strategy is simple_byte
  1313     0539  0825               	movf	??_PACKET_CONTROL+2,w
  1314     053A  3A00               	xorlw	0	; case 0
  1315     053B  1903               	skipnz
  1316     053C  2D3E               	goto	l1938
  1317     053D  2D58               	goto	l197
  1318     053E                     l1938:
  1319                           
  1320                           ; Switch size 1, requested type "simple"
  1321                           ; Number of cases is 8, Range of values is 0 to 7
  1322                           ; switch strategies available:
  1323                           ; Name         Instructions Cycles
  1324                           ; direct_byte           22     6 (fixed)
  1325                           ; simple_byte           25    13 (average)
  1326                           ; jumptable            260     6 (fixed)
  1327                           ;	Chosen strategy is simple_byte
  1328     053E  0824               	movf	??_PACKET_CONTROL+1,w
  1329     053F  3A00               	xorlw	0	; case 0
  1330     0540  1903               	skipnz
  1331     0541  2D09               	goto	l1512
  1332     0542  3A01               	xorlw	1	; case 1
  1333     0543  1903               	skipnz
  1334     0544  2D14               	goto	l198
  1335     0545  3A03               	xorlw	3	; case 2
  1336     0546  1903               	skipnz
  1337     0547  2D16               	goto	l199
  1338     0548  3A01               	xorlw	1	; case 3
  1339     0549  1903               	skipnz
  1340     054A  2D18               	goto	l1518
  1341     054B  3A07               	xorlw	7	; case 4
  1342     054C  1903               	skipnz
  1343     054D  2D1D               	goto	l1522
  1344     054E  3A01               	xorlw	1	; case 5
  1345     054F  1903               	skipnz
  1346     0550  2D22               	goto	l202
  1347     0551  3A03               	xorlw	3	; case 6
  1348     0552  1903               	skipnz
  1349     0553  2D24               	goto	l203
  1350     0554  3A01               	xorlw	1	; case 7
  1351     0555  1903               	skipnz
  1352     0556  2D26               	goto	l1526
  1353     0557  2D58               	goto	l197
  1354     0558                     l197:
  1355     0558  0008               	return
  1356     0559                     __end_of_PACKET_CONTROL:
  1357                           
  1358                           	psect	text2
  1359     05B4                     __ptext2:	
  1360 ;; *************** function _DEC_SET *****************
  1361 ;; Defined at:
  1362 ;;		line 167 in file "Project_ATCS_Decorder_Module.c"
  1363 ;; Parameters:    Size  Location     Type
  1364 ;;  DATA            1    wreg     PTR unsigned char 
  1365 ;;		 -> main@BYPASS(32), 
  1366 ;;  P_RANGE         1    0[BANK0 ] PTR unsigned char 
  1367 ;;		 -> main@DCC_PACKET_RANGE(1), 
  1368 ;; Auto vars:     Size  Location     Type
  1369 ;;  DATA            1    1[BANK0 ] PTR unsigned char 
  1370 ;;		 -> main@BYPASS(32), 
  1371 ;; Return value:  Size  Location     Type
  1372 ;;                  1    wreg      void 
  1373 ;; Registers used:
  1374 ;;		wreg
  1375 ;; Tracked objects:
  1376 ;;		On entry : 0/0
  1377 ;;		On exit  : 0/0
  1378 ;;		Unchanged: 0/0
  1379 ;; Data sizes:     COMMON   BANK0
  1380 ;;      Params:         0       1
  1381 ;;      Locals:         0       1
  1382 ;;      Temps:          0       0
  1383 ;;      Totals:         0       2
  1384 ;;Total ram usage:        2 bytes
  1385 ;; Hardware stack levels used: 1
  1386 ;; Hardware stack levels required when called: 2
  1387 ;; This function calls:
  1388 ;;		Nothing
  1389 ;; This function is called by:
  1390 ;;		_PACKET_CONTROL
  1391 ;; This function uses a non-reentrant model
  1392 ;;
  1393                           
  1394     05B4                     _DEC_SET:	
  1395                           ;psect for function _DEC_SET
  1396                           
  1397     05B4                     l208:	
  1398                           ;incstack = 0
  1399                           ; Regs used in _DEC_SET: [wreg]
  1400                           
  1401     05B4  0008               	return
  1402     05B5                     __end_of_DEC_SET:
  1403                           
  1404                           	psect	text3
  1405     05B5                     __ptext3:	
  1406 ;; *************** function _CONFIG_SET *****************
  1407 ;; Defined at:
  1408 ;;		line 171 in file "Project_ATCS_Decorder_Module.c"
  1409 ;; Parameters:    Size  Location     Type
  1410 ;;  DATA            1    wreg     PTR unsigned char 
  1411 ;;		 -> main@BYPASS(32), 
  1412 ;;  P_RANGE         1    0[BANK0 ] PTR unsigned char 
  1413 ;;		 -> main@DCC_PACKET_RANGE(1), 
  1414 ;; Auto vars:     Size  Location     Type
  1415 ;;  DATA            1    1[BANK0 ] PTR unsigned char 
  1416 ;;		 -> main@BYPASS(32), 
  1417 ;; Return value:  Size  Location     Type
  1418 ;;                  1    wreg      void 
  1419 ;; Registers used:
  1420 ;;		wreg
  1421 ;; Tracked objects:
  1422 ;;		On entry : 0/0
  1423 ;;		On exit  : 0/0
  1424 ;;		Unchanged: 0/0
  1425 ;; Data sizes:     COMMON   BANK0
  1426 ;;      Params:         0       1
  1427 ;;      Locals:         0       1
  1428 ;;      Temps:          0       0
  1429 ;;      Totals:         0       2
  1430 ;;Total ram usage:        2 bytes
  1431 ;; Hardware stack levels used: 1
  1432 ;; Hardware stack levels required when called: 2
  1433 ;; This function calls:
  1434 ;;		Nothing
  1435 ;; This function is called by:
  1436 ;;		_PACKET_CONTROL
  1437 ;; This function uses a non-reentrant model
  1438 ;;
  1439                           
  1440     05B5                     _CONFIG_SET:	
  1441                           ;psect for function _CONFIG_SET
  1442                           
  1443     05B5                     l217:	
  1444                           ;incstack = 0
  1445                           ; Regs used in _CONFIG_SET: [wreg]
  1446                           
  1447     05B5  0008               	return
  1448     05B6                     __end_of_CONFIG_SET:
  1449                           
  1450                           	psect	text4
  1451     00F6                     __ptext4:	
  1452 ;; *************** function _EEPROM_SELECT *****************
  1453 ;; Defined at:
  1454 ;;		line 12 in file "Project_ATCS_Decorder_Module.c"
  1455 ;; Parameters:    Size  Location     Type
  1456 ;;		None
  1457 ;; Auto vars:     Size  Location     Type
  1458 ;;  EE_SAVE         2    2[BANK0 ] unsigned int 
  1459 ;;  COUNT           1    4[BANK0 ] unsigned char 
  1460 ;; Return value:  Size  Location     Type
  1461 ;;                  1    wreg      void 
  1462 ;; Registers used:
  1463 ;;		wreg, fsr0l, fsr0h, fsr1l, fsr1h, status,2, status,0
  1464 ;; Tracked objects:
  1465 ;;		On entry : 0/0
  1466 ;;		On exit  : 0/0
  1467 ;;		Unchanged: 0/0
  1468 ;; Data sizes:     COMMON   BANK0
  1469 ;;      Params:         0       0
  1470 ;;      Locals:         0       3
  1471 ;;      Temps:          0       2
  1472 ;;      Totals:         0       5
  1473 ;;Total ram usage:        5 bytes
  1474 ;; Hardware stack levels used: 1
  1475 ;; Hardware stack levels required when called: 2
  1476 ;; This function calls:
  1477 ;;		Nothing
  1478 ;; This function is called by:
  1479 ;;		_main
  1480 ;; This function uses a non-reentrant model
  1481 ;;
  1482                           
  1483     00F6                     _EEPROM_SELECT:	
  1484                           ;psect for function _EEPROM_SELECT
  1485                           
  1486     00F6                     l1366:	
  1487                           ;incstack = 0
  1488                           ; Regs used in _EEPROM_SELECT: [wreg-fsr1h+status,2+status,0]
  1489                           
  1490                           
  1491                           ;Project_ATCS_Decorder_Module.c: 13:     INTCONbits.GIE = 0;
  1492     00F6  138B               	bcf	11,7	;volatile
  1493     00F7                     l1368:
  1494                           
  1495                           ;Project_ATCS_Decorder_Module.c: 14:     UnCHR COUNT = 0x00 ;
  1496     00F7  0020               	movlb	0	; select bank0
  1497     00F8  01A4               	clrf	EEPROM_SELECT@COUNT
  1498                           
  1499                           ;Project_ATCS_Decorder_Module.c: 16:     switch (EE_STORE.EE_STATE) {
  1500     00F9  2A98               	goto	l1502
  1501     00FA                     l1370:
  1502                           
  1503                           ;Project_ATCS_Decorder_Module.c: 19:                 if(EE_STORE.EE_REPORT[COUNT]){
  1504     00FA  0824               	movf	EEPROM_SELECT@COUNT,w
  1505     00FB  3E58               	addlw	(low ((_EE_STORE| 0+12)))& (0+255)
  1506     00FC  0086               	movwf	6
  1507     00FD  0187               	clrf	7
  1508     00FE  0801               	movf	1,w
  1509     00FF  1903               	btfsc	3,2
  1510     0100  2902               	goto	u591
  1511     0101  2903               	goto	u590
  1512     0102                     u591:
  1513     0102  2924               	goto	l1380
  1514     0103                     u590:
  1515     0103                     l1372:
  1516                           
  1517                           ;Project_ATCS_Decorder_Module.c: 20:                     EEADR = EE_STORE.EE_ADRS;
  1518     0103  084F               	movf	_EE_STORE+3,w
  1519     0104  0023               	movlb	3	; select bank3
  1520     0105  0092               	movwf	18	;volatile
  1521     0106  0020               	movlb	0	; select bank0
  1522     0107  084E               	movf	_EE_STORE+2,w
  1523     0108  0023               	movlb	3	; select bank3
  1524     0109  0091               	movwf	17	;volatile
  1525                           
  1526                           ;Project_ATCS_Decorder_Module.c: 21:                     EECON1 = EE_STORE.EE_CONFIG;
  1527     010A  0020               	movlb	0	; select bank0
  1528     010B  084D               	movf	_EE_STORE+1,w
  1529     010C  0023               	movlb	3	; select bank3
  1530     010D  0095               	movwf	21	;volsfr
  1531     010E                     l153:	
  1532                           ;Project_ATCS_Decorder_Module.c: 22:                     while (EECON1bits.RD);
  1533                           
  1534     010E  1815               	btfsc	21,0	;volsfr
  1535     010F  2911               	goto	u601
  1536     0110  2912               	goto	u600
  1537     0111                     u601:
  1538     0111  290E               	goto	l153
  1539     0112                     u600:
  1540     0112                     l1374:
  1541                           
  1542                           ;Project_ATCS_Decorder_Module.c: 23:                     EE_STORE.EE_DATA[COUNT] = EEDAT
      +                          ;
  1543     0112  0020               	movlb	0	; select bank0
  1544     0113  3524               	lslf	EEPROM_SELECT@COUNT,w
  1545     0114  3E50               	addlw	(low ((_EE_STORE| 0+4)))& (0+255)
  1546     0115  0086               	movwf	6
  1547     0116  0187               	clrf	7
  1548     0117  0023               	movlb	3	; select bank3
  1549     0118  0813               	movf	19,w	;volatile
  1550     0119  3FC0               	movwi [0]fsr1
  1551     011A  0814               	movf	20,w	;volatile
  1552     011B  3FC1               	movwi [1]fsr1
  1553     011C                     l1376:
  1554                           
  1555                           ;Project_ATCS_Decorder_Module.c: 24:                     INTCONbits.GIE = 1;
  1556     011C  178B               	bsf	11,7	;volatile
  1557                           
  1558                           ;Project_ATCS_Decorder_Module.c: 25:                     EE_STORE.EE_REPORT[COUNT] = 0x0
      +                          0;
  1559     011D  0020               	movlb	0	; select bank0
  1560     011E  0824               	movf	EEPROM_SELECT@COUNT,w
  1561     011F  3E58               	addlw	(low ((_EE_STORE| 0+12)))& (0+255)
  1562     0120  0086               	movwf	6
  1563     0121  0187               	clrf	7
  1564     0122  0181               	clrf	1
  1565     0123  2AB4               	goto	l156
  1566     0124                     l1380:
  1567                           
  1568                           ;Project_ATCS_Decorder_Module.c: 28:                 COUNT++;
  1569     0124  3001               	movlw	1
  1570     0125  00A0               	movwf	??_EEPROM_SELECT
  1571     0126  0820               	movf	??_EEPROM_SELECT,w
  1572     0127  07A4               	addwf	EEPROM_SELECT@COUNT,f
  1573     0128                     l1382:
  1574                           
  1575                           ;Project_ATCS_Decorder_Module.c: 29:                 EEADR = EE_STORE.EE_ADRS++;
  1576     0128  084F               	movf	_EE_STORE+3,w
  1577     0129  0023               	movlb	3	; select bank3
  1578     012A  0092               	movwf	18	;volatile
  1579     012B  0020               	movlb	0	; select bank0
  1580     012C  084E               	movf	_EE_STORE+2,w
  1581     012D  0023               	movlb	3	; select bank3
  1582     012E  0091               	movwf	17	;volatile
  1583     012F                     l1384:
  1584     012F  3001               	movlw	1
  1585     0130  0020               	movlb	0	; select bank0
  1586     0131  07CE               	addwf	_EE_STORE+2,f
  1587     0132  3000               	movlw	0
  1588     0133  3DCF               	addwfc	_EE_STORE+3,f
  1589     0134                     l1386:
  1590                           
  1591                           ;Project_ATCS_Decorder_Module.c: 30:             }while(COUNT < 4);
  1592     0134  3004               	movlw	4
  1593     0135  0224               	subwf	EEPROM_SELECT@COUNT,w
  1594     0136  1C03               	skipc
  1595     0137  2939               	goto	u611
  1596     0138  293A               	goto	u610
  1597     0139                     u611:
  1598     0139  28FA               	goto	l1370
  1599     013A                     u610:
  1600     013A  2AB4               	goto	l156
  1601     013B                     l1388:
  1602                           
  1603                           ;Project_ATCS_Decorder_Module.c: 35:                 if(EE_STORE.EE_REPORT[COUNT]){
  1604     013B  0824               	movf	EEPROM_SELECT@COUNT,w
  1605     013C  3E58               	addlw	(low ((_EE_STORE| 0+12)))& (0+255)
  1606     013D  0086               	movwf	6
  1607     013E  0187               	clrf	7
  1608     013F  0801               	movf	1,w
  1609     0140  1903               	btfsc	3,2
  1610     0141  2943               	goto	u621
  1611     0142  2944               	goto	u620
  1612     0143                     u621:
  1613     0143  2964               	goto	l1396
  1614     0144                     u620:
  1615     0144                     l1390:
  1616                           
  1617                           ;Project_ATCS_Decorder_Module.c: 36:                     EEADR = EE_STORE.EE_ADRS;
  1618     0144  084F               	movf	_EE_STORE+3,w
  1619     0145  0023               	movlb	3	; select bank3
  1620     0146  0092               	movwf	18	;volatile
  1621     0147  0020               	movlb	0	; select bank0
  1622     0148  084E               	movf	_EE_STORE+2,w
  1623     0149  0023               	movlb	3	; select bank3
  1624     014A  0091               	movwf	17	;volatile
  1625                           
  1626                           ;Project_ATCS_Decorder_Module.c: 37:                     EECON1 = EE_STORE.EE_CONFIG;
  1627     014B  0020               	movlb	0	; select bank0
  1628     014C  084D               	movf	_EE_STORE+1,w
  1629     014D  0023               	movlb	3	; select bank3
  1630     014E  0095               	movwf	21	;volsfr
  1631     014F                     l1392:
  1632                           
  1633                           ;Project_ATCS_Decorder_Module.c: 38:                     EECON1bits.RD = 1;
  1634     014F  1415               	bsf	21,0	;volsfr
  1635     0150                     l161:	
  1636                           ;Project_ATCS_Decorder_Module.c: 39:                     while (EECON1bits.RD);
  1637                           
  1638     0150  1815               	btfsc	21,0	;volsfr
  1639     0151  2953               	goto	u631
  1640     0152  2954               	goto	u630
  1641     0153                     u631:
  1642     0153  2950               	goto	l161
  1643     0154                     u630:
  1644     0154                     l1394:
  1645                           
  1646                           ;Project_ATCS_Decorder_Module.c: 40:                     EE_STORE.EE_DATA[COUNT] = EEDAT
      +                          ;
  1647     0154  0020               	movlb	0	; select bank0
  1648     0155  3524               	lslf	EEPROM_SELECT@COUNT,w
  1649     0156  3E50               	addlw	(low ((_EE_STORE| 0+4)))& (0+255)
  1650     0157  0086               	movwf	6
  1651     0158  0187               	clrf	7
  1652     0159  0023               	movlb	3	; select bank3
  1653     015A  0813               	movf	19,w	;volatile
  1654     015B  3FC0               	movwi [0]fsr1
  1655     015C  0814               	movf	20,w	;volatile
  1656     015D  3FC1               	movwi [1]fsr1
  1657                           
  1658                           ;Project_ATCS_Decorder_Module.c: 41:                     EE_STORE.EE_REPORT[COUNT] = 0x0
      +                          0;
  1659     015E  0020               	movlb	0	; select bank0
  1660     015F  0824               	movf	EEPROM_SELECT@COUNT,w
  1661     0160  3E58               	addlw	(low ((_EE_STORE| 0+12)))& (0+255)
  1662     0161  0086               	movwf	6
  1663     0162  0187               	clrf	7
  1664     0163  0181               	clrf	1
  1665     0164                     l1396:
  1666                           
  1667                           ;Project_ATCS_Decorder_Module.c: 43:                 EE_STORE.EE_ADRS++;
  1668     0164  3001               	movlw	1
  1669     0165  07CE               	addwf	_EE_STORE+2,f
  1670     0166  3000               	movlw	0
  1671     0167  3DCF               	addwfc	_EE_STORE+3,f
  1672     0168                     l1398:
  1673                           
  1674                           ;Project_ATCS_Decorder_Module.c: 44:             } while (COUNT < 4);
  1675     0168  3004               	movlw	4
  1676     0169  0224               	subwf	EEPROM_SELECT@COUNT,w
  1677     016A  1C03               	skipc
  1678     016B  296D               	goto	u641
  1679     016C  296E               	goto	u640
  1680     016D                     u641:
  1681     016D  293B               	goto	l1388
  1682     016E                     u640:
  1683     016E                     l164:
  1684                           
  1685                           ;Project_ATCS_Decorder_Module.c: 45:             INTCONbits.GIE = 1;
  1686     016E  178B               	bsf	11,7	;volatile
  1687                           
  1688                           ;Project_ATCS_Decorder_Module.c: 46:             return;
  1689     016F  2AB4               	goto	l156
  1690     0170                     l165:	
  1691                           ;Project_ATCS_Decorder_Module.c: 48:         case EE_WRITE_UID:
  1692                           
  1693                           
  1694                           ;Project_ATCS_Decorder_Module.c: 49:             INTCONbits.GIE = 0;
  1695     0170  138B               	bcf	11,7	;volatile
  1696     0171                     l1400:
  1697                           
  1698                           ;Project_ATCS_Decorder_Module.c: 50:             UnINT EE_SAVE = EE_STORE.EE_ADRS;
  1699     0171  084F               	movf	_EE_STORE+3,w
  1700     0172  00A3               	movwf	EEPROM_SELECT@EE_SAVE+1
  1701     0173  084E               	movf	_EE_STORE+2,w
  1702     0174  00A2               	movwf	EEPROM_SELECT@EE_SAVE
  1703     0175                     l1402:
  1704                           
  1705                           ;Project_ATCS_Decorder_Module.c: 52:                 if(EE_STORE.EE_REPORT[COUNT]){
  1706     0175  0824               	movf	EEPROM_SELECT@COUNT,w
  1707     0176  3E58               	addlw	(low ((_EE_STORE| 0+12)))& (0+255)
  1708     0177  0086               	movwf	6
  1709     0178  0187               	clrf	7
  1710     0179  0801               	movf	1,w
  1711     017A  1903               	btfsc	3,2
  1712     017B  297D               	goto	u651
  1713     017C  297E               	goto	u650
  1714     017D                     u651:
  1715     017D  2996               	goto	l1416
  1716     017E                     u650:
  1717     017E                     l1404:
  1718                           
  1719                           ;Project_ATCS_Decorder_Module.c: 53:                     EEADR = EE_STORE.EE_ADRS;
  1720     017E  084F               	movf	_EE_STORE+3,w
  1721     017F  0023               	movlb	3	; select bank3
  1722     0180  0092               	movwf	18	;volatile
  1723     0181  0020               	movlb	0	; select bank0
  1724     0182  084E               	movf	_EE_STORE+2,w
  1725     0183  0023               	movlb	3	; select bank3
  1726     0184  0091               	movwf	17	;volatile
  1727     0185                     l1406:
  1728                           
  1729                           ;Project_ATCS_Decorder_Module.c: 54:                     EEDAT = EE_STORE.EE_DATA[COUNT]
      +                          ;
  1730     0185  0020               	movlb	0	; select bank0
  1731     0186  3524               	lslf	EEPROM_SELECT@COUNT,w
  1732     0187  3E50               	addlw	(low ((_EE_STORE| 0+4)))& (0+255)
  1733     0188  0086               	movwf	6
  1734     0189  0187               	clrf	7
  1735     018A  3F40               	moviw [0]fsr1
  1736     018B  0023               	movlb	3	; select bank3
  1737     018C  0093               	movwf	19	;volatile
  1738     018D  3F41               	moviw [1]fsr1
  1739     018E  0094               	movwf	20	;volatile
  1740     018F                     l1408:
  1741                           
  1742                           ;Project_ATCS_Decorder_Module.c: 55:                     EECON1 = 0x64;
  1743     018F  3064               	movlw	100
  1744     0190  0095               	movwf	21	;volsfr
  1745     0191                     l1410:
  1746                           
  1747                           ;Project_ATCS_Decorder_Module.c: 56:                     EECON2 = 0x55;
  1748     0191  3055               	movlw	85
  1749     0192  0096               	movwf	22	;volsfr
  1750     0193                     l1412:
  1751                           
  1752                           ;Project_ATCS_Decorder_Module.c: 57:                     EECON2 = 0xAA;
  1753     0193  30AA               	movlw	170
  1754     0194  0096               	movwf	22	;volsfr
  1755     0195                     l1414:
  1756                           
  1757                           ;Project_ATCS_Decorder_Module.c: 58:                     EECON1bits.WR = 1;
  1758     0195  1495               	bsf	21,1	;volsfr
  1759     0196                     l1416:
  1760                           
  1761                           ;Project_ATCS_Decorder_Module.c: 60:                 COUNT++;
  1762     0196  3001               	movlw	1
  1763     0197  0020               	movlb	0	; select bank0
  1764     0198  00A0               	movwf	??_EEPROM_SELECT
  1765     0199  0820               	movf	??_EEPROM_SELECT,w
  1766     019A  07A4               	addwf	EEPROM_SELECT@COUNT,f
  1767     019B                     l1418:
  1768                           
  1769                           ;Project_ATCS_Decorder_Module.c: 61:                 EE_STORE.EE_ADRS++;
  1770     019B  3001               	movlw	1
  1771     019C  07CE               	addwf	_EE_STORE+2,f
  1772     019D  3000               	movlw	0
  1773     019E  3DCF               	addwfc	_EE_STORE+3,f
  1774     019F                     l1420:
  1775                           
  1776                           ;Project_ATCS_Decorder_Module.c: 62:             } while (COUNT < 4);
  1777     019F  3004               	movlw	4
  1778     01A0  0224               	subwf	EEPROM_SELECT@COUNT,w
  1779     01A1  1C03               	skipc
  1780     01A2  29A4               	goto	u661
  1781     01A3  29A5               	goto	u660
  1782     01A4                     u661:
  1783     01A4  2975               	goto	l1402
  1784     01A5                     u660:
  1785     01A5                     l1422:
  1786                           
  1787                           ;Project_ATCS_Decorder_Module.c: 63:             EE_STORE.EE_ADRS = EE_SAVE;
  1788     01A5  0823               	movf	EEPROM_SELECT@EE_SAVE+1,w
  1789     01A6  00CF               	movwf	_EE_STORE+3
  1790     01A7  0822               	movf	EEPROM_SELECT@EE_SAVE,w
  1791     01A8  00CE               	movwf	_EE_STORE+2
  1792                           
  1793                           ;Project_ATCS_Decorder_Module.c: 65:             EECON1 = 0x44;
  1794     01A9  3044               	movlw	68
  1795     01AA  0023               	movlb	3	; select bank3
  1796     01AB  0095               	movwf	21	;volsfr
  1797                           
  1798                           ;Project_ATCS_Decorder_Module.c: 66:             EECON2 = 0x55;
  1799     01AC  3055               	movlw	85
  1800     01AD  0096               	movwf	22	;volsfr
  1801                           
  1802                           ;Project_ATCS_Decorder_Module.c: 67:             EECON2 = 0xAA;
  1803     01AE  30AA               	movlw	170
  1804     01AF  0096               	movwf	22	;volsfr
  1805     01B0                     l1424:
  1806                           
  1807                           ;Project_ATCS_Decorder_Module.c: 69:             EECON1bits.WR = 1;
  1808     01B0  1495               	bsf	21,1	;volsfr
  1809     01B1                     l1426:
  1810                           
  1811                           ;Project_ATCS_Decorder_Module.c: 70:             __nop();
  1812     01B1  0000               	nop
  1813     01B2                     l1428:
  1814                           
  1815                           ;Project_ATCS_Decorder_Module.c: 71:             __nop();
  1816     01B2  0000               	nop
  1817     01B3                     l1430:
  1818                           
  1819                           ;Project_ATCS_Decorder_Module.c: 72:             INTCONbits.GIE = 1;
  1820     01B3  178B               	bsf	11,7	;volatile
  1821     01B4  2AB4               	goto	l156
  1822     01B5                     l169:	
  1823                           ;Project_ATCS_Decorder_Module.c: 75:         case EE_VERIFY_UID:
  1824                           
  1825                           
  1826                           ;Project_ATCS_Decorder_Module.c: 76:             INTCONbits.GIE = 0;
  1827     01B5  138B               	bcf	11,7	;volatile
  1828     01B6                     l1434:
  1829                           
  1830                           ;Project_ATCS_Decorder_Module.c: 78:                 if(EE_STORE.EE_REPORT[COUNT]){
  1831     01B6  0824               	movf	EEPROM_SELECT@COUNT,w
  1832     01B7  3E58               	addlw	(low ((_EE_STORE| 0+12)))& (0+255)
  1833     01B8  0086               	movwf	6
  1834     01B9  0187               	clrf	7
  1835     01BA  0801               	movf	1,w
  1836     01BB  1903               	btfsc	3,2
  1837     01BC  29BE               	goto	u671
  1838     01BD  29BF               	goto	u670
  1839     01BE                     u671:
  1840     01BE  29EF               	goto	l1444
  1841     01BF                     u670:
  1842     01BF                     l1436:
  1843                           
  1844                           ;Project_ATCS_Decorder_Module.c: 79:                     EEADR = EE_STORE.EE_ADRS;
  1845     01BF  084F               	movf	_EE_STORE+3,w
  1846     01C0  0023               	movlb	3	; select bank3
  1847     01C1  0092               	movwf	18	;volatile
  1848     01C2  0020               	movlb	0	; select bank0
  1849     01C3  084E               	movf	_EE_STORE+2,w
  1850     01C4  0023               	movlb	3	; select bank3
  1851     01C5  0091               	movwf	17	;volatile
  1852                           
  1853                           ;Project_ATCS_Decorder_Module.c: 80:                     EECON1 = 0x41;
  1854     01C6  3041               	movlw	65
  1855     01C7  0095               	movwf	21	;volsfr
  1856     01C8                     l172:	
  1857                           ;Project_ATCS_Decorder_Module.c: 81:                     while (EECON1bits.RD);
  1858                           
  1859     01C8  1815               	btfsc	21,0	;volsfr
  1860     01C9  29CB               	goto	u681
  1861     01CA  29CC               	goto	u680
  1862     01CB                     u681:
  1863     01CB  29C8               	goto	l172
  1864     01CC                     u680:
  1865     01CC                     l1438:
  1866                           
  1867                           ;Project_ATCS_Decorder_Module.c: 82:                     if (EEDAT != EE_STORE.EE_DATA[C
      +                          OUNT]) {
  1868     01CC  0020               	movlb	0	; select bank0
  1869     01CD  3524               	lslf	EEPROM_SELECT@COUNT,w
  1870     01CE  3E50               	addlw	(low ((_EE_STORE| 0+4)))& (0+255)
  1871     01CF  0086               	movwf	6
  1872     01D0  0187               	clrf	7
  1873     01D1  3F40               	moviw [0]fsr1
  1874     01D2  00A0               	movwf	??_EEPROM_SELECT
  1875     01D3  3F41               	moviw [1]fsr1
  1876     01D4  00A1               	movwf	??_EEPROM_SELECT+1
  1877     01D5  0023               	movlb	3	; select bank3
  1878     01D6  0814               	movf	20,w	;volatile
  1879     01D7  0020               	movlb	0	; select bank0
  1880     01D8  0621               	xorwf	??_EEPROM_SELECT+1,w
  1881     01D9  1D03               	skipz
  1882     01DA  29DF               	goto	u695
  1883     01DB  0023               	movlb	3	; select bank3
  1884     01DC  0813               	movf	19,w	;volatile
  1885     01DD  0020               	movlb	0	; select bank0
  1886     01DE  0620               	xorwf	??_EEPROM_SELECT,w
  1887     01DF                     u695:
  1888     01DF  1903               	skipnz
  1889     01E0  29E2               	goto	u691
  1890     01E1  29E3               	goto	u690
  1891     01E2                     u691:
  1892     01E2  29EA               	goto	l1442
  1893     01E3                     u690:
  1894     01E3                     l1440:
  1895                           
  1896                           ;Project_ATCS_Decorder_Module.c: 83:                         EE_STORE.EE_REPORT[COUNT] =
      +                           0xFF;
  1897     01E3  0824               	movf	EEPROM_SELECT@COUNT,w
  1898     01E4  3E58               	addlw	(low ((_EE_STORE| 0+12)))& (0+255)
  1899     01E5  0086               	movwf	6
  1900     01E6  0187               	clrf	7
  1901     01E7  30FF               	movlw	255
  1902     01E8  0081               	movwf	1
  1903                           
  1904                           ;Project_ATCS_Decorder_Module.c: 84:                     } else {
  1905     01E9  29EF               	goto	l1444
  1906     01EA                     l1442:
  1907                           
  1908                           ;Project_ATCS_Decorder_Module.c: 85:                         EE_STORE.EE_REPORT[COUNT] =
      +                           0x00;
  1909     01EA  0824               	movf	EEPROM_SELECT@COUNT,w
  1910     01EB  3E58               	addlw	(low ((_EE_STORE| 0+12)))& (0+255)
  1911     01EC  0086               	movwf	6
  1912     01ED  0187               	clrf	7
  1913     01EE  0181               	clrf	1
  1914     01EF                     l1444:
  1915                           
  1916                           ;Project_ATCS_Decorder_Module.c: 88:                 COUNT++;
  1917     01EF  3001               	movlw	1
  1918     01F0  00A0               	movwf	??_EEPROM_SELECT
  1919     01F1  0820               	movf	??_EEPROM_SELECT,w
  1920     01F2  07A4               	addwf	EEPROM_SELECT@COUNT,f
  1921     01F3                     l1446:
  1922                           
  1923                           ;Project_ATCS_Decorder_Module.c: 89:                 EE_STORE.EE_ADRS++;
  1924     01F3  3001               	movlw	1
  1925     01F4  07CE               	addwf	_EE_STORE+2,f
  1926     01F5  3000               	movlw	0
  1927     01F6  3DCF               	addwfc	_EE_STORE+3,f
  1928     01F7                     l1448:
  1929                           
  1930                           ;Project_ATCS_Decorder_Module.c: 90:             } while (COUNT < 4);
  1931     01F7  3004               	movlw	4
  1932     01F8  0224               	subwf	EEPROM_SELECT@COUNT,w
  1933     01F9  1C03               	skipc
  1934     01FA  29FC               	goto	u701
  1935     01FB  29FD               	goto	u700
  1936     01FC                     u701:
  1937     01FC  29B6               	goto	l1434
  1938     01FD                     u700:
  1939     01FD                     l177:
  1940                           
  1941                           ;Project_ATCS_Decorder_Module.c: 91:             INTCONbits.GIE = 1;
  1942     01FD  178B               	bsf	11,7	;volatile
  1943                           
  1944                           ;Project_ATCS_Decorder_Module.c: 92:             return;
  1945     01FE  2AB4               	goto	l156
  1946     01FF                     l1450:
  1947                           
  1948                           ;Project_ATCS_Decorder_Module.c: 96:                 if(EE_STORE.EE_REPORT[COUNT]){
  1949     01FF  0824               	movf	EEPROM_SELECT@COUNT,w
  1950     0200  3E58               	addlw	(low ((_EE_STORE| 0+12)))& (0+255)
  1951     0201  0086               	movwf	6
  1952     0202  0187               	clrf	7
  1953     0203  0801               	movf	1,w
  1954     0204  1903               	btfsc	3,2
  1955     0205  2A07               	goto	u711
  1956     0206  2A08               	goto	u710
  1957     0207                     u711:
  1958     0207  2A24               	goto	l1472
  1959     0208                     u710:
  1960     0208                     l1452:
  1961                           
  1962                           ;Project_ATCS_Decorder_Module.c: 97:                     EEADR = EE_STORE.EE_ADRS;
  1963     0208  084F               	movf	_EE_STORE+3,w
  1964     0209  0023               	movlb	3	; select bank3
  1965     020A  0092               	movwf	18	;volatile
  1966     020B  0020               	movlb	0	; select bank0
  1967     020C  084E               	movf	_EE_STORE+2,w
  1968     020D  0023               	movlb	3	; select bank3
  1969     020E  0091               	movwf	17	;volatile
  1970     020F                     l1454:
  1971                           
  1972                           ;Project_ATCS_Decorder_Module.c: 98:                     EEDAT = EE_STORE.EE_DATA[COUNT]
      +                          ;
  1973     020F  0020               	movlb	0	; select bank0
  1974     0210  3524               	lslf	EEPROM_SELECT@COUNT,w
  1975     0211  3E50               	addlw	(low ((_EE_STORE| 0+4)))& (0+255)
  1976     0212  0086               	movwf	6
  1977     0213  0187               	clrf	7
  1978     0214  3F40               	moviw [0]fsr1
  1979     0215  0023               	movlb	3	; select bank3
  1980     0216  0093               	movwf	19	;volatile
  1981     0217  3F41               	moviw [1]fsr1
  1982     0218  0094               	movwf	20	;volatile
  1983     0219                     l1456:
  1984                           
  1985                           ;Project_ATCS_Decorder_Module.c: 99:                     EECON1 = 0x44;
  1986     0219  3044               	movlw	68
  1987     021A  0095               	movwf	21	;volsfr
  1988     021B                     l1458:
  1989                           
  1990                           ;Project_ATCS_Decorder_Module.c: 100:                     EECON2 = 0x55;
  1991     021B  3055               	movlw	85
  1992     021C  0096               	movwf	22	;volsfr
  1993     021D                     l1460:
  1994                           
  1995                           ;Project_ATCS_Decorder_Module.c: 101:                     EECON2 = 0xAA;
  1996     021D  30AA               	movlw	170
  1997     021E  0096               	movwf	22	;volsfr
  1998     021F                     l1462:
  1999                           
  2000                           ;Project_ATCS_Decorder_Module.c: 102:                     EECON1bits.WR = 1;
  2001     021F  1495               	bsf	21,1	;volsfr
  2002     0220                     l1464:
  2003                           
  2004                           ;Project_ATCS_Decorder_Module.c: 103:                     __nop();
  2005     0220  0000               	nop
  2006     0221                     l1466:
  2007                           
  2008                           ;Project_ATCS_Decorder_Module.c: 104:                     __nop();
  2009     0221  0000               	nop
  2010     0222                     l1468:
  2011                           
  2012                           ;Project_ATCS_Decorder_Module.c: 105:                     INTCONbits.GIE = 1;
  2013     0222  178B               	bsf	11,7	;volatile
  2014     0223  2AB4               	goto	l156
  2015     0224                     l1472:
  2016                           
  2017                           ;Project_ATCS_Decorder_Module.c: 108:                 COUNT++;
  2018     0224  3001               	movlw	1
  2019     0225  00A0               	movwf	??_EEPROM_SELECT
  2020     0226  0820               	movf	??_EEPROM_SELECT,w
  2021     0227  07A4               	addwf	EEPROM_SELECT@COUNT,f
  2022     0228                     l1474:
  2023                           
  2024                           ;Project_ATCS_Decorder_Module.c: 109:                 EEADR = EE_STORE.EE_ADRS++;
  2025     0228  084F               	movf	_EE_STORE+3,w
  2026     0229  0023               	movlb	3	; select bank3
  2027     022A  0092               	movwf	18	;volatile
  2028     022B  0020               	movlb	0	; select bank0
  2029     022C  084E               	movf	_EE_STORE+2,w
  2030     022D  0023               	movlb	3	; select bank3
  2031     022E  0091               	movwf	17	;volatile
  2032     022F                     l1476:
  2033     022F  3001               	movlw	1
  2034     0230  0020               	movlb	0	; select bank0
  2035     0231  07CE               	addwf	_EE_STORE+2,f
  2036     0232  3000               	movlw	0
  2037     0233  3DCF               	addwfc	_EE_STORE+3,f
  2038     0234                     l1478:
  2039                           
  2040                           ;Project_ATCS_Decorder_Module.c: 110:             }while(COUNT < 4);
  2041     0234  3004               	movlw	4
  2042     0235  0224               	subwf	EEPROM_SELECT@COUNT,w
  2043     0236  1C03               	skipc
  2044     0237  2A39               	goto	u721
  2045     0238  2A3A               	goto	u720
  2046     0239                     u721:
  2047     0239  29FF               	goto	l1450
  2048     023A                     u720:
  2049     023A                     l181:
  2050                           
  2051                           ;Project_ATCS_Decorder_Module.c: 111:             INTCONbits.GIE = 1;
  2052     023A  178B               	bsf	11,7	;volatile
  2053                           
  2054                           ;Project_ATCS_Decorder_Module.c: 112:             return;
  2055     023B  2AB4               	goto	l156
  2056     023C                     l1480:
  2057                           
  2058                           ;Project_ATCS_Decorder_Module.c: 116:                 if(EE_STORE.EE_REPORT[COUNT]){
  2059     023C  0824               	movf	EEPROM_SELECT@COUNT,w
  2060     023D  3E58               	addlw	(low ((_EE_STORE| 0+12)))& (0+255)
  2061     023E  0086               	movwf	6
  2062     023F  0187               	clrf	7
  2063     0240  0801               	movf	1,w
  2064     0241  1903               	btfsc	3,2
  2065     0242  2A44               	goto	u731
  2066     0243  2A45               	goto	u730
  2067     0244                     u731:
  2068     0244  2A80               	goto	l1492
  2069     0245                     u730:
  2070     0245                     l1482:
  2071                           
  2072                           ;Project_ATCS_Decorder_Module.c: 117:                     EEADR = EE_STORE.EE_ADRS;
  2073     0245  084F               	movf	_EE_STORE+3,w
  2074     0246  0023               	movlb	3	; select bank3
  2075     0247  0092               	movwf	18	;volatile
  2076     0248  0020               	movlb	0	; select bank0
  2077     0249  084E               	movf	_EE_STORE+2,w
  2078     024A  0023               	movlb	3	; select bank3
  2079     024B  0091               	movwf	17	;volatile
  2080                           
  2081                           ;Project_ATCS_Decorder_Module.c: 118:                     EECON1 = 0x01;
  2082     024C  3001               	movlw	1
  2083     024D  0095               	movwf	21	;volsfr
  2084     024E                     l185:	
  2085                           ;Project_ATCS_Decorder_Module.c: 119:                     while (EECON1bits.RD);
  2086                           
  2087     024E  1815               	btfsc	21,0	;volsfr
  2088     024F  2A51               	goto	u741
  2089     0250  2A52               	goto	u740
  2090     0251                     u741:
  2091     0251  2A4E               	goto	l185
  2092     0252                     u740:
  2093     0252                     l1484:
  2094                           
  2095                           ;Project_ATCS_Decorder_Module.c: 120:                     EE_STORE.EE_DATA[COUNT] = EEDA
      +                          T;
  2096     0252  0020               	movlb	0	; select bank0
  2097     0253  3524               	lslf	EEPROM_SELECT@COUNT,w
  2098     0254  3E50               	addlw	(low ((_EE_STORE| 0+4)))& (0+255)
  2099     0255  0086               	movwf	6
  2100     0256  0187               	clrf	7
  2101     0257  0023               	movlb	3	; select bank3
  2102     0258  0813               	movf	19,w	;volatile
  2103     0259  3FC0               	movwi [0]fsr1
  2104     025A  0814               	movf	20,w	;volatile
  2105     025B  3FC1               	movwi [1]fsr1
  2106                           
  2107                           ;Project_ATCS_Decorder_Module.c: 121:                     if (EEDAT != EE_STORE.EE_DATA[
      +                          COUNT]) {
  2108     025C  0020               	movlb	0	; select bank0
  2109     025D  3524               	lslf	EEPROM_SELECT@COUNT,w
  2110     025E  3E50               	addlw	(low ((_EE_STORE| 0+4)))& (0+255)
  2111     025F  0086               	movwf	6
  2112     0260  0187               	clrf	7
  2113     0261  3F40               	moviw [0]fsr1
  2114     0262  00A0               	movwf	??_EEPROM_SELECT
  2115     0263  3F41               	moviw [1]fsr1
  2116     0264  00A1               	movwf	??_EEPROM_SELECT+1
  2117     0265  0023               	movlb	3	; select bank3
  2118     0266  0814               	movf	20,w	;volatile
  2119     0267  0020               	movlb	0	; select bank0
  2120     0268  0621               	xorwf	??_EEPROM_SELECT+1,w
  2121     0269  1D03               	skipz
  2122     026A  2A6F               	goto	u755
  2123     026B  0023               	movlb	3	; select bank3
  2124     026C  0813               	movf	19,w	;volatile
  2125     026D  0020               	movlb	0	; select bank0
  2126     026E  0620               	xorwf	??_EEPROM_SELECT,w
  2127     026F                     u755:
  2128     026F  1903               	skipnz
  2129     0270  2A72               	goto	u751
  2130     0271  2A73               	goto	u750
  2131     0272                     u751:
  2132     0272  2A7A               	goto	l1488
  2133     0273                     u750:
  2134     0273                     l1486:
  2135                           
  2136                           ;Project_ATCS_Decorder_Module.c: 122:                         EE_STORE.EE_REPORT[COUNT] 
      +                          = 0xFF;
  2137     0273  0824               	movf	EEPROM_SELECT@COUNT,w
  2138     0274  3E58               	addlw	(low ((_EE_STORE| 0+12)))& (0+255)
  2139     0275  0086               	movwf	6
  2140     0276  0187               	clrf	7
  2141     0277  30FF               	movlw	255
  2142     0278  0081               	movwf	1
  2143                           
  2144                           ;Project_ATCS_Decorder_Module.c: 123:                     } else {
  2145     0279  2AB4               	goto	l156
  2146     027A                     l1488:
  2147                           
  2148                           ;Project_ATCS_Decorder_Module.c: 124:                         EE_STORE.EE_REPORT[COUNT] 
      +                          = 0x00;
  2149     027A  0824               	movf	EEPROM_SELECT@COUNT,w
  2150     027B  3E58               	addlw	(low ((_EE_STORE| 0+12)))& (0+255)
  2151     027C  0086               	movwf	6
  2152     027D  0187               	clrf	7
  2153     027E  0181               	clrf	1
  2154     027F  2AB4               	goto	l156
  2155     0280                     l1492:
  2156                           
  2157                           ;Project_ATCS_Decorder_Module.c: 128:                 COUNT++;
  2158     0280  3001               	movlw	1
  2159     0281  00A0               	movwf	??_EEPROM_SELECT
  2160     0282  0820               	movf	??_EEPROM_SELECT,w
  2161     0283  07A4               	addwf	EEPROM_SELECT@COUNT,f
  2162     0284                     l1494:
  2163                           
  2164                           ;Project_ATCS_Decorder_Module.c: 129:                 EEADR = EE_STORE.EE_ADRS++;
  2165     0284  084F               	movf	_EE_STORE+3,w
  2166     0285  0023               	movlb	3	; select bank3
  2167     0286  0092               	movwf	18	;volatile
  2168     0287  0020               	movlb	0	; select bank0
  2169     0288  084E               	movf	_EE_STORE+2,w
  2170     0289  0023               	movlb	3	; select bank3
  2171     028A  0091               	movwf	17	;volatile
  2172     028B                     l1496:
  2173     028B  3001               	movlw	1
  2174     028C  0020               	movlb	0	; select bank0
  2175     028D  07CE               	addwf	_EE_STORE+2,f
  2176     028E  3000               	movlw	0
  2177     028F  3DCF               	addwfc	_EE_STORE+3,f
  2178     0290                     l1498:
  2179                           
  2180                           ;Project_ATCS_Decorder_Module.c: 130:             }while(COUNT < 4);
  2181     0290  3004               	movlw	4
  2182     0291  0224               	subwf	EEPROM_SELECT@COUNT,w
  2183     0292  1C03               	skipc
  2184     0293  2A95               	goto	u761
  2185     0294  2A96               	goto	u760
  2186     0295                     u761:
  2187     0295  2A3C               	goto	l1480
  2188     0296                     u760:
  2189     0296                     l190:
  2190                           
  2191                           ;Project_ATCS_Decorder_Module.c: 131:             INTCONbits.GIE = 1;
  2192     0296  178B               	bsf	11,7	;volatile
  2193                           
  2194                           ;Project_ATCS_Decorder_Module.c: 132:             return;
  2195     0297  2AB4               	goto	l156
  2196     0298                     l1502:
  2197     0298  084C               	movf	_EE_STORE,w
  2198     0299  00A0               	movwf	??_EEPROM_SELECT
  2199     029A  01A1               	clrf	??_EEPROM_SELECT+1
  2200                           
  2201                           ; Switch on 2 bytes has been partitioned into a top level switch of size 1, and 1 sub-sw
      +                          itches
  2202                           ; Switch size 1, requested type "simple"
  2203                           ; Number of cases is 1, Range of values is 0 to 0
  2204                           ; switch strategies available:
  2205                           ; Name         Instructions Cycles
  2206                           ; simple_byte            4     3 (average)
  2207                           ; direct_byte            8     6 (fixed)
  2208                           ; jumptable            260     6 (fixed)
  2209                           ;	Chosen strategy is simple_byte
  2210     029B  0821               	movf	??_EEPROM_SELECT+1,w
  2211     029C  3A00               	xorlw	0	; case 0
  2212     029D  1903               	skipnz
  2213     029E  2AA0               	goto	l1940
  2214     029F  2AB4               	goto	l156
  2215     02A0                     l1940:
  2216                           
  2217                           ; Switch size 1, requested type "simple"
  2218                           ; Number of cases is 6, Range of values is 0 to 5
  2219                           ; switch strategies available:
  2220                           ; Name         Instructions Cycles
  2221                           ; direct_byte           18     6 (fixed)
  2222                           ; simple_byte           19    10 (average)
  2223                           ; jumptable            260     6 (fixed)
  2224                           ;	Chosen strategy is simple_byte
  2225     02A0  0820               	movf	??_EEPROM_SELECT,w
  2226     02A1  3A00               	xorlw	0	; case 0
  2227     02A2  1903               	skipnz
  2228     02A3  28FA               	goto	l1370
  2229     02A4  3A01               	xorlw	1	; case 1
  2230     02A5  1903               	skipnz
  2231     02A6  293B               	goto	l1388
  2232     02A7  3A03               	xorlw	3	; case 2
  2233     02A8  1903               	skipnz
  2234     02A9  2970               	goto	l165
  2235     02AA  3A01               	xorlw	1	; case 3
  2236     02AB  1903               	skipnz
  2237     02AC  29B5               	goto	l169
  2238     02AD  3A07               	xorlw	7	; case 4
  2239     02AE  1903               	skipnz
  2240     02AF  29FF               	goto	l1450
  2241     02B0  3A01               	xorlw	1	; case 5
  2242     02B1  1903               	skipnz
  2243     02B2  2A3C               	goto	l1480
  2244     02B3  2AB4               	goto	l156
  2245     02B4                     l156:
  2246     02B4  0008               	return
  2247     02B5                     __end_of_EEPROM_SELECT:
  2248                           
  2249                           	psect	intentry
  2250     0004                     __pintentry:	
  2251 ;; *************** function _isr *****************
  2252 ;; Defined at:
  2253 ;;		line 15 in file "Project_ATCS_Decorder_INTERRUPT.c"
  2254 ;; Parameters:    Size  Location     Type
  2255 ;;		None
  2256 ;; Auto vars:     Size  Location     Type
  2257 ;;  COUNT           2    6[COMMON] unsigned short 
  2258 ;; Return value:  Size  Location     Type
  2259 ;;                  1    wreg      void 
  2260 ;; Registers used:
  2261 ;;		wreg, fsr0l, fsr0h, fsr1l, fsr1h, status,2, status,0, pclath, cstack
  2262 ;; Tracked objects:
  2263 ;;		On entry : 0/0
  2264 ;;		On exit  : 0/0
  2265 ;;		Unchanged: 0/0
  2266 ;; Data sizes:     COMMON   BANK0
  2267 ;;      Params:         0       0
  2268 ;;      Locals:         2       0
  2269 ;;      Temps:          1       0
  2270 ;;      Totals:         3       0
  2271 ;;Total ram usage:        3 bytes
  2272 ;; Hardware stack levels used: 1
  2273 ;; Hardware stack levels required when called: 1
  2274 ;; This function calls:
  2275 ;;		i1_EEPROM_SELECT
  2276 ;; This function is called by:
  2277 ;;		Interrupt level 1
  2278 ;; This function uses a non-reentrant model
  2279 ;;
  2280                           
  2281     0004                     _isr:
  2282                           
  2283                           ;incstack = 0
  2284     0004  147E               	bsf	int$flags,0	;set compiler interrupt flag (level 1)
  2285                           
  2286                           ; Regs used in _isr: [wreg-fsr1h+status,2+status,0+pclath+cstack]
  2287     0005  3180               	pagesel	$
  2288     0006                     i1l1760:
  2289     0006                     i1l1762:
  2290                           
  2291                           ;Project_ATCS_Decorder_INTERRUPT.c: 18:     if(INTCONbits.IOCIF){
  2292     0006  1C0B               	btfss	11,0	;volatile
  2293     0007  2809               	goto	u104_21
  2294     0008  280A               	goto	u104_20
  2295     0009                     u104_21:
  2296     0009  28BD               	goto	i1l97
  2297     000A                     u104_20:
  2298     000A                     i1l1764:
  2299                           
  2300                           ;Project_ATCS_Decorder_INTERRUPT.c: 19:         COUNT = TMR1;
  2301     000A  0020               	movlb	0	; select bank0
  2302     000B  0817               	movf	23,w	;volatile
  2303     000C  00F7               	movwf	isr@COUNT+1
  2304     000D  0816               	movf	22,w	;volatile
  2305     000E  00F6               	movwf	isr@COUNT
  2306     000F                     i1l1766:
  2307                           
  2308                           ;Project_ATCS_Decorder_INTERRUPT.c: 20:         TMR1 = 0x00;
  2309     000F  0196               	clrf	22	;volatile
  2310     0010  0197               	clrf	23	;volatile
  2311     0011                     i1l1768:
  2312                           
  2313                           ;Project_ATCS_Decorder_INTERRUPT.c: 21:         IOCAF = 0x00;
  2314     0011  0027               	movlb	7	; select bank7
  2315     0012  0193               	clrf	19	;volatile
  2316     0013                     i1l1770:
  2317                           
  2318                           ;Project_ATCS_Decorder_INTERRUPT.c: 23:         if(!(COM_FLAG & 0x01)){
  2319     0013  0020               	movlb	0	; select bank0
  2320     0014  185D               	btfsc	_COM_FLAG,0
  2321     0015  2817               	goto	u105_21
  2322     0016  2818               	goto	u105_20
  2323     0017                     u105_21:
  2324     0017  284F               	goto	i1l98
  2325     0018                     u105_20:
  2326     0018                     i1l1772:
  2327                           
  2328                           ;Project_ATCS_Decorder_INTERRUPT.c: 24:             if(COUNT >= 0x00C0 && COUNT <= 0x010
      +                          0 && !(COM_FLAG & 0x02) ){
  2329     0018  3000               	movlw	0
  2330     0019  0277               	subwf	isr@COUNT+1,w
  2331     001A  30C0               	movlw	192
  2332     001B  1903               	skipnz
  2333     001C  0276               	subwf	isr@COUNT,w
  2334     001D  1C03               	skipc
  2335     001E  2820               	goto	u106_21
  2336     001F  2821               	goto	u106_20
  2337     0020                     u106_21:
  2338     0020  2833               	goto	i1l1780
  2339     0021                     u106_20:
  2340     0021                     i1l1774:
  2341     0021  3001               	movlw	1
  2342     0022  0277               	subwf	isr@COUNT+1,w
  2343     0023  3001               	movlw	1
  2344     0024  1903               	skipnz
  2345     0025  0276               	subwf	isr@COUNT,w
  2346     0026  1803               	skipnc
  2347     0027  2829               	goto	u107_21
  2348     0028  282A               	goto	u107_20
  2349     0029                     u107_21:
  2350     0029  2833               	goto	i1l1780
  2351     002A                     u107_20:
  2352     002A                     i1l1776:
  2353     002A  18DD               	btfsc	_COM_FLAG,1
  2354     002B  282D               	goto	u108_21
  2355     002C  282E               	goto	u108_20
  2356     002D                     u108_21:
  2357     002D  2833               	goto	i1l1780
  2358     002E                     u108_20:
  2359     002E                     i1l1778:
  2360                           
  2361                           ;Project_ATCS_Decorder_INTERRUPT.c: 25:                 COUNTER++;
  2362     002E  3001               	movlw	1
  2363     002F  00F5               	movwf	??_isr
  2364     0030  0875               	movf	??_isr,w
  2365     0031  07F8               	addwf	_COUNTER,f
  2366                           
  2367                           ;Project_ATCS_Decorder_INTERRUPT.c: 26:             }
  2368     0032  28E0               	goto	i1l124
  2369     0033                     i1l1780:
  2370     0033  3000               	movlw	0
  2371     0034  0277               	subwf	isr@COUNT+1,w
  2372     0035  3081               	movlw	129
  2373     0036  1903               	skipnz
  2374     0037  0276               	subwf	isr@COUNT,w
  2375     0038  1803               	skipnc
  2376     0039  283B               	goto	u109_21
  2377     003A  283C               	goto	u109_20
  2378     003B                     u109_21:
  2379     003B  2840               	goto	i1l1784
  2380     003C                     u109_20:
  2381     003C                     i1l1782:
  2382     003C  1CDD               	btfss	_COM_FLAG,1
  2383     003D  283F               	goto	u110_21
  2384     003E  2840               	goto	u110_20
  2385     003F                     u110_21:
  2386     003F  28E0               	goto	i1l124
  2387     0040                     u110_20:
  2388     0040                     i1l1784:
  2389                           
  2390                           ;Project_ATCS_Decorder_INTERRUPT.c: 29:                 if(COUNTER > 11){
  2391     0040  300C               	movlw	12
  2392     0041  0278               	subwf	_COUNTER,w
  2393     0042  1C03               	skipc
  2394     0043  2845               	goto	u111_21
  2395     0044  2846               	goto	u111_20
  2396     0045                     u111_21:
  2397     0045  28BC               	goto	i1l105
  2398     0046                     u111_20:
  2399     0046                     i1l1786:
  2400                           
  2401                           ;Project_ATCS_Decorder_INTERRUPT.c: 30:                     COM_FLAG = COM_FLAG | 0x01;
  2402     0046  085D               	movf	_COM_FLAG,w
  2403     0047  3801               	iorlw	1
  2404     0048  00DD               	movwf	_COM_FLAG
  2405                           
  2406                           ;Project_ATCS_Decorder_INTERRUPT.c: 31:                     COM_FLAG = COM_FLAG & 0xFD;
  2407     0049  085D               	movf	_COM_FLAG,w
  2408     004A  39FD               	andlw	253
  2409     004B  00DD               	movwf	_COM_FLAG
  2410     004C                     i1l1788:
  2411                           
  2412                           ;Project_ATCS_Decorder_INTERRUPT.c: 32:                     COUNTER = 0x00;
  2413     004C  01F8               	clrf	_COUNTER
  2414     004D                     i1l1790:
  2415                           
  2416                           ;Project_ATCS_Decorder_INTERRUPT.c: 33:                     DATA = 0x00;
  2417     004D  01F9               	clrf	_DATA
  2418     004E  28E0               	goto	i1l124
  2419     004F                     i1l98:
  2420     004F  1C5D               	btfss	_COM_FLAG,0
  2421     0050  2852               	goto	u112_21
  2422     0051  2853               	goto	u112_20
  2423     0052                     u112_21:
  2424     0052  28E0               	goto	i1l124
  2425     0053                     u112_20:
  2426     0053                     i1l1792:
  2427                           
  2428                           ;Project_ATCS_Decorder_INTERRUPT.c: 38:             if(COUNTER < 8 ){
  2429     0053  3008               	movlw	8
  2430     0054  0278               	subwf	_COUNTER,w
  2431     0055  1803               	skipnc
  2432     0056  2858               	goto	u113_21
  2433     0057  2859               	goto	u113_20
  2434     0058                     u113_21:
  2435     0058  2883               	goto	i1l1808
  2436     0059                     u113_20:
  2437     0059                     i1l1794:
  2438                           
  2439                           ;Project_ATCS_Decorder_INTERRUPT.c: 39:                 if(COUNT >= 0x00C0 && COUNT <= 0
      +                          x0100 && !(COM_FLAG & 0x02)){
  2440     0059  3000               	movlw	0
  2441     005A  0277               	subwf	isr@COUNT+1,w
  2442     005B  30C0               	movlw	192
  2443     005C  1903               	skipnz
  2444     005D  0276               	subwf	isr@COUNT,w
  2445     005E  1C03               	skipc
  2446     005F  2861               	goto	u114_21
  2447     0060  2862               	goto	u114_20
  2448     0061                     u114_21:
  2449     0061  2872               	goto	i1l1802
  2450     0062                     u114_20:
  2451     0062                     i1l1796:
  2452     0062  3001               	movlw	1
  2453     0063  0277               	subwf	isr@COUNT+1,w
  2454     0064  3001               	movlw	1
  2455     0065  1903               	skipnz
  2456     0066  0276               	subwf	isr@COUNT,w
  2457     0067  1803               	skipnc
  2458     0068  286A               	goto	u115_21
  2459     0069  286B               	goto	u115_20
  2460     006A                     u115_21:
  2461     006A  2872               	goto	i1l1802
  2462     006B                     u115_20:
  2463     006B                     i1l1798:
  2464     006B  18DD               	btfsc	_COM_FLAG,1
  2465     006C  286E               	goto	u116_21
  2466     006D  286F               	goto	u116_20
  2467     006E                     u116_21:
  2468     006E  2872               	goto	i1l1802
  2469     006F                     u116_20:
  2470     006F                     i1l1800:
  2471                           
  2472                           ;Project_ATCS_Decorder_INTERRUPT.c: 40:                     DATA = (UnCHR) (DATA << 1) |
      +                           0x01;
  2473     006F  1403               	setc
  2474     0070  0DF9               	rlf	_DATA,f
  2475                           
  2476                           ;Project_ATCS_Decorder_INTERRUPT.c: 41:                 }else if(COUNT > 0x0080 || COM_F
      +                          LAG & 0x02){
  2477     0071  282E               	goto	i1l1778
  2478     0072                     i1l1802:
  2479     0072  3000               	movlw	0
  2480     0073  0277               	subwf	isr@COUNT+1,w
  2481     0074  3081               	movlw	129
  2482     0075  1903               	skipnz
  2483     0076  0276               	subwf	isr@COUNT,w
  2484     0077  1803               	skipnc
  2485     0078  287A               	goto	u117_21
  2486     0079  287B               	goto	u117_20
  2487     007A                     u117_21:
  2488     007A  287F               	goto	i1l1806
  2489     007B                     u117_20:
  2490     007B                     i1l1804:
  2491     007B  1CDD               	btfss	_COM_FLAG,1
  2492     007C  287E               	goto	u118_21
  2493     007D  287F               	goto	u118_20
  2494     007E                     u118_21:
  2495     007E  282E               	goto	i1l1778
  2496     007F                     u118_20:
  2497     007F                     i1l1806:
  2498                           
  2499                           ;Project_ATCS_Decorder_INTERRUPT.c: 42:                     DATA = (UnCHR) (DATA << 1) &
      +                           0xFE;
  2500     007F  3579               	lslf	_DATA,w
  2501     0080  39FE               	andlw	254
  2502     0081  00F9               	movwf	_DATA
  2503     0082  282E               	goto	i1l1778
  2504     0083                     i1l1808:
  2505                           
  2506                           ;Project_ATCS_Decorder_INTERRUPT.c: 47:                 if(COUNT >= 0x00C0 && COUNT <= 0
      +                          x0100 && !(COM_FLAG & 0x02)){
  2507     0083  3000               	movlw	0
  2508     0084  0277               	subwf	isr@COUNT+1,w
  2509     0085  30C0               	movlw	192
  2510     0086  1903               	skipnz
  2511     0087  0276               	subwf	isr@COUNT,w
  2512     0088  1C03               	skipc
  2513     0089  288B               	goto	u119_21
  2514     008A  288C               	goto	u119_20
  2515     008B                     u119_21:
  2516     008B  28A6               	goto	i1l1820
  2517     008C                     u119_20:
  2518     008C                     i1l1810:
  2519     008C  3001               	movlw	1
  2520     008D  0277               	subwf	isr@COUNT+1,w
  2521     008E  3001               	movlw	1
  2522     008F  1903               	skipnz
  2523     0090  0276               	subwf	isr@COUNT,w
  2524     0091  1803               	skipnc
  2525     0092  2894               	goto	u120_21
  2526     0093  2895               	goto	u120_20
  2527     0094                     u120_21:
  2528     0094  28A6               	goto	i1l1820
  2529     0095                     u120_20:
  2530     0095                     i1l1812:
  2531     0095  18DD               	btfsc	_COM_FLAG,1
  2532     0096  2898               	goto	u121_21
  2533     0097  2899               	goto	u121_20
  2534     0098                     u121_21:
  2535     0098  28A6               	goto	i1l1820
  2536     0099                     u121_20:
  2537     0099                     i1l1814:
  2538                           
  2539                           ;Project_ATCS_Decorder_INTERRUPT.c: 48:                     STACK[STCR] = DATA;
  2540     0099  085C               	movf	_STCR,w
  2541     009A  3EA0               	addlw	160
  2542     009B  0086               	movwf	6
  2543     009C  0187               	clrf	7
  2544     009D  0879               	movf	_DATA,w
  2545     009E  0081               	movwf	1
  2546     009F                     i1l1816:
  2547                           
  2548                           ;Project_ATCS_Decorder_INTERRUPT.c: 49:                     COM_FLAG = COM_FLAG | 0x04;
  2549     009F  085D               	movf	_COM_FLAG,w
  2550     00A0  3804               	iorlw	4
  2551     00A1  00DD               	movwf	_COM_FLAG
  2552     00A2                     i1l1818:
  2553                           
  2554                           ;Project_ATCS_Decorder_INTERRUPT.c: 50:                     COM_FLAG = COM_FLAG & 0xFE;
  2555     00A2  085D               	movf	_COM_FLAG,w
  2556     00A3  39FE               	andlw	254
  2557     00A4  00DD               	movwf	_COM_FLAG
  2558                           
  2559                           ;Project_ATCS_Decorder_INTERRUPT.c: 51:                 }else{
  2560     00A5  28BA               	goto	i1l1830
  2561     00A6                     i1l1820:
  2562                           
  2563                           ;Project_ATCS_Decorder_INTERRUPT.c: 52:                     if(STCR == 32){
  2564     00A6  3020               	movlw	32
  2565     00A7  065C               	xorwf	_STCR,w
  2566     00A8  1D03               	btfss	3,2
  2567     00A9  28AB               	goto	u122_21
  2568     00AA  28AC               	goto	u122_20
  2569     00AB                     u122_21:
  2570     00AB  28AD               	goto	i1l1824
  2571     00AC                     u122_20:
  2572     00AC                     i1l1822:
  2573                           
  2574                           ;Project_ATCS_Decorder_INTERRUPT.c: 53:                         STCR = 0;
  2575     00AC  01DC               	clrf	_STCR
  2576     00AD                     i1l1824:
  2577                           
  2578                           ;Project_ATCS_Decorder_INTERRUPT.c: 55:                     STACK[STCR] = DATA;
  2579     00AD  085C               	movf	_STCR,w
  2580     00AE  3EA0               	addlw	160
  2581     00AF  0086               	movwf	6
  2582     00B0  0187               	clrf	7
  2583     00B1  0879               	movf	_DATA,w
  2584     00B2  0081               	movwf	1
  2585     00B3                     i1l1826:
  2586                           
  2587                           ;Project_ATCS_Decorder_INTERRUPT.c: 56:                     COM_FLAG = COM_FLAG & 0xFB;
  2588     00B3  085D               	movf	_COM_FLAG,w
  2589     00B4  39FB               	andlw	251
  2590     00B5  00DD               	movwf	_COM_FLAG
  2591     00B6                     i1l1828:
  2592                           
  2593                           ;Project_ATCS_Decorder_INTERRUPT.c: 57:                     STCR++;
  2594     00B6  3001               	movlw	1
  2595     00B7  00F5               	movwf	??_isr
  2596     00B8  0875               	movf	??_isr,w
  2597     00B9  07DC               	addwf	_STCR,f
  2598     00BA                     i1l1830:
  2599                           
  2600                           ;Project_ATCS_Decorder_INTERRUPT.c: 59:                 COUNTER = 0x00;
  2601     00BA  01F8               	clrf	_COUNTER
  2602     00BB  28E0               	goto	i1l124
  2603     00BC                     i1l105:
  2604                           
  2605                           ;Project_ATCS_Decorder_INTERRUPT.c: 62:     }else if(PIR1bits.TMR1IF){
  2606     00BC  28E0               	goto	i1l124
  2607     00BD                     i1l97:
  2608     00BD  0020               	movlb	0	; select bank0
  2609     00BE  1C11               	btfss	17,0	;volatile
  2610     00BF  28C1               	goto	u123_21
  2611     00C0  28C2               	goto	u123_20
  2612     00C1                     u123_21:
  2613     00C1  28C7               	goto	i1l118
  2614     00C2                     u123_20:
  2615     00C2                     i1l1832:
  2616                           
  2617                           ;Project_ATCS_Decorder_INTERRUPT.c: 63:         PIR1 = 0x00;
  2618     00C2  0191               	clrf	17	;volatile
  2619     00C3                     i1l1834:
  2620                           
  2621                           ;Project_ATCS_Decorder_INTERRUPT.c: 64:         COM_FLAG = COM_FLAG | 0x02;
  2622     00C3  085D               	movf	_COM_FLAG,w
  2623     00C4  3802               	iorlw	2
  2624     00C5  00DD               	movwf	_COM_FLAG
  2625                           
  2626                           ;Project_ATCS_Decorder_INTERRUPT.c: 65:     }else if(PIR2bits.EEIF){
  2627     00C6  28E0               	goto	i1l124
  2628     00C7                     i1l118:
  2629     00C7  1E12               	btfss	18,4	;volatile
  2630     00C8  28CA               	goto	u124_21
  2631     00C9  28CB               	goto	u124_20
  2632     00CA                     u124_21:
  2633     00CA  28E0               	goto	i1l124
  2634     00CB                     u124_20:
  2635     00CB                     i1l1836:
  2636                           
  2637                           ;Project_ATCS_Decorder_INTERRUPT.c: 66:         PIR2bits.EEIF = 0;
  2638     00CB  1212               	bcf	18,4	;volatile
  2639     00CC                     i1l1838:
  2640                           
  2641                           ;Project_ATCS_Decorder_INTERRUPT.c: 67:         if(EE_STORE.EE_STATE == EE_WRITE_UID){
  2642     00CC  3002               	movlw	2
  2643     00CD  064C               	xorwf	_EE_STORE,w
  2644     00CE  1D03               	btfss	3,2
  2645     00CF  28D1               	goto	u125_21
  2646     00D0  28D2               	goto	u125_20
  2647     00D1                     u125_21:
  2648     00D1  28D5               	goto	i1l1842
  2649     00D2                     u125_20:
  2650     00D2                     i1l1840:
  2651                           
  2652                           ;Project_ATCS_Decorder_INTERRUPT.c: 68:             EE_STORE.EE_STATE = EE_VERIFY_UID;
  2653     00D2  3003               	movlw	3
  2654     00D3  00CC               	movwf	_EE_STORE
  2655                           
  2656                           ;Project_ATCS_Decorder_INTERRUPT.c: 69:         }else if(EE_STORE.EE_STATE == EE_WRITE_R
      +                          OM){
  2657     00D4  28DD               	goto	i1l1846
  2658     00D5                     i1l1842:
  2659     00D5  3004               	movlw	4
  2660     00D6  064C               	xorwf	_EE_STORE,w
  2661     00D7  1D03               	btfss	3,2
  2662     00D8  28DA               	goto	u126_21
  2663     00D9  28DB               	goto	u126_20
  2664     00DA                     u126_21:
  2665     00DA  28DD               	goto	i1l1846
  2666     00DB                     u126_20:
  2667     00DB                     i1l1844:
  2668                           
  2669                           ;Project_ATCS_Decorder_INTERRUPT.c: 70:             EE_STORE.EE_STATE = EE_VERIFY_ROM;
  2670     00DB  3005               	movlw	5
  2671     00DC  00CC               	movwf	_EE_STORE
  2672     00DD                     i1l1846:
  2673                           
  2674                           ;Project_ATCS_Decorder_INTERRUPT.c: 72:         EEPROM_SELECT();
  2675     00DD  3182  22B5  3180   	fcall	i1_EEPROM_SELECT
  2676     00E0                     i1l124:
  2677     00E0  107E               	bcf	int$flags,0	;clear compiler interrupt flag (level 1)
  2678     00E1  0009               	retfie
  2679     00E2                     __end_of_isr:
  2680                           
  2681                           	psect	text6
  2682     02B5                     __ptext6:	
  2683 ;; *************** function i1_EEPROM_SELECT *****************
  2684 ;; Defined at:
  2685 ;;		line 12 in file "Project_ATCS_Decorder_Module.c"
  2686 ;; Parameters:    Size  Location     Type
  2687 ;;		None
  2688 ;; Auto vars:     Size  Location     Type
  2689 ;;  EE_SAVE         2    2[COMMON] unsigned int 
  2690 ;;  COUNT           1    4[COMMON] unsigned char 
  2691 ;; Return value:  Size  Location     Type
  2692 ;;                  1    wreg      void 
  2693 ;; Registers used:
  2694 ;;		wreg, fsr0l, fsr0h, fsr1l, fsr1h, status,2, status,0
  2695 ;; Tracked objects:
  2696 ;;		On entry : 0/0
  2697 ;;		On exit  : 0/0
  2698 ;;		Unchanged: 0/0
  2699 ;; Data sizes:     COMMON   BANK0
  2700 ;;      Params:         0       0
  2701 ;;      Locals:         3       0
  2702 ;;      Temps:          2       0
  2703 ;;      Totals:         5       0
  2704 ;;Total ram usage:        5 bytes
  2705 ;; Hardware stack levels used: 1
  2706 ;; This function calls:
  2707 ;;		Nothing
  2708 ;; This function is called by:
  2709 ;;		_isr
  2710 ;; This function uses a non-reentrant model
  2711 ;;
  2712                           
  2713     02B5                     i1_EEPROM_SELECT:	
  2714                           ;psect for function i1_EEPROM_SELECT
  2715                           
  2716     02B5                     i1l1540:	
  2717                           ;incstack = 0
  2718                           ; Regs used in i1_EEPROM_SELECT: [wreg-fsr1h+status,2+status,0]
  2719                           
  2720                           
  2721                           ;Project_ATCS_Decorder_Module.c: 13:     INTCONbits.GIE = 0;
  2722     02B5  138B               	bcf	11,7	;volatile
  2723     02B6                     i1l1542:
  2724                           
  2725                           ;Project_ATCS_Decorder_Module.c: 14:     UnCHR COUNT = 0x00 ;
  2726     02B6  01F4               	clrf	i1EEPROM_SELECT@COUNT
  2727                           
  2728                           ;Project_ATCS_Decorder_Module.c: 16:     switch (EE_STORE.EE_STATE) {
  2729     02B7  2C42               	goto	i1l1676
  2730     02B8                     i1l1544:
  2731                           
  2732                           ;Project_ATCS_Decorder_Module.c: 19:                 if(EE_STORE.EE_REPORT[COUNT]){
  2733     02B8  0874               	movf	i1EEPROM_SELECT@COUNT,w
  2734     02B9  3E58               	addlw	(low ((_EE_STORE| 0+12)))& (0+255)
  2735     02BA  0086               	movwf	6
  2736     02BB  0187               	clrf	7
  2737     02BC  0801               	movf	1,w
  2738     02BD  1903               	btfsc	3,2
  2739     02BE  2AC0               	goto	u78_21
  2740     02BF  2AC1               	goto	u78_20
  2741     02C0                     u78_21:
  2742     02C0  2ADF               	goto	i1l1554
  2743     02C1                     u78_20:
  2744     02C1                     i1l1546:
  2745                           
  2746                           ;Project_ATCS_Decorder_Module.c: 20:                     EEADR = EE_STORE.EE_ADRS;
  2747     02C1  084F               	movf	_EE_STORE+3,w
  2748     02C2  0023               	movlb	3	; select bank3
  2749     02C3  0092               	movwf	18	;volatile
  2750     02C4  0020               	movlb	0	; select bank0
  2751     02C5  084E               	movf	_EE_STORE+2,w
  2752     02C6  0023               	movlb	3	; select bank3
  2753     02C7  0091               	movwf	17	;volatile
  2754                           
  2755                           ;Project_ATCS_Decorder_Module.c: 21:                     EECON1 = EE_STORE.EE_CONFIG;
  2756     02C8  0020               	movlb	0	; select bank0
  2757     02C9  084D               	movf	_EE_STORE+1,w
  2758     02CA  0023               	movlb	3	; select bank3
  2759     02CB  0095               	movwf	21	;volsfr
  2760     02CC                     i1l153:	
  2761                           ;Project_ATCS_Decorder_Module.c: 22:                     while (EECON1bits.RD);
  2762                           
  2763     02CC  1815               	btfsc	21,0	;volsfr
  2764     02CD  2ACF               	goto	u79_21
  2765     02CE  2AD0               	goto	u79_20
  2766     02CF                     u79_21:
  2767     02CF  2ACC               	goto	i1l153
  2768     02D0                     u79_20:
  2769     02D0                     i1l1548:
  2770                           
  2771                           ;Project_ATCS_Decorder_Module.c: 23:                     EE_STORE.EE_DATA[COUNT] = EEDAT
      +                          ;
  2772     02D0  3574               	lslf	i1EEPROM_SELECT@COUNT,w
  2773     02D1  3E50               	addlw	(low ((_EE_STORE| 0+4)))& (0+255)
  2774     02D2  0086               	movwf	6
  2775     02D3  0187               	clrf	7
  2776     02D4  0813               	movf	19,w	;volatile
  2777     02D5  3FC0               	movwi [0]fsr1
  2778     02D6  0814               	movf	20,w	;volatile
  2779     02D7  3FC1               	movwi [1]fsr1
  2780     02D8                     i1l1550:
  2781                           
  2782                           ;Project_ATCS_Decorder_Module.c: 24:                     INTCONbits.GIE = 1;
  2783     02D8  178B               	bsf	11,7	;volatile
  2784                           
  2785                           ;Project_ATCS_Decorder_Module.c: 25:                     EE_STORE.EE_REPORT[COUNT] = 0x0
      +                          0;
  2786     02D9  0874               	movf	i1EEPROM_SELECT@COUNT,w
  2787     02DA  3E58               	addlw	(low ((_EE_STORE| 0+12)))& (0+255)
  2788     02DB  0086               	movwf	6
  2789     02DC  0187               	clrf	7
  2790     02DD  0181               	clrf	1
  2791     02DE  2C5F               	goto	i1l156
  2792     02DF                     i1l1554:
  2793                           
  2794                           ;Project_ATCS_Decorder_Module.c: 28:                 COUNT++;
  2795     02DF  3001               	movlw	1
  2796     02E0  00F0               	movwf	??i1_EEPROM_SELECT
  2797     02E1  0870               	movf	??i1_EEPROM_SELECT,w
  2798     02E2  07F4               	addwf	i1EEPROM_SELECT@COUNT,f
  2799     02E3                     i1l1556:
  2800                           
  2801                           ;Project_ATCS_Decorder_Module.c: 29:                 EEADR = EE_STORE.EE_ADRS++;
  2802     02E3  084F               	movf	_EE_STORE+3,w
  2803     02E4  0023               	movlb	3	; select bank3
  2804     02E5  0092               	movwf	18	;volatile
  2805     02E6  0020               	movlb	0	; select bank0
  2806     02E7  084E               	movf	_EE_STORE+2,w
  2807     02E8  0023               	movlb	3	; select bank3
  2808     02E9  0091               	movwf	17	;volatile
  2809     02EA                     i1l1558:
  2810     02EA  3001               	movlw	1
  2811     02EB  0020               	movlb	0	; select bank0
  2812     02EC  07CE               	addwf	_EE_STORE+2,f
  2813     02ED  3000               	movlw	0
  2814     02EE  3DCF               	addwfc	_EE_STORE+3,f
  2815     02EF                     i1l1560:
  2816                           
  2817                           ;Project_ATCS_Decorder_Module.c: 30:             }while(COUNT < 4);
  2818     02EF  3004               	movlw	4
  2819     02F0  0274               	subwf	i1EEPROM_SELECT@COUNT,w
  2820     02F1  1C03               	skipc
  2821     02F2  2AF4               	goto	u80_21
  2822     02F3  2AF5               	goto	u80_20
  2823     02F4                     u80_21:
  2824     02F4  2AB8               	goto	i1l1544
  2825     02F5                     u80_20:
  2826     02F5  2C5F               	goto	i1l156
  2827     02F6                     i1l1562:
  2828                           
  2829                           ;Project_ATCS_Decorder_Module.c: 35:                 if(EE_STORE.EE_REPORT[COUNT]){
  2830     02F6  0874               	movf	i1EEPROM_SELECT@COUNT,w
  2831     02F7  3E58               	addlw	(low ((_EE_STORE| 0+12)))& (0+255)
  2832     02F8  0086               	movwf	6
  2833     02F9  0187               	clrf	7
  2834     02FA  0801               	movf	1,w
  2835     02FB  1903               	btfsc	3,2
  2836     02FC  2AFE               	goto	u81_21
  2837     02FD  2AFF               	goto	u81_20
  2838     02FE                     u81_21:
  2839     02FE  2B1C               	goto	i1l1570
  2840     02FF                     u81_20:
  2841     02FF                     i1l1564:
  2842                           
  2843                           ;Project_ATCS_Decorder_Module.c: 36:                     EEADR = EE_STORE.EE_ADRS;
  2844     02FF  084F               	movf	_EE_STORE+3,w
  2845     0300  0023               	movlb	3	; select bank3
  2846     0301  0092               	movwf	18	;volatile
  2847     0302  0020               	movlb	0	; select bank0
  2848     0303  084E               	movf	_EE_STORE+2,w
  2849     0304  0023               	movlb	3	; select bank3
  2850     0305  0091               	movwf	17	;volatile
  2851                           
  2852                           ;Project_ATCS_Decorder_Module.c: 37:                     EECON1 = EE_STORE.EE_CONFIG;
  2853     0306  0020               	movlb	0	; select bank0
  2854     0307  084D               	movf	_EE_STORE+1,w
  2855     0308  0023               	movlb	3	; select bank3
  2856     0309  0095               	movwf	21	;volsfr
  2857     030A                     i1l1566:
  2858                           
  2859                           ;Project_ATCS_Decorder_Module.c: 38:                     EECON1bits.RD = 1;
  2860     030A  1415               	bsf	21,0	;volsfr
  2861     030B                     i1l161:	
  2862                           ;Project_ATCS_Decorder_Module.c: 39:                     while (EECON1bits.RD);
  2863                           
  2864     030B  1815               	btfsc	21,0	;volsfr
  2865     030C  2B0E               	goto	u82_21
  2866     030D  2B0F               	goto	u82_20
  2867     030E                     u82_21:
  2868     030E  2B0B               	goto	i1l161
  2869     030F                     u82_20:
  2870     030F                     i1l1568:
  2871                           
  2872                           ;Project_ATCS_Decorder_Module.c: 40:                     EE_STORE.EE_DATA[COUNT] = EEDAT
      +                          ;
  2873     030F  3574               	lslf	i1EEPROM_SELECT@COUNT,w
  2874     0310  3E50               	addlw	(low ((_EE_STORE| 0+4)))& (0+255)
  2875     0311  0086               	movwf	6
  2876     0312  0187               	clrf	7
  2877     0313  0813               	movf	19,w	;volatile
  2878     0314  3FC0               	movwi [0]fsr1
  2879     0315  0814               	movf	20,w	;volatile
  2880     0316  3FC1               	movwi [1]fsr1
  2881                           
  2882                           ;Project_ATCS_Decorder_Module.c: 41:                     EE_STORE.EE_REPORT[COUNT] = 0x0
      +                          0;
  2883     0317  0874               	movf	i1EEPROM_SELECT@COUNT,w
  2884     0318  3E58               	addlw	(low ((_EE_STORE| 0+12)))& (0+255)
  2885     0319  0086               	movwf	6
  2886     031A  0187               	clrf	7
  2887     031B  0181               	clrf	1
  2888     031C                     i1l1570:
  2889                           
  2890                           ;Project_ATCS_Decorder_Module.c: 43:                 EE_STORE.EE_ADRS++;
  2891     031C  3001               	movlw	1
  2892     031D  0020               	movlb	0	; select bank0
  2893     031E  07CE               	addwf	_EE_STORE+2,f
  2894     031F  3000               	movlw	0
  2895     0320  3DCF               	addwfc	_EE_STORE+3,f
  2896     0321                     i1l1572:
  2897                           
  2898                           ;Project_ATCS_Decorder_Module.c: 44:             } while (COUNT < 4);
  2899     0321  3004               	movlw	4
  2900     0322  0274               	subwf	i1EEPROM_SELECT@COUNT,w
  2901     0323  1C03               	skipc
  2902     0324  2B26               	goto	u83_21
  2903     0325  2B27               	goto	u83_20
  2904     0326                     u83_21:
  2905     0326  2AF6               	goto	i1l1562
  2906     0327                     u83_20:
  2907     0327                     i1l164:
  2908                           
  2909                           ;Project_ATCS_Decorder_Module.c: 45:             INTCONbits.GIE = 1;
  2910     0327  178B               	bsf	11,7	;volatile
  2911                           
  2912                           ;Project_ATCS_Decorder_Module.c: 46:             return;
  2913     0328  2C5F               	goto	i1l156
  2914     0329                     i1l165:	
  2915                           ;Project_ATCS_Decorder_Module.c: 48:         case EE_WRITE_UID:
  2916                           
  2917                           
  2918                           ;Project_ATCS_Decorder_Module.c: 49:             INTCONbits.GIE = 0;
  2919     0329  138B               	bcf	11,7	;volatile
  2920     032A                     i1l1574:
  2921                           
  2922                           ;Project_ATCS_Decorder_Module.c: 50:             UnINT EE_SAVE = EE_STORE.EE_ADRS;
  2923     032A  084F               	movf	_EE_STORE+3,w
  2924     032B  00F3               	movwf	i1EEPROM_SELECT@EE_SAVE+1
  2925     032C  084E               	movf	_EE_STORE+2,w
  2926     032D  00F2               	movwf	i1EEPROM_SELECT@EE_SAVE
  2927     032E                     i1l1576:
  2928                           
  2929                           ;Project_ATCS_Decorder_Module.c: 52:                 if(EE_STORE.EE_REPORT[COUNT]){
  2930     032E  0874               	movf	i1EEPROM_SELECT@COUNT,w
  2931     032F  3E58               	addlw	(low ((_EE_STORE| 0+12)))& (0+255)
  2932     0330  0086               	movwf	6
  2933     0331  0187               	clrf	7
  2934     0332  0801               	movf	1,w
  2935     0333  1903               	btfsc	3,2
  2936     0334  2B36               	goto	u84_21
  2937     0335  2B37               	goto	u84_20
  2938     0336                     u84_21:
  2939     0336  2B4D               	goto	i1l1590
  2940     0337                     u84_20:
  2941     0337                     i1l1578:
  2942                           
  2943                           ;Project_ATCS_Decorder_Module.c: 53:                     EEADR = EE_STORE.EE_ADRS;
  2944     0337  084F               	movf	_EE_STORE+3,w
  2945     0338  0023               	movlb	3	; select bank3
  2946     0339  0092               	movwf	18	;volatile
  2947     033A  0020               	movlb	0	; select bank0
  2948     033B  084E               	movf	_EE_STORE+2,w
  2949     033C  0023               	movlb	3	; select bank3
  2950     033D  0091               	movwf	17	;volatile
  2951     033E                     i1l1580:
  2952                           
  2953                           ;Project_ATCS_Decorder_Module.c: 54:                     EEDAT = EE_STORE.EE_DATA[COUNT]
      +                          ;
  2954     033E  3574               	lslf	i1EEPROM_SELECT@COUNT,w
  2955     033F  3E50               	addlw	(low ((_EE_STORE| 0+4)))& (0+255)
  2956     0340  0086               	movwf	6
  2957     0341  0187               	clrf	7
  2958     0342  3F40               	moviw [0]fsr1
  2959     0343  0093               	movwf	19	;volatile
  2960     0344  3F41               	moviw [1]fsr1
  2961     0345  0094               	movwf	20	;volatile
  2962     0346                     i1l1582:
  2963                           
  2964                           ;Project_ATCS_Decorder_Module.c: 55:                     EECON1 = 0x64;
  2965     0346  3064               	movlw	100
  2966     0347  0095               	movwf	21	;volsfr
  2967     0348                     i1l1584:
  2968                           
  2969                           ;Project_ATCS_Decorder_Module.c: 56:                     EECON2 = 0x55;
  2970     0348  3055               	movlw	85
  2971     0349  0096               	movwf	22	;volsfr
  2972     034A                     i1l1586:
  2973                           
  2974                           ;Project_ATCS_Decorder_Module.c: 57:                     EECON2 = 0xAA;
  2975     034A  30AA               	movlw	170
  2976     034B  0096               	movwf	22	;volsfr
  2977     034C                     i1l1588:
  2978                           
  2979                           ;Project_ATCS_Decorder_Module.c: 58:                     EECON1bits.WR = 1;
  2980     034C  1495               	bsf	21,1	;volsfr
  2981     034D                     i1l1590:
  2982                           
  2983                           ;Project_ATCS_Decorder_Module.c: 60:                 COUNT++;
  2984     034D  3001               	movlw	1
  2985     034E  00F0               	movwf	??i1_EEPROM_SELECT
  2986     034F  0870               	movf	??i1_EEPROM_SELECT,w
  2987     0350  07F4               	addwf	i1EEPROM_SELECT@COUNT,f
  2988     0351                     i1l1592:
  2989                           
  2990                           ;Project_ATCS_Decorder_Module.c: 61:                 EE_STORE.EE_ADRS++;
  2991     0351  3001               	movlw	1
  2992     0352  0020               	movlb	0	; select bank0
  2993     0353  07CE               	addwf	_EE_STORE+2,f
  2994     0354  3000               	movlw	0
  2995     0355  3DCF               	addwfc	_EE_STORE+3,f
  2996     0356                     i1l1594:
  2997                           
  2998                           ;Project_ATCS_Decorder_Module.c: 62:             } while (COUNT < 4);
  2999     0356  3004               	movlw	4
  3000     0357  0274               	subwf	i1EEPROM_SELECT@COUNT,w
  3001     0358  1C03               	skipc
  3002     0359  2B5B               	goto	u85_21
  3003     035A  2B5C               	goto	u85_20
  3004     035B                     u85_21:
  3005     035B  2B2E               	goto	i1l1576
  3006     035C                     u85_20:
  3007     035C                     i1l1596:
  3008                           
  3009                           ;Project_ATCS_Decorder_Module.c: 63:             EE_STORE.EE_ADRS = EE_SAVE;
  3010     035C  0873               	movf	i1EEPROM_SELECT@EE_SAVE+1,w
  3011     035D  00CF               	movwf	_EE_STORE+3
  3012     035E  0872               	movf	i1EEPROM_SELECT@EE_SAVE,w
  3013     035F  00CE               	movwf	_EE_STORE+2
  3014                           
  3015                           ;Project_ATCS_Decorder_Module.c: 65:             EECON1 = 0x44;
  3016     0360  3044               	movlw	68
  3017     0361  0023               	movlb	3	; select bank3
  3018     0362  0095               	movwf	21	;volsfr
  3019                           
  3020                           ;Project_ATCS_Decorder_Module.c: 66:             EECON2 = 0x55;
  3021     0363  3055               	movlw	85
  3022     0364  0096               	movwf	22	;volsfr
  3023                           
  3024                           ;Project_ATCS_Decorder_Module.c: 67:             EECON2 = 0xAA;
  3025     0365  30AA               	movlw	170
  3026     0366  0096               	movwf	22	;volsfr
  3027     0367                     i1l1598:
  3028                           
  3029                           ;Project_ATCS_Decorder_Module.c: 69:             EECON1bits.WR = 1;
  3030     0367  1495               	bsf	21,1	;volsfr
  3031     0368                     i1l1600:
  3032                           
  3033                           ;Project_ATCS_Decorder_Module.c: 70:             __nop();
  3034     0368  0000               	nop
  3035     0369                     i1l1602:
  3036                           
  3037                           ;Project_ATCS_Decorder_Module.c: 71:             __nop();
  3038     0369  0000               	nop
  3039     036A                     i1l1604:
  3040                           
  3041                           ;Project_ATCS_Decorder_Module.c: 72:             INTCONbits.GIE = 1;
  3042     036A  178B               	bsf	11,7	;volatile
  3043     036B  2C5F               	goto	i1l156
  3044     036C                     i1l169:	
  3045                           ;Project_ATCS_Decorder_Module.c: 75:         case EE_VERIFY_UID:
  3046                           
  3047                           
  3048                           ;Project_ATCS_Decorder_Module.c: 76:             INTCONbits.GIE = 0;
  3049     036C  138B               	bcf	11,7	;volatile
  3050     036D                     i1l1608:
  3051                           
  3052                           ;Project_ATCS_Decorder_Module.c: 78:                 if(EE_STORE.EE_REPORT[COUNT]){
  3053     036D  0874               	movf	i1EEPROM_SELECT@COUNT,w
  3054     036E  3E58               	addlw	(low ((_EE_STORE| 0+12)))& (0+255)
  3055     036F  0086               	movwf	6
  3056     0370  0187               	clrf	7
  3057     0371  0801               	movf	1,w
  3058     0372  1903               	btfsc	3,2
  3059     0373  2B75               	goto	u86_21
  3060     0374  2B76               	goto	u86_20
  3061     0375                     u86_21:
  3062     0375  2BA1               	goto	i1l1618
  3063     0376                     u86_20:
  3064     0376                     i1l1610:
  3065                           
  3066                           ;Project_ATCS_Decorder_Module.c: 79:                     EEADR = EE_STORE.EE_ADRS;
  3067     0376  084F               	movf	_EE_STORE+3,w
  3068     0377  0023               	movlb	3	; select bank3
  3069     0378  0092               	movwf	18	;volatile
  3070     0379  0020               	movlb	0	; select bank0
  3071     037A  084E               	movf	_EE_STORE+2,w
  3072     037B  0023               	movlb	3	; select bank3
  3073     037C  0091               	movwf	17	;volatile
  3074                           
  3075                           ;Project_ATCS_Decorder_Module.c: 80:                     EECON1 = 0x41;
  3076     037D  3041               	movlw	65
  3077     037E  0095               	movwf	21	;volsfr
  3078     037F                     i1l172:	
  3079                           ;Project_ATCS_Decorder_Module.c: 81:                     while (EECON1bits.RD);
  3080                           
  3081     037F  1815               	btfsc	21,0	;volsfr
  3082     0380  2B82               	goto	u87_21
  3083     0381  2B83               	goto	u87_20
  3084     0382                     u87_21:
  3085     0382  2B7F               	goto	i1l172
  3086     0383                     u87_20:
  3087     0383                     i1l1612:
  3088                           
  3089                           ;Project_ATCS_Decorder_Module.c: 82:                     if (EEDAT != EE_STORE.EE_DATA[C
      +                          OUNT]) {
  3090     0383  3574               	lslf	i1EEPROM_SELECT@COUNT,w
  3091     0384  3E50               	addlw	(low ((_EE_STORE| 0+4)))& (0+255)
  3092     0385  0086               	movwf	6
  3093     0386  0187               	clrf	7
  3094     0387  3F40               	moviw [0]fsr1
  3095     0388  00F0               	movwf	??i1_EEPROM_SELECT
  3096     0389  3F41               	moviw [1]fsr1
  3097     038A  00F1               	movwf	??i1_EEPROM_SELECT+1
  3098     038B  0814               	movf	20,w	;volatile
  3099     038C  0671               	xorwf	??i1_EEPROM_SELECT+1,w
  3100     038D  1D03               	skipz
  3101     038E  2B91               	goto	u88_25
  3102     038F  0813               	movf	19,w	;volatile
  3103     0390  0670               	xorwf	??i1_EEPROM_SELECT,w
  3104     0391                     u88_25:
  3105     0391  1903               	skipnz
  3106     0392  2B94               	goto	u88_21
  3107     0393  2B95               	goto	u88_20
  3108     0394                     u88_21:
  3109     0394  2B9C               	goto	i1l1616
  3110     0395                     u88_20:
  3111     0395                     i1l1614:
  3112                           
  3113                           ;Project_ATCS_Decorder_Module.c: 83:                         EE_STORE.EE_REPORT[COUNT] =
      +                           0xFF;
  3114     0395  0874               	movf	i1EEPROM_SELECT@COUNT,w
  3115     0396  3E58               	addlw	(low ((_EE_STORE| 0+12)))& (0+255)
  3116     0397  0086               	movwf	6
  3117     0398  0187               	clrf	7
  3118     0399  30FF               	movlw	255
  3119     039A  0081               	movwf	1
  3120                           
  3121                           ;Project_ATCS_Decorder_Module.c: 84:                     } else {
  3122     039B  2BA1               	goto	i1l1618
  3123     039C                     i1l1616:
  3124                           
  3125                           ;Project_ATCS_Decorder_Module.c: 85:                         EE_STORE.EE_REPORT[COUNT] =
      +                           0x00;
  3126     039C  0874               	movf	i1EEPROM_SELECT@COUNT,w
  3127     039D  3E58               	addlw	(low ((_EE_STORE| 0+12)))& (0+255)
  3128     039E  0086               	movwf	6
  3129     039F  0187               	clrf	7
  3130     03A0  0181               	clrf	1
  3131     03A1                     i1l1618:
  3132                           
  3133                           ;Project_ATCS_Decorder_Module.c: 88:                 COUNT++;
  3134     03A1  3001               	movlw	1
  3135     03A2  00F0               	movwf	??i1_EEPROM_SELECT
  3136     03A3  0870               	movf	??i1_EEPROM_SELECT,w
  3137     03A4  07F4               	addwf	i1EEPROM_SELECT@COUNT,f
  3138     03A5                     i1l1620:
  3139                           
  3140                           ;Project_ATCS_Decorder_Module.c: 89:                 EE_STORE.EE_ADRS++;
  3141     03A5  3001               	movlw	1
  3142     03A6  0020               	movlb	0	; select bank0
  3143     03A7  07CE               	addwf	_EE_STORE+2,f
  3144     03A8  3000               	movlw	0
  3145     03A9  3DCF               	addwfc	_EE_STORE+3,f
  3146     03AA                     i1l1622:
  3147                           
  3148                           ;Project_ATCS_Decorder_Module.c: 90:             } while (COUNT < 4);
  3149     03AA  3004               	movlw	4
  3150     03AB  0274               	subwf	i1EEPROM_SELECT@COUNT,w
  3151     03AC  1C03               	skipc
  3152     03AD  2BAF               	goto	u89_21
  3153     03AE  2BB0               	goto	u89_20
  3154     03AF                     u89_21:
  3155     03AF  2B6D               	goto	i1l1608
  3156     03B0                     u89_20:
  3157     03B0                     i1l177:
  3158                           
  3159                           ;Project_ATCS_Decorder_Module.c: 91:             INTCONbits.GIE = 1;
  3160     03B0  178B               	bsf	11,7	;volatile
  3161                           
  3162                           ;Project_ATCS_Decorder_Module.c: 92:             return;
  3163     03B1  2C5F               	goto	i1l156
  3164     03B2                     i1l1624:
  3165                           
  3166                           ;Project_ATCS_Decorder_Module.c: 96:                 if(EE_STORE.EE_REPORT[COUNT]){
  3167     03B2  0874               	movf	i1EEPROM_SELECT@COUNT,w
  3168     03B3  3E58               	addlw	(low ((_EE_STORE| 0+12)))& (0+255)
  3169     03B4  0086               	movwf	6
  3170     03B5  0187               	clrf	7
  3171     03B6  0801               	movf	1,w
  3172     03B7  1903               	btfsc	3,2
  3173     03B8  2BBA               	goto	u90_21
  3174     03B9  2BBB               	goto	u90_20
  3175     03BA                     u90_21:
  3176     03BA  2BD5               	goto	i1l1646
  3177     03BB                     u90_20:
  3178     03BB                     i1l1626:
  3179                           
  3180                           ;Project_ATCS_Decorder_Module.c: 97:                     EEADR = EE_STORE.EE_ADRS;
  3181     03BB  084F               	movf	_EE_STORE+3,w
  3182     03BC  0023               	movlb	3	; select bank3
  3183     03BD  0092               	movwf	18	;volatile
  3184     03BE  0020               	movlb	0	; select bank0
  3185     03BF  084E               	movf	_EE_STORE+2,w
  3186     03C0  0023               	movlb	3	; select bank3
  3187     03C1  0091               	movwf	17	;volatile
  3188     03C2                     i1l1628:
  3189                           
  3190                           ;Project_ATCS_Decorder_Module.c: 98:                     EEDAT = EE_STORE.EE_DATA[COUNT]
      +                          ;
  3191     03C2  3574               	lslf	i1EEPROM_SELECT@COUNT,w
  3192     03C3  3E50               	addlw	(low ((_EE_STORE| 0+4)))& (0+255)
  3193     03C4  0086               	movwf	6
  3194     03C5  0187               	clrf	7
  3195     03C6  3F40               	moviw [0]fsr1
  3196     03C7  0093               	movwf	19	;volatile
  3197     03C8  3F41               	moviw [1]fsr1
  3198     03C9  0094               	movwf	20	;volatile
  3199     03CA                     i1l1630:
  3200                           
  3201                           ;Project_ATCS_Decorder_Module.c: 99:                     EECON1 = 0x44;
  3202     03CA  3044               	movlw	68
  3203     03CB  0095               	movwf	21	;volsfr
  3204     03CC                     i1l1632:
  3205                           
  3206                           ;Project_ATCS_Decorder_Module.c: 100:                     EECON2 = 0x55;
  3207     03CC  3055               	movlw	85
  3208     03CD  0096               	movwf	22	;volsfr
  3209     03CE                     i1l1634:
  3210                           
  3211                           ;Project_ATCS_Decorder_Module.c: 101:                     EECON2 = 0xAA;
  3212     03CE  30AA               	movlw	170
  3213     03CF  0096               	movwf	22	;volsfr
  3214     03D0                     i1l1636:
  3215                           
  3216                           ;Project_ATCS_Decorder_Module.c: 102:                     EECON1bits.WR = 1;
  3217     03D0  1495               	bsf	21,1	;volsfr
  3218     03D1                     i1l1638:
  3219                           
  3220                           ;Project_ATCS_Decorder_Module.c: 103:                     __nop();
  3221     03D1  0000               	nop
  3222     03D2                     i1l1640:
  3223                           
  3224                           ;Project_ATCS_Decorder_Module.c: 104:                     __nop();
  3225     03D2  0000               	nop
  3226     03D3                     i1l1642:
  3227                           
  3228                           ;Project_ATCS_Decorder_Module.c: 105:                     INTCONbits.GIE = 1;
  3229     03D3  178B               	bsf	11,7	;volatile
  3230     03D4  2C5F               	goto	i1l156
  3231     03D5                     i1l1646:
  3232                           
  3233                           ;Project_ATCS_Decorder_Module.c: 108:                 COUNT++;
  3234     03D5  3001               	movlw	1
  3235     03D6  00F0               	movwf	??i1_EEPROM_SELECT
  3236     03D7  0870               	movf	??i1_EEPROM_SELECT,w
  3237     03D8  07F4               	addwf	i1EEPROM_SELECT@COUNT,f
  3238     03D9                     i1l1648:
  3239                           
  3240                           ;Project_ATCS_Decorder_Module.c: 109:                 EEADR = EE_STORE.EE_ADRS++;
  3241     03D9  084F               	movf	_EE_STORE+3,w
  3242     03DA  0023               	movlb	3	; select bank3
  3243     03DB  0092               	movwf	18	;volatile
  3244     03DC  0020               	movlb	0	; select bank0
  3245     03DD  084E               	movf	_EE_STORE+2,w
  3246     03DE  0023               	movlb	3	; select bank3
  3247     03DF  0091               	movwf	17	;volatile
  3248     03E0                     i1l1650:
  3249     03E0  3001               	movlw	1
  3250     03E1  0020               	movlb	0	; select bank0
  3251     03E2  07CE               	addwf	_EE_STORE+2,f
  3252     03E3  3000               	movlw	0
  3253     03E4  3DCF               	addwfc	_EE_STORE+3,f
  3254     03E5                     i1l1652:
  3255                           
  3256                           ;Project_ATCS_Decorder_Module.c: 110:             }while(COUNT < 4);
  3257     03E5  3004               	movlw	4
  3258     03E6  0274               	subwf	i1EEPROM_SELECT@COUNT,w
  3259     03E7  1C03               	skipc
  3260     03E8  2BEA               	goto	u91_21
  3261     03E9  2BEB               	goto	u91_20
  3262     03EA                     u91_21:
  3263     03EA  2BB2               	goto	i1l1624
  3264     03EB                     u91_20:
  3265     03EB                     i1l181:
  3266                           
  3267                           ;Project_ATCS_Decorder_Module.c: 111:             INTCONbits.GIE = 1;
  3268     03EB  178B               	bsf	11,7	;volatile
  3269                           
  3270                           ;Project_ATCS_Decorder_Module.c: 112:             return;
  3271     03EC  2C5F               	goto	i1l156
  3272     03ED                     i1l1654:
  3273                           
  3274                           ;Project_ATCS_Decorder_Module.c: 116:                 if(EE_STORE.EE_REPORT[COUNT]){
  3275     03ED  0874               	movf	i1EEPROM_SELECT@COUNT,w
  3276     03EE  3E58               	addlw	(low ((_EE_STORE| 0+12)))& (0+255)
  3277     03EF  0086               	movwf	6
  3278     03F0  0187               	clrf	7
  3279     03F1  0801               	movf	1,w
  3280     03F2  1903               	btfsc	3,2
  3281     03F3  2BF5               	goto	u92_21
  3282     03F4  2BF6               	goto	u92_20
  3283     03F5                     u92_21:
  3284     03F5  2C2A               	goto	i1l1666
  3285     03F6                     u92_20:
  3286     03F6                     i1l1656:
  3287                           
  3288                           ;Project_ATCS_Decorder_Module.c: 117:                     EEADR = EE_STORE.EE_ADRS;
  3289     03F6  084F               	movf	_EE_STORE+3,w
  3290     03F7  0023               	movlb	3	; select bank3
  3291     03F8  0092               	movwf	18	;volatile
  3292     03F9  0020               	movlb	0	; select bank0
  3293     03FA  084E               	movf	_EE_STORE+2,w
  3294     03FB  0023               	movlb	3	; select bank3
  3295     03FC  0091               	movwf	17	;volatile
  3296                           
  3297                           ;Project_ATCS_Decorder_Module.c: 118:                     EECON1 = 0x01;
  3298     03FD  3001               	movlw	1
  3299     03FE  0095               	movwf	21	;volsfr
  3300     03FF                     i1l185:	
  3301                           ;Project_ATCS_Decorder_Module.c: 119:                     while (EECON1bits.RD);
  3302                           
  3303     03FF  1815               	btfsc	21,0	;volsfr
  3304     0400  2C02               	goto	u93_21
  3305     0401  2C03               	goto	u93_20
  3306     0402                     u93_21:
  3307     0402  2BFF               	goto	i1l185
  3308     0403                     u93_20:
  3309     0403                     i1l1658:
  3310                           
  3311                           ;Project_ATCS_Decorder_Module.c: 120:                     EE_STORE.EE_DATA[COUNT] = EEDA
      +                          T;
  3312     0403  3574               	lslf	i1EEPROM_SELECT@COUNT,w
  3313     0404  3E50               	addlw	(low ((_EE_STORE| 0+4)))& (0+255)
  3314     0405  0086               	movwf	6
  3315     0406  0187               	clrf	7
  3316     0407  0813               	movf	19,w	;volatile
  3317     0408  3FC0               	movwi [0]fsr1
  3318     0409  0814               	movf	20,w	;volatile
  3319     040A  3FC1               	movwi [1]fsr1
  3320                           
  3321                           ;Project_ATCS_Decorder_Module.c: 121:                     if (EEDAT != EE_STORE.EE_DATA[
      +                          COUNT]) {
  3322     040B  3574               	lslf	i1EEPROM_SELECT@COUNT,w
  3323     040C  3E50               	addlw	(low ((_EE_STORE| 0+4)))& (0+255)
  3324     040D  0086               	movwf	6
  3325     040E  0187               	clrf	7
  3326     040F  3F40               	moviw [0]fsr1
  3327     0410  00F0               	movwf	??i1_EEPROM_SELECT
  3328     0411  3F41               	moviw [1]fsr1
  3329     0412  00F1               	movwf	??i1_EEPROM_SELECT+1
  3330     0413  0814               	movf	20,w	;volatile
  3331     0414  0671               	xorwf	??i1_EEPROM_SELECT+1,w
  3332     0415  1D03               	skipz
  3333     0416  2C19               	goto	u94_25
  3334     0417  0813               	movf	19,w	;volatile
  3335     0418  0670               	xorwf	??i1_EEPROM_SELECT,w
  3336     0419                     u94_25:
  3337     0419  1903               	skipnz
  3338     041A  2C1C               	goto	u94_21
  3339     041B  2C1D               	goto	u94_20
  3340     041C                     u94_21:
  3341     041C  2C24               	goto	i1l1662
  3342     041D                     u94_20:
  3343     041D                     i1l1660:
  3344                           
  3345                           ;Project_ATCS_Decorder_Module.c: 122:                         EE_STORE.EE_REPORT[COUNT] 
      +                          = 0xFF;
  3346     041D  0874               	movf	i1EEPROM_SELECT@COUNT,w
  3347     041E  3E58               	addlw	(low ((_EE_STORE| 0+12)))& (0+255)
  3348     041F  0086               	movwf	6
  3349     0420  0187               	clrf	7
  3350     0421  30FF               	movlw	255
  3351     0422  0081               	movwf	1
  3352                           
  3353                           ;Project_ATCS_Decorder_Module.c: 123:                     } else {
  3354     0423  2C5F               	goto	i1l156
  3355     0424                     i1l1662:
  3356                           
  3357                           ;Project_ATCS_Decorder_Module.c: 124:                         EE_STORE.EE_REPORT[COUNT] 
      +                          = 0x00;
  3358     0424  0874               	movf	i1EEPROM_SELECT@COUNT,w
  3359     0425  3E58               	addlw	(low ((_EE_STORE| 0+12)))& (0+255)
  3360     0426  0086               	movwf	6
  3361     0427  0187               	clrf	7
  3362     0428  0181               	clrf	1
  3363     0429  2C5F               	goto	i1l156
  3364     042A                     i1l1666:
  3365                           
  3366                           ;Project_ATCS_Decorder_Module.c: 128:                 COUNT++;
  3367     042A  3001               	movlw	1
  3368     042B  00F0               	movwf	??i1_EEPROM_SELECT
  3369     042C  0870               	movf	??i1_EEPROM_SELECT,w
  3370     042D  07F4               	addwf	i1EEPROM_SELECT@COUNT,f
  3371     042E                     i1l1668:
  3372                           
  3373                           ;Project_ATCS_Decorder_Module.c: 129:                 EEADR = EE_STORE.EE_ADRS++;
  3374     042E  084F               	movf	_EE_STORE+3,w
  3375     042F  0023               	movlb	3	; select bank3
  3376     0430  0092               	movwf	18	;volatile
  3377     0431  0020               	movlb	0	; select bank0
  3378     0432  084E               	movf	_EE_STORE+2,w
  3379     0433  0023               	movlb	3	; select bank3
  3380     0434  0091               	movwf	17	;volatile
  3381     0435                     i1l1670:
  3382     0435  3001               	movlw	1
  3383     0436  0020               	movlb	0	; select bank0
  3384     0437  07CE               	addwf	_EE_STORE+2,f
  3385     0438  3000               	movlw	0
  3386     0439  3DCF               	addwfc	_EE_STORE+3,f
  3387     043A                     i1l1672:
  3388                           
  3389                           ;Project_ATCS_Decorder_Module.c: 130:             }while(COUNT < 4);
  3390     043A  3004               	movlw	4
  3391     043B  0274               	subwf	i1EEPROM_SELECT@COUNT,w
  3392     043C  1C03               	skipc
  3393     043D  2C3F               	goto	u95_21
  3394     043E  2C40               	goto	u95_20
  3395     043F                     u95_21:
  3396     043F  2BED               	goto	i1l1654
  3397     0440                     u95_20:
  3398     0440                     i1l190:
  3399                           
  3400                           ;Project_ATCS_Decorder_Module.c: 131:             INTCONbits.GIE = 1;
  3401     0440  178B               	bsf	11,7	;volatile
  3402                           
  3403                           ;Project_ATCS_Decorder_Module.c: 132:             return;
  3404     0441  2C5F               	goto	i1l156
  3405     0442                     i1l1676:
  3406     0442  0020               	movlb	0	; select bank0
  3407     0443  084C               	movf	_EE_STORE,w
  3408     0444  00F0               	movwf	??i1_EEPROM_SELECT
  3409     0445  01F1               	clrf	??i1_EEPROM_SELECT+1
  3410                           
  3411                           ; Switch on 2 bytes has been partitioned into a top level switch of size 1, and 1 sub-sw
      +                          itches
  3412                           ; Switch size 1, requested type "simple"
  3413                           ; Number of cases is 1, Range of values is 0 to 0
  3414                           ; switch strategies available:
  3415                           ; Name         Instructions Cycles
  3416                           ; simple_byte            4     3 (average)
  3417                           ; direct_byte            8     6 (fixed)
  3418                           ; jumptable            260     6 (fixed)
  3419                           ;	Chosen strategy is simple_byte
  3420     0446  0871               	movf	??i1_EEPROM_SELECT+1,w
  3421     0447  3A00               	xorlw	0	; case 0
  3422     0448  1903               	skipnz
  3423     0449  2C4B               	goto	i1l1942
  3424     044A  2C5F               	goto	i1l156
  3425     044B                     i1l1942:
  3426                           
  3427                           ; Switch size 1, requested type "simple"
  3428                           ; Number of cases is 6, Range of values is 0 to 5
  3429                           ; switch strategies available:
  3430                           ; Name         Instructions Cycles
  3431                           ; direct_byte           18     6 (fixed)
  3432                           ; simple_byte           19    10 (average)
  3433                           ; jumptable            260     6 (fixed)
  3434                           ;	Chosen strategy is simple_byte
  3435     044B  0870               	movf	??i1_EEPROM_SELECT,w
  3436     044C  3A00               	xorlw	0	; case 0
  3437     044D  1903               	skipnz
  3438     044E  2AB8               	goto	i1l1544
  3439     044F  3A01               	xorlw	1	; case 1
  3440     0450  1903               	skipnz
  3441     0451  2AF6               	goto	i1l1562
  3442     0452  3A03               	xorlw	3	; case 2
  3443     0453  1903               	skipnz
  3444     0454  2B29               	goto	i1l165
  3445     0455  3A01               	xorlw	1	; case 3
  3446     0456  1903               	skipnz
  3447     0457  2B6C               	goto	i1l169
  3448     0458  3A07               	xorlw	7	; case 4
  3449     0459  1903               	skipnz
  3450     045A  2BB2               	goto	i1l1624
  3451     045B  3A01               	xorlw	1	; case 5
  3452     045C  1903               	skipnz
  3453     045D  2BED               	goto	i1l1654
  3454     045E  2C5F               	goto	i1l156
  3455     045F                     i1l156:
  3456     045F  0008               	return
  3457     0460                     __end_ofi1_EEPROM_SELECT:
  3458     007E                     btemp	set	126	;btemp
  3459     007E                     int$flags	set	126
  3460     007E                     wtemp0	set	126
  3461                           
  3462                           	psect	idloc
  3463                           
  3464                           ;Config register IDLOC0 @ 0x8000
  3465                           ;	unspecified, using default values
  3466     8000                     	org	32768
  3467     8000  3FFF               	dw	16383
  3468                           
  3469                           ;Config register IDLOC1 @ 0x8001
  3470                           ;	unspecified, using default values
  3471     8001                     	org	32769
  3472     8001  3FFF               	dw	16383
  3473                           
  3474                           ;Config register IDLOC2 @ 0x8002
  3475                           ;	unspecified, using default values
  3476     8002                     	org	32770
  3477     8002  3FFF               	dw	16383
  3478                           
  3479                           ;Config register IDLOC3 @ 0x8003
  3480                           ;	unspecified, using default values
  3481     8003                     	org	32771
  3482     8003  3FFF               	dw	16383
  3483                           
  3484                           	psect	config
  3485                           
  3486                           ;Config register CONFIG1 @ 0x8007
  3487                           ;	Oscillator Selection
  3488                           ;	FOSC = INTOSC, INTOSC oscillator: I/O function on CLKIN pin
  3489                           ;	Watchdog Timer Enable
  3490                           ;	WDTE = OFF, WDT disabled
  3491                           ;	Power-up Timer Enable
  3492                           ;	PWRTE = ON, PWRT enabled
  3493                           ;	MCLR Pin Function Select
  3494                           ;	MCLRE = OFF, MCLR/VPP pin function is digital input
  3495                           ;	Flash Program Memory Code Protection
  3496                           ;	CP = OFF, Program memory code protection is disabled
  3497                           ;	Data Memory Code Protection
  3498                           ;	CPD = OFF, Data memory code protection is disabled
  3499                           ;	Brown-out Reset Enable
  3500                           ;	BOREN = ON, Brown-out Reset enabled
  3501                           ;	Clock Out Enable
  3502                           ;	CLKOUTEN = OFF, CLKOUT function is disabled. I/O or oscillator function on the CLKOUT 
      +                          pin
  3503                           ;	Internal/External Switchover
  3504                           ;	IESO = OFF, Internal/External Switchover mode is disabled
  3505                           ;	Fail-Safe Clock Monitor Enable
  3506                           ;	FCMEN = OFF, Fail-Safe Clock Monitor is disabled
  3507     8007                     	org	32775
  3508     8007  0F84               	dw	3972
  3509                           
  3510                           ;Config register CONFIG2 @ 0x8008
  3511                           ;	Flash Memory Self-Write Protection
  3512                           ;	WRT = OFF, Write protection off
  3513                           ;	PLL Enable
  3514                           ;	PLLEN = OFF, 4x PLL disabled
  3515                           ;	Stack Overflow/Underflow Reset Enable
  3516                           ;	STVREN = ON, Stack Overflow or Underflow will cause a Reset
  3517                           ;	Brown-out Reset Voltage Selection
  3518                           ;	BORV = HI, Brown-out Reset Voltage (Vbor), high trip point selected.
  3519                           ;	Low-Voltage Programming Enable
  3520                           ;	LVP = OFF, High-voltage on MCLR/VPP must be used for programming
  3521     8008                     	org	32776
  3522     8008  1AFF               	dw	6911

Data Sizes:
    Strings     0
    Constant    69
    Data        16
    BSS         4
    Persistent  32
    Stack       0

Auto Spaces:
    Space          Size  Autos    Used
    COMMON           14      8      10
    BANK0            80     44      62

Pointer List with Targets:

    CONFIG_SET@P_RANGE	PTR unsigned char  size(1) Largest target is 1
		 -> main@DCC_PACKET_RANGE(BANK0[1]), 

    CONFIG_SET@DATA	PTR unsigned char  size(1) Largest target is 32
		 -> main@BYPASS(BANK0[32]), 

    DEC_SET@P_RANGE	PTR unsigned char  size(1) Largest target is 1
		 -> main@DCC_PACKET_RANGE(BANK0[1]), 

    DEC_SET@DATA	PTR unsigned char  size(1) Largest target is 32
		 -> main@BYPASS(BANK0[32]), 

    PACKET_CONTROL@P_RANGE	PTR unsigned char  size(1) Largest target is 1
		 -> main@DCC_PACKET_RANGE(BANK0[1]), 

    PACKET_CONTROL@DATA	PTR unsigned char  size(1) Largest target is 32
		 -> main@BYPASS(BANK0[32]), 


Critical Paths under _main in COMMON

    None.

Critical Paths under _isr in COMMON

    _isr->i1_EEPROM_SELECT

Critical Paths under _main in BANK0

    _main->_PACKET_CONTROL
    _PACKET_CONTROL->_CONFIG_SET
    _PACKET_CONTROL->_DEC_SET

Critical Paths under _isr in BANK0

    None.

Call Graph Tables:

 ---------------------------------------------------------------------------------
 (Depth) Function   	        Calls       Base Space   Used Autos Params    Refs
 ---------------------------------------------------------------------------------
 (0) _main                                                38    38      0    1544
                                              7 BANK0     37    37      0
                      _EEPROM_SELECT
                     _PACKET_CONTROL
 ---------------------------------------------------------------------------------
 (1) _PACKET_CONTROL                                       5     4      1     580
                                              2 BANK0      5     4      1
                         _CONFIG_SET
                            _DEC_SET
 ---------------------------------------------------------------------------------
 (2) _DEC_SET                                              2     1      1     126
                                              0 BANK0      2     1      1
 ---------------------------------------------------------------------------------
 (2) _CONFIG_SET                                           2     1      1     126
                                              0 BANK0      2     1      1
 ---------------------------------------------------------------------------------
 (1) _EEPROM_SELECT                                        5     5      0     579
                                              0 BANK0      5     5      0
 ---------------------------------------------------------------------------------
 Estimated maximum stack depth 2
 ---------------------------------------------------------------------------------
 (Depth) Function   	        Calls       Base Space   Used Autos Params    Refs
 ---------------------------------------------------------------------------------
 (3) _isr                                                  3     3      0     757
                                              5 COMMON     3     3      0
                    i1_EEPROM_SELECT
 ---------------------------------------------------------------------------------
 (4) i1_EEPROM_SELECT                                      5     5      0     579
                                              0 COMMON     5     5      0
 ---------------------------------------------------------------------------------
 Estimated maximum stack depth 4
 ---------------------------------------------------------------------------------

 Call Graph Graphs:

 _main (ROOT)
   _EEPROM_SELECT
   _PACKET_CONTROL
     _CONFIG_SET
     _DEC_SET

 _isr (ROOT)
   i1_EEPROM_SELECT

 Address spaces:
Name               Size   Autos  Total    Cost      Usage
BIGRAM              70      0       0       0        0.0%
EEDATA             100      0       0       0        0.0%
NULL                 0      0       0       0        0.0%
CODE                 0      0       0       0        0.0%
BITCOMMON            E      0       0       1        0.0%
BITSFR0              0      0       0       1        0.0%
SFR0                 0      0       0       1        0.0%
COMMON               E      8       A       2       71.4%
BITSFR1              0      0       0       2        0.0%
SFR1                 0      0       0       2        0.0%
BITSFR2              0      0       0       3        0.0%
SFR2                 0      0       0       3        0.0%
STACK                0      0       0       3        0.0%
BITSFR3              0      0       0       4        0.0%
SFR3                 0      0       0       4        0.0%
ABS                  0      0      48       4        0.0%
BITBANK0            50      0       0       5        0.0%
BITSFR4              0      0       0       5        0.0%
SFR4                 0      0       0       5        0.0%
BANK0               50     2C      3E       6       77.5%
BITSFR5              0      0       0       6        0.0%
SFR5                 0      0       0       6        0.0%
BITSFR6              0      0       0       7        0.0%
SFR6                 0      0       0       7        0.0%
DATA                 0      0      48       7        0.0%
BITSFR7              0      0       0       8        0.0%
SFR7                 0      0       0       8        0.0%
BITSFR8              0      0       0       9        0.0%
SFR8                 0      0       0       9        0.0%
BITSFR9              0      0       0      10        0.0%
SFR9                 0      0       0      10        0.0%
BITSFR10             0      0       0      11        0.0%
SFR10                0      0       0      11        0.0%
BITSFR11             0      0       0      12        0.0%
SFR11                0      0       0      12        0.0%
BITSFR12             0      0       0      13        0.0%
SFR12                0      0       0      13        0.0%
BITSFR13             0      0       0      14        0.0%
SFR13                0      0       0      14        0.0%
BITSFR14             0      0       0      15        0.0%
SFR14                0      0       0      15        0.0%
BITSFR15             0      0       0      16        0.0%
SFR15                0      0       0      16        0.0%
BITSFR16             0      0       0      17        0.0%
SFR16                0      0       0      17        0.0%
BITSFR17             0      0       0      18        0.0%
SFR17                0      0       0      18        0.0%
BITSFR18             0      0       0      19        0.0%
SFR18                0      0       0      19        0.0%
BITSFR19             0      0       0      20        0.0%
SFR19                0      0       0      20        0.0%
BITSFR20             0      0       0      21        0.0%
SFR20                0      0       0      21        0.0%
BITSFR21             0      0       0      22        0.0%
SFR21                0      0       0      22        0.0%
BITSFR22             0      0       0      23        0.0%
SFR22                0      0       0      23        0.0%
BITSFR23             0      0       0      24        0.0%
SFR23                0      0       0      24        0.0%
BITSFR24             0      0       0      25        0.0%
SFR24                0      0       0      25        0.0%
BITSFR25             0      0       0      26        0.0%
SFR25                0      0       0      26        0.0%
BITSFR26             0      0       0      27        0.0%
SFR26                0      0       0      27        0.0%
BITSFR27             0      0       0      28        0.0%
SFR27                0      0       0      28        0.0%
BITSFR28             0      0       0      29        0.0%
SFR28                0      0       0      29        0.0%
BITSFR29             0      0       0      30        0.0%
SFR29                0      0       0      30        0.0%
BITSFR30             0      0       0      31        0.0%
SFR30                0      0       0      31        0.0%
BITSFR31             0      0       0      32        0.0%
SFR31                0      0       0      32        0.0%


Microchip Technology PIC Macro Assembler V2.40 build 20220703182018 
Symbol Table                                                                                   Thu Dec 14 21:50:22 2023

                     l59 0504                      l202 0522                      l203 0524  
                    l208 05B4                      l161 0150                      l153 010E  
                    l217 05B5                      l172 01C8                      l164 016E  
                    l156 02B4                      l181 023A                      l165 0170  
                    l190 0296                      l185 024E                      l177 01FD  
                    l169 01B5                      l197 0558                      l198 0514  
                    l199 0516                      _PR2 001B                      u600 0112  
                    u601 0111                      u610 013A                      u611 0139  
                    u700 01FD                      u620 0144                      u701 01FC  
                    u621 0143                      u710 0208                      u630 0154  
                    u711 0207                      u631 0153                      u720 023A  
                    u640 016E                      u721 0239                      u641 016D  
                    u730 0245                      u650 017E                      u731 0244  
                    u651 017D                      u740 0252                      u660 01A5  
                    u741 0251                      u661 01A4                      u750 0273  
                    u670 01BF                      u590 0103                      u751 0272  
                    u671 01BE                      u591 0102                      u760 0296  
                    u680 01CC                      u761 0295                      u681 01CB  
                    u690 01E3                      u755 026F                      u691 01E2  
                    u695 01DF                      u775 0533                      u960 0491  
                    u961 0490                      u970 04AB                      u971 04AA  
                    u980 04B1                      u981 04B0                      u990 04C9  
                    u991 04C8                      _isr 0004                      wreg 0009  
        __end_of_DEC_SET 05B5                     l1400 0171                     l1410 0191  
                   l1402 0175                     l1420 019F                     l1412 0193  
                   l1404 017E                     l1430 01B3                     l1422 01A5  
                   l1414 0195                     l1406 0185                     l1502 0298  
                   l1510 0508                     l1440 01E3                     l1424 01B0  
                   l1408 018F                     l1416 0196                     l1512 0509  
                   l1450 01FF                     l1442 01EA                     l1434 01B6  
                   l1426 01B1                     l1418 019B                     l1370 00FA  
                   l1522 051D                     l1514 050D                     l1460 021D  
                   l1452 0208                     l1436 01BF                     l1444 01EF  
                   l1428 01B2                     l1372 0103                     l1380 0124  
                   l1532 052D                     l1700 0477                     l1462 021F  
                   l1454 020F                     l1446 01F3                     l1438 01CC  
                   l1390 0144                     l1382 0128                     l1374 0112  
                   l1366 00F6                     l1526 0526                     l1518 0518  
                   l1710 0489                     l1702 047A                     l1480 023C  
                   l1464 0220                     l1456 0219                     l1472 0224  
                   l1448 01F7                     l1392 014F                     l1384 012F  
                   l1376 011C                     l1368 00F7                     l1720 0497  
                   l1712 048C                     l1704 047D                     l1482 0245  
                   l1474 0228                     l1466 0221                     l1458 021B  
                   l1394 0154                     l1386 0134                     l1730 04B1  
                   l1722 049A                     l1714 0491                     l1706 047F  
                   l1484 0252                     l1492 0280                     l1476 022F  
                   l1468 0222                     l1396 0164                     l1388 013B  
                   l1740 04C9                     l1732 04B5                     l1724 049C  
                   l1716 0491                     l1708 0482                     l1494 0284  
                   l1486 0273                     l1478 0234                     l1398 0168  
                   l1750 04E8                     l1742 04D3                     l1734 04B8  
                   l1726 04A6                     l1718 0493                     l1496 028B  
                   l1488 027A                     l1752 04EA                     l1744 04D8  
                   l1736 04BF                     l1728 04AB                     l1498 0290  
                   l1754 04EC                     l1746 04DF                     l1738 04C3  
                   l1690 046A                     l1940 02A0                     l1756 04EF  
                   l1748 04E5                     l1692 046D                     l1684 0460  
                   l1758 04FD                     l1694 046F                     l1686 0463  
                   l1696 0472                     l1688 0465                     l1938 053E  
                   l1698 0475                     ?_isr 0070                     _DATA 0079  
                   u1000 04D3                     u1001 04D2                     u1010 04D8  
                   u1011 04D7                     u1020 04E5                     u1021 04E4  
                   u1030 04FD                     u1031 04FC                     u1035 04F9  
                   _PIE1 0091                     _PIE2 0092                     _PIR1 0011  
                   i1l97 00BD                     i1l98 004F                     _TMR1 0016  
                   _STCR 005C                     _main 0460                     fsr0h 0005  
                   fsr1h 0007                     indf0 0000                     fsr0l 0004  
                   indf1 0001                     fsr1l 0006                     btemp 007E  
       __end_of_DCC_ADRS 05B4                     start 00E2           CONFIG_SET@DATA 0021  
     EEPROM_SELECT@COUNT 0024                    ??_isr 0075                    ?_main 0070  
                  _EEADR 0191                    _EEDAT 0193                    _T1CON 0018  
                  _T2CON 001C                    _IOCAF 0393                    _IOCAP 0391  
                  i1l105 00BC                    i1l124 00E0                    i1l118 00C7  
                  i1l161 030B                    i1l153 02CC                    i1l172 037F  
                  i1l164 0327                    i1l156 045F                    i1l181 03EB  
                  i1l165 0329                    i1l190 0440                    i1l185 03FF  
                  i1l177 03B0                    i1l169 036C                    _STACK 00A0  
                  _PORTA 000C                    u80_20 02F5                    u80_21 02F4  
                  u81_20 02FF                    u81_21 02FE                    _TRISA 008C  
                  u90_20 03BB                    u82_20 030F                    u90_21 03BA  
                  u82_21 030E                    u91_20 03EB                    u83_20 0327  
                  u91_21 03EA                    u83_21 0326                    u92_20 03F6  
                  u84_20 0337                    u92_21 03F5                    u84_21 0336  
                  u93_20 0403                    u85_20 035C                    u93_21 0402  
                  u85_21 035B                    u94_20 041D                    u86_20 0376  
                  u78_20 02C1                    u94_21 041C                    u86_21 0375  
                  u78_21 02C0                    u94_25 0419                    u95_20 0440  
                  u87_20 0383                    u79_20 02D0                    u95_21 043F  
                  u87_21 0382                    u79_21 02CF                    u88_20 0395  
                  u88_21 0394                    u88_25 0391                    u89_20 03B0  
                  u89_21 03AF         __end_of_PWM_DATA 0599                    status 0003  
                  wtemp0 007E    __end_of_EEPROM_SELECT 02B5          __initialization 00E3  
           __end_of_main 0506                ??_DEC_SET 0021                   ??_main 0027  
         DEC_SET@P_RANGE 0020                   _CCPR1L 0291                   _EECON1 0195  
                 _EECON2 0196                   _APFCON 011D       PACKET_CONTROL@DATA 0026  
                 _ANSELA 018C         ??_PACKET_CONTROL 0023                   u110_20 0040  
                 u110_21 003F                   u111_20 0046                   u111_21 0045  
                 i1l1600 0368                   u120_20 0095                   u112_20 0053  
                 u104_20 000A                   u120_21 0094                   u112_21 0052  
                 u104_21 0009                   i1l1610 0376                   i1l1602 0369  
                 i1l1620 03A5                   i1l1612 0383                   i1l1604 036A  
                 i1l1540 02B5                   i1l1630 03CA                   i1l1622 03AA  
                 i1l1614 0395                   i1l1550 02D8                   i1l1542 02B6  
                 i1l1640 03D2                   i1l1632 03CC                   i1l1624 03B2  
                 i1l1616 039C                   i1l1608 036D                   i1l1560 02EF  
                 i1l1544 02B8                   u121_20 0099                   i1l1800 006F  
                 u113_20 0059                   u105_20 0018                   u121_21 0098  
                 u113_21 0058                   u105_21 0017                   i1l1650 03E0  
                 i1l1642 03D3                   i1l1634 03CE                   i1l1626 03BB  
                 i1l1618 03A1                   i1l1570 031C                   i1l1562 02F6  
                 i1l1546 02C1                   i1l1554 02DF                   i1l1810 008C  
                 i1l1802 0072                   i1l1660 041D                   i1l1652 03E5  
                 i1l1636 03D0                   i1l1628 03C2                   i1l1580 033E  
                 i1l1572 0321                   i1l1564 02FF                   i1l1556 02E3  
                 i1l1548 02D0                   i1l1812 0095                   i1l1820 00A6  
                 i1l1804 007B                   i1l1670 0435                   i1l1662 0424  
                 i1l1654 03ED                   i1l1638 03D1                   i1l1646 03D5  
                 i1l1582 0346                   i1l1590 034D                   i1l1574 032A  
                 i1l1566 030A                   i1l1558 02EA                   i1l1822 00AC  
                 i1l1830 00BA                   i1l1814 0099                   i1l1806 007F  
                 i1l1672 043A                   i1l1656 03F6                   i1l1648 03D9  
                 i1l1592 0351                   i1l1584 0348                   i1l1576 032E  
                 i1l1568 030F                   i1l1840 00D2                   i1l1832 00C2  
                 i1l1824 00AD                   u122_20 00AC                   i1l1816 009F  
                 u114_20 0062                   i1l1808 0083                   u106_20 0021  
                 i1l1760 0006                   u122_21 00AB                   u114_21 0061  
                 u106_21 0020                   i1l1658 0403                   i1l1666 042A  
                 i1l1594 0356                   i1l1586 034A                   i1l1578 0337  
                 i1l1842 00D5                   i1l1834 00C3                   i1l1826 00B3  
                 i1l1818 00A2                   i1l1770 0013                   i1l1762 0006  
                 i1l1668 042E                   i1l1596 035C                   i1l1588 034C  
                 i1l1676 0442                   i1l1844 00DB                   i1l1836 00CB  
                 i1l1828 00B6                   i1l1780 0033                   i1l1772 0018  
                 i1l1764 000A                   i1l1942 044B                   i1l1598 0367  
                 i1l1846 00DD                   i1l1838 00CC                   i1l1790 004D  
                 i1l1782 003C                   i1l1774 0021                   i1l1766 000F  
                 u123_20 00C2                   u115_20 006B                   i1l1792 0053  
                 i1l1784 0040                   i1l1776 002A                   u107_20 002A  
                 i1l1768 0011                   u123_21 00C1                   u115_21 006A  
                 u107_21 0029                   i1l1794 0059                   i1l1786 0046  
                 i1l1778 002E                   i1l1796 0062                   i1l1788 004C  
                 i1l1798 006B                   u124_20 00CB                   u116_20 006F  
                 u108_20 002E                   u124_21 00CA                   u116_21 006E  
                 u108_21 002D                   u125_20 00D2                   u117_20 007B  
                 u109_20 003C                   u125_21 00D1                   u117_21 007A  
                 u109_21 003B                   u126_20 00DB                   u118_20 007F  
                 u126_21 00DA                   u118_21 007E                   u119_20 008C  
                 u119_21 008B                   _INTCON 000B                   _OSCCON 0099  
 i1EEPROM_SELECT@EE_SAVE 0072             ??_CONFIG_SET 0021  __end_of__initialization 00F3  
         __pcstackCOMMON 0070       __end_of_CONFIG_SET 05B6             __pidataBANK0 0599  
   main@DCC_PACKET_RANGE 004B     EEPROM_SELECT@EE_SAVE 0022               __pbssBANK0 005C  
             __pmaintext 0460               __pintentry 0004                  _CCP1CON 0293  
                _DEC_SET 05B4                  _COUNTER 0078                  __ptext1 0506  
                __ptext2 05B4                  __ptext3 05B5                  __ptext4 00F6  
                __ptext6 02B5    PACKET_CONTROL@P_RANGE 0022     end_of_initialization 00F3  
                init_ram 05A9                  initloop 05AA               main@PACKET 0049  
             main@BYPASS 0029        ??i1_EEPROM_SELECT 0070        CONFIG_SET@P_RANGE 0020  
    start_initialization 00E3              __end_of_isr 00E2            _EEPROM_SELECT 00F6  
            __pdataBANK0 004C                 ?_DEC_SET 0020              __pbssCOMMON 0078  
              ___latbits 0000            __pcstackBANK0 0020           ?_EEPROM_SELECT 0070  
               _DCC_ADRS 05AF                 _COM_FLAG 005D                 _EE_STORE 004C  
               _PIR1bits 0011                 _PIR2bits 0012                 _PSTR1CON 0296  
               _PWM_DATA 0559          i1_EEPROM_SELECT 02B5                main@count 004A  
            DEC_SET@DATA 0021          ??_EEPROM_SELECT 0020               _EECON1bits 0195  
         _PACKET_CONTROL 0506     i1EEPROM_SELECT@COUNT 0074               _CONFIG_SET 05B5  
 __end_of_PACKET_CONTROL 0559  __end_ofi1_EEPROM_SELECT 0460                 int$flags 007E  
               isr@COUNT 0076               _INTCONbits 000B                 intlevel1 0000  
        ?_PACKET_CONTROL 0022            __pstringtext1 0559            __pstringtext2 05AF  
            ?_CONFIG_SET 0020         ?i1_EEPROM_SELECT 0070  
